	.file	"inline.bc"
	.text
.Ltext_begin:
	.data
	.file	1 "../../straightDFA/init.c"
	.file	2 "/usr/include/libio.h"
	.file	3 "../../straightDFA/log.h"
	.file	4 "/usr/include/x86_64-linux-gnu/bits/semaphore.h"
	.file	5 "../../straightDFA/log.c"
	.text
	.globl	myListen
	.align	16, 0x90
	.type	myListen,@function
myListen:                               # @myListen
	.cfi_startproc
# BB#0:                                 # %entry
	pushq	%rbp
.Ltmp3:
	.cfi_def_cfa_offset 16
.Ltmp4:
	.cfi_offset %rbp, -16
	movq	%rsp, %rbp
.Ltmp5:
	.cfi_def_cfa_register %rbp
	pushq	%r15
	pushq	%r14
	pushq	%r13
	pushq	%r12
	pushq	%rbx
	subq	$72, %rsp
.Ltmp6:
	.cfi_offset %rbx, -56
.Ltmp7:
	.cfi_offset %r12, -48
.Ltmp8:
	.cfi_offset %r13, -40
.Ltmp9:
	.cfi_offset %r14, -32
.Ltmp10:
	.cfi_offset %r15, -24
	movw	$1, -44(%rbp)
	.loc	5 38 0                  # ../../straightDFA/log.c:38:0
	movq	addr(%rip), %rax
	movw	$1, (%rax)
	.loc	5 39 0                  # ../../straightDFA/log.c:39:0
	movq	addr(%rip), %rax
	addq	$2, %rax
	movq	%rax, addr(%rip)
	.loc	5 40 0                  # ../../straightDFA/log.c:40:0
	movq	buf(%rip), %rcx
	.loc	5 39 0                  # ../../straightDFA/log.c:39:0
	cmpq	8(%rcx), %rax
	jne	.LBB0_3
# BB#1:                                 # %if.else.i
	.loc	5 45 0                  # ../../straightDFA/log.c:45:0
	movq	addr(%rip), %rax
	movq	buf(%rip), %rcx
	movq	%rax, 16(%rcx)
	.loc	5 47 0                  # ../../straightDFA/log.c:47:0
	movq	buf(%rip), %rdi
	addq	$32, %rdi
	callq	sem_post
	.loc	5 50 0                  # ../../straightDFA/log.c:50:0
	movq	buf(%rip), %rax
	movq	96(%rax), %rax
	movq	%rax, buf(%rip)
	.loc	5 51 0                  # ../../straightDFA/log.c:51:0
	movq	(%rax), %rax
	movq	%rax, addr(%rip)
	.loc	5 53 0                  # ../../straightDFA/log.c:53:0
	movq	buf(%rip), %rdi
	addq	$64, %rdi
	callq	sem_trywait
	testl	%eax, %eax
	je	.LBB0_3
# BB#2:                                 # %if.then2.i
	.loc	5 55 0                  # ../../straightDFA/log.c:55:0
	movq	buf(%rip), %rdi
	addq	$64, %rdi
	callq	sem_wait
.LBB0_3:                                # %_StraightTaint_log.exit
	movq	%rsp, %rcx
	leaq	-16(%rcx), %rax
	movq	%rcx, %rbx
	movq	%rax, -56(%rbp)         # 8-byte Spill
	movq	%rax, %rsp
	movq	%rax, -88(%rbp)         # 8-byte Spill
	leaq	-16(%rax), %r13
	movq	%r13, %rsp
	movq	%rsp, %r12
	leaq	-16(%r12), %rax
	movq	%rax, -80(%rbp)         # 8-byte Spill
	movq	%rax, %rsp
	addq	$-16, %rax
	movq	%rax, -96(%rbp)         # 8-byte Spill
	movq	%rax, %rsp
	movq	%rsp, %r14
	addq	$-16, %r14
	movq	%r14, %rsp
	movq	%rsp, %r15
	addq	$-16, %r15
	movq	%r15, %rsp
	movq	%rsp, %rax
	addq	$-16, %rax
	movq	%rax, -104(%rbp)        # 8-byte Spill
	movq	%rax, %rsp
	addq	$-16, %rax
	movq	%rax, -64(%rbp)         # 8-byte Spill
	movq	%rax, %rsp
	addq	$-16, %rax
	movq	%rax, -72(%rbp)         # 8-byte Spill
	movq	%rax, %rsp
	callq	getpid
	movl	%eax, %ecx
	movl	$.L.str, %edi
	xorl	%eax, %eax
	movl	%ecx, %esi
	callq	printf
	movl	$0, -16(%rbx)
	movq	-88(%rbp), %rax         # 8-byte Reload
	movl	$0, -16(%rax)
	movl	$20149999, %edi         # imm = 0x13376EF
	xorl	%esi, %esi
	callq	kill
	movl	$2, %edi
	movl	$1, %esi
	xorl	%edx, %edx
	callq	socket
	movl	%eax, -16(%rbx)
	movl	$.L.str1, %edi
	xorl	%eax, %eax
	callq	printf
	movabsq	$3472328296227680304, %rax # imm = 0x3030303030303030
	movq	%r12, %rcx
	movq	%rax, -8(%rcx)
	movq	%rax, -16(%rcx)
	movw	$2, -16(%rcx)
	xorl	%edi, %edi
	callq	htonl
	movl	%eax, -12(%r12)
	movl	$5000, %edi             # imm = 0x1388
	callq	htons
	movw	%ax, -14(%r12)
	movl	-16(%rbx), %edi
	movl	$16, %edx
	movq	-80(%rbp), %rsi         # 8-byte Reload
	callq	bind
	movl	-16(%rbx), %edi
	movl	$10, %esi
	callq	listen
	cmpl	$-1, %eax
	je	.LBB0_4
# BB#8:                                 # %if.end
	movw	$3, -44(%rbp)
	.loc	5 38 0                  # ../../straightDFA/log.c:38:0
	movq	addr(%rip), %rax
	movw	$3, (%rax)
	.loc	5 39 0                  # ../../straightDFA/log.c:39:0
	movq	addr(%rip), %rax
	addq	$2, %rax
	movq	%rax, addr(%rip)
	.loc	5 40 0                  # ../../straightDFA/log.c:40:0
	movq	buf(%rip), %rcx
	.loc	5 39 0                  # ../../straightDFA/log.c:39:0
	cmpq	8(%rcx), %rax
	jne	.LBB0_11
# BB#9:                                 # %if.else.i33
	.loc	5 45 0                  # ../../straightDFA/log.c:45:0
	movq	addr(%rip), %rax
	movq	buf(%rip), %rcx
	movq	%rax, 16(%rcx)
	.loc	5 47 0                  # ../../straightDFA/log.c:47:0
	movq	buf(%rip), %rdi
	addq	$32, %rdi
	callq	sem_post
	.loc	5 50 0                  # ../../straightDFA/log.c:50:0
	movq	buf(%rip), %rax
	movq	96(%rax), %rax
	movq	%rax, buf(%rip)
	.loc	5 51 0                  # ../../straightDFA/log.c:51:0
	movq	(%rax), %rax
	movq	%rax, addr(%rip)
	.loc	5 53 0                  # ../../straightDFA/log.c:53:0
	movq	buf(%rip), %rdi
	addq	$64, %rdi
	callq	sem_trywait
	testl	%eax, %eax
	je	.LBB0_11
# BB#10:                                # %if.then2.i36
	.loc	5 55 0                  # ../../straightDFA/log.c:55:0
	movq	buf(%rip), %rdi
	addq	$64, %rdi
	callq	sem_wait
.LBB0_11:                               # %_StraightTaint_log.exit38
	movl	$.L.str5, %edi
	xorl	%eax, %eax
	callq	printf
	movq	-96(%rbp), %r12         # 8-byte Reload
	movl	$0, (%r12)
	jmp	.LBB0_12
	.align	16, 0x90
.LBB0_67:                               # %_StraightTaint_log.exit323
                                        #   in Loop: Header=BB0_12 Depth=1
	incl	(%r12)
.LBB0_12:                               # %for.cond
                                        # =>This Inner Loop Header: Depth=1
	movw	$4, -44(%rbp)
	.loc	5 38 0                  # ../../straightDFA/log.c:38:0
	movq	addr(%rip), %rax
	movw	$4, (%rax)
	.loc	5 39 0                  # ../../straightDFA/log.c:39:0
	movq	addr(%rip), %rax
	addq	$2, %rax
	movq	%rax, addr(%rip)
	.loc	5 40 0                  # ../../straightDFA/log.c:40:0
	movq	buf(%rip), %rcx
	.loc	5 39 0                  # ../../straightDFA/log.c:39:0
	cmpq	8(%rcx), %rax
	jne	.LBB0_15
# BB#13:                                # %if.else.i52
                                        #   in Loop: Header=BB0_12 Depth=1
	.loc	5 45 0                  # ../../straightDFA/log.c:45:0
	movq	addr(%rip), %rax
	movq	buf(%rip), %rcx
	movq	%rax, 16(%rcx)
	.loc	5 47 0                  # ../../straightDFA/log.c:47:0
	movq	buf(%rip), %rdi
	addq	$32, %rdi
	callq	sem_post
	.loc	5 50 0                  # ../../straightDFA/log.c:50:0
	movq	buf(%rip), %rax
	movq	96(%rax), %rax
	movq	%rax, buf(%rip)
	.loc	5 51 0                  # ../../straightDFA/log.c:51:0
	movq	(%rax), %rax
	movq	%rax, addr(%rip)
	.loc	5 53 0                  # ../../straightDFA/log.c:53:0
	movq	buf(%rip), %rdi
	addq	$64, %rdi
	callq	sem_trywait
	testl	%eax, %eax
	je	.LBB0_15
# BB#14:                                # %if.then2.i55
                                        #   in Loop: Header=BB0_12 Depth=1
	.loc	5 55 0                  # ../../straightDFA/log.c:55:0
	movq	buf(%rip), %rdi
	addq	$64, %rdi
	callq	sem_wait
.LBB0_15:                               # %_StraightTaint_log.exit57
                                        #   in Loop: Header=BB0_12 Depth=1
	cmpl	$2, (%r12)
	jg	.LBB0_68
# BB#16:                                # %for.body
                                        #   in Loop: Header=BB0_12 Depth=1
	movw	$5, -44(%rbp)
	.loc	5 38 0                  # ../../straightDFA/log.c:38:0
	movq	addr(%rip), %rax
	movw	$5, (%rax)
	.loc	5 39 0                  # ../../straightDFA/log.c:39:0
	movq	addr(%rip), %rax
	addq	$2, %rax
	movq	%rax, addr(%rip)
	.loc	5 40 0                  # ../../straightDFA/log.c:40:0
	movq	buf(%rip), %rcx
	.loc	5 39 0                  # ../../straightDFA/log.c:39:0
	cmpq	8(%rcx), %rax
	jne	.LBB0_19
# BB#17:                                # %if.else.i71
                                        #   in Loop: Header=BB0_12 Depth=1
	.loc	5 45 0                  # ../../straightDFA/log.c:45:0
	movq	addr(%rip), %rax
	movq	buf(%rip), %rcx
	movq	%rax, 16(%rcx)
	.loc	5 47 0                  # ../../straightDFA/log.c:47:0
	movq	buf(%rip), %rdi
	addq	$32, %rdi
	callq	sem_post
	.loc	5 50 0                  # ../../straightDFA/log.c:50:0
	movq	buf(%rip), %rax
	movq	96(%rax), %rax
	movq	%rax, buf(%rip)
	.loc	5 51 0                  # ../../straightDFA/log.c:51:0
	movq	(%rax), %rax
	movq	%rax, addr(%rip)
	.loc	5 53 0                  # ../../straightDFA/log.c:53:0
	movq	buf(%rip), %rdi
	addq	$64, %rdi
	callq	sem_trywait
	testl	%eax, %eax
	je	.LBB0_19
# BB#18:                                # %if.then2.i74
                                        #   in Loop: Header=BB0_12 Depth=1
	.loc	5 55 0                  # ../../straightDFA/log.c:55:0
	movq	buf(%rip), %rdi
	addq	$64, %rdi
	callq	sem_wait
.LBB0_19:                               # %_StraightTaint_log.exit76
                                        #   in Loop: Header=BB0_12 Depth=1
	movl	$.L.str6, %edi
	xorl	%eax, %eax
	callq	printf
	movq	-56(%rbp), %rax         # 8-byte Reload
	movl	(%rax), %ebx
	movl	$20149999, %edi         # imm = 0x13376EF
	xorl	%esi, %esi
	callq	kill
	xorl	%esi, %esi
	xorl	%edx, %edx
	movl	%ebx, %edi
	callq	accept
	movl	%eax, (%r13)
	movl	$.L.str7, %edi
	xorl	%eax, %eax
	callq	printf
	movl	(%r13), %esi
	movl	$.L.str8, %edi
	xorl	%eax, %eax
	callq	printf
	callq	fork
	movl	%eax, %ebx
	movl	%ebx, -44(%rbp)
	.loc	1 178 0                 # ../../straightDFA/init.c:178:0
	movl	%ebx, %edi
	callq	do_StraightTaint_fork
	testl	%ebx, %ebx
	movl	%ebx, (%r14)
	js	.LBB0_20
# BB#24:                                # %if.else
                                        #   in Loop: Header=BB0_12 Depth=1
	movw	$7, -44(%rbp)
	.loc	5 38 0                  # ../../straightDFA/log.c:38:0
	movq	addr(%rip), %rax
	movw	$7, (%rax)
	.loc	5 39 0                  # ../../straightDFA/log.c:39:0
	movq	addr(%rip), %rax
	addq	$2, %rax
	movq	%rax, addr(%rip)
	.loc	5 40 0                  # ../../straightDFA/log.c:40:0
	movq	buf(%rip), %rcx
	.loc	5 39 0                  # ../../straightDFA/log.c:39:0
	cmpq	8(%rcx), %rax
	jne	.LBB0_27
# BB#25:                                # %if.else.i109
                                        #   in Loop: Header=BB0_12 Depth=1
	.loc	5 45 0                  # ../../straightDFA/log.c:45:0
	movq	addr(%rip), %rax
	movq	buf(%rip), %rcx
	movq	%rax, 16(%rcx)
	.loc	5 47 0                  # ../../straightDFA/log.c:47:0
	movq	buf(%rip), %rdi
	addq	$32, %rdi
	callq	sem_post
	.loc	5 50 0                  # ../../straightDFA/log.c:50:0
	movq	buf(%rip), %rax
	movq	96(%rax), %rax
	movq	%rax, buf(%rip)
	.loc	5 51 0                  # ../../straightDFA/log.c:51:0
	movq	(%rax), %rax
	movq	%rax, addr(%rip)
	.loc	5 53 0                  # ../../straightDFA/log.c:53:0
	movq	buf(%rip), %rdi
	addq	$64, %rdi
	callq	sem_trywait
	testl	%eax, %eax
	je	.LBB0_27
# BB#26:                                # %if.then2.i112
                                        #   in Loop: Header=BB0_12 Depth=1
	.loc	5 55 0                  # ../../straightDFA/log.c:55:0
	movq	buf(%rip), %rdi
	addq	$64, %rdi
	callq	sem_wait
.LBB0_27:                               # %_StraightTaint_log.exit114
                                        #   in Loop: Header=BB0_12 Depth=1
	cmpl	$0, (%r14)
	je	.LBB0_28
# BB#32:                                # %if.else26
                                        #   in Loop: Header=BB0_12 Depth=1
	movw	$9, -44(%rbp)
	.loc	5 38 0                  # ../../straightDFA/log.c:38:0
	movq	addr(%rip), %rax
	movw	$9, (%rax)
	.loc	5 39 0                  # ../../straightDFA/log.c:39:0
	movq	addr(%rip), %rax
	addq	$2, %rax
	movq	%rax, addr(%rip)
	.loc	5 40 0                  # ../../straightDFA/log.c:40:0
	movq	buf(%rip), %rcx
	.loc	5 39 0                  # ../../straightDFA/log.c:39:0
	cmpq	8(%rcx), %rax
	jne	.LBB0_35
# BB#33:                                # %if.else.i147
                                        #   in Loop: Header=BB0_12 Depth=1
	.loc	5 45 0                  # ../../straightDFA/log.c:45:0
	movq	addr(%rip), %rax
	movq	buf(%rip), %rcx
	movq	%rax, 16(%rcx)
	.loc	5 47 0                  # ../../straightDFA/log.c:47:0
	movq	buf(%rip), %rdi
	addq	$32, %rdi
	callq	sem_post
	.loc	5 50 0                  # ../../straightDFA/log.c:50:0
	movq	buf(%rip), %rax
	movq	96(%rax), %rax
	movq	%rax, buf(%rip)
	.loc	5 51 0                  # ../../straightDFA/log.c:51:0
	movq	(%rax), %rax
	movq	%rax, addr(%rip)
	.loc	5 53 0                  # ../../straightDFA/log.c:53:0
	movq	buf(%rip), %rdi
	addq	$64, %rdi
	callq	sem_trywait
	testl	%eax, %eax
	je	.LBB0_35
# BB#34:                                # %if.then2.i150
                                        #   in Loop: Header=BB0_12 Depth=1
	.loc	5 55 0                  # ../../straightDFA/log.c:55:0
	movq	buf(%rip), %rdi
	addq	$64, %rdi
	callq	sem_wait
.LBB0_35:                               # %_StraightTaint_log.exit152
                                        #   in Loop: Header=BB0_12 Depth=1
	movq	-64(%rbp), %rax         # 8-byte Reload
	movq	%r15, (%rax)
	movq	%r15, %rdi
	callq	wait
	cmpl	$-1, %eax
	movl	%eax, (%r14)
	jne	.LBB0_40
# BB#36:                                # %if.then29
                                        #   in Loop: Header=BB0_12 Depth=1
	movw	$10, -44(%rbp)
	.loc	5 38 0                  # ../../straightDFA/log.c:38:0
	movq	addr(%rip), %rax
	movw	$10, (%rax)
	.loc	5 39 0                  # ../../straightDFA/log.c:39:0
	movq	addr(%rip), %rax
	addq	$2, %rax
	movq	%rax, addr(%rip)
	.loc	5 40 0                  # ../../straightDFA/log.c:40:0
	movq	buf(%rip), %rcx
	.loc	5 39 0                  # ../../straightDFA/log.c:39:0
	cmpq	8(%rcx), %rax
	jne	.LBB0_39
# BB#37:                                # %if.else.i166
                                        #   in Loop: Header=BB0_12 Depth=1
	.loc	5 45 0                  # ../../straightDFA/log.c:45:0
	movq	addr(%rip), %rax
	movq	buf(%rip), %rcx
	movq	%rax, 16(%rcx)
	.loc	5 47 0                  # ../../straightDFA/log.c:47:0
	movq	buf(%rip), %rdi
	addq	$32, %rdi
	callq	sem_post
	.loc	5 50 0                  # ../../straightDFA/log.c:50:0
	movq	buf(%rip), %rax
	movq	96(%rax), %rax
	movq	%rax, buf(%rip)
	.loc	5 51 0                  # ../../straightDFA/log.c:51:0
	movq	(%rax), %rax
	movq	%rax, addr(%rip)
	.loc	5 53 0                  # ../../straightDFA/log.c:53:0
	movq	buf(%rip), %rdi
	addq	$64, %rdi
	callq	sem_trywait
	testl	%eax, %eax
	je	.LBB0_39
# BB#38:                                # %if.then2.i169
                                        #   in Loop: Header=BB0_12 Depth=1
	.loc	5 55 0                  # ../../straightDFA/log.c:55:0
	movq	buf(%rip), %rdi
	addq	$64, %rdi
	callq	sem_wait
.LBB0_39:                               # %_StraightTaint_log.exit171
                                        #   in Loop: Header=BB0_12 Depth=1
	movl	$.L.str11, %edi
	xorl	%eax, %eax
	callq	printf
	jmp	.LBB0_55
	.align	16, 0x90
.LBB0_40:                               # %if.else31
                                        #   in Loop: Header=BB0_12 Depth=1
	movw	$11, -44(%rbp)
	.loc	5 38 0                  # ../../straightDFA/log.c:38:0
	movq	addr(%rip), %rax
	movw	$11, (%rax)
	.loc	5 39 0                  # ../../straightDFA/log.c:39:0
	movq	addr(%rip), %rax
	addq	$2, %rax
	movq	%rax, addr(%rip)
	.loc	5 40 0                  # ../../straightDFA/log.c:40:0
	movq	buf(%rip), %rcx
	.loc	5 39 0                  # ../../straightDFA/log.c:39:0
	cmpq	8(%rcx), %rax
	jne	.LBB0_43
# BB#41:                                # %if.else.i185
                                        #   in Loop: Header=BB0_12 Depth=1
	.loc	5 45 0                  # ../../straightDFA/log.c:45:0
	movq	addr(%rip), %rax
	movq	buf(%rip), %rcx
	movq	%rax, 16(%rcx)
	.loc	5 47 0                  # ../../straightDFA/log.c:47:0
	movq	buf(%rip), %rdi
	addq	$32, %rdi
	callq	sem_post
	.loc	5 50 0                  # ../../straightDFA/log.c:50:0
	movq	buf(%rip), %rax
	movq	96(%rax), %rax
	movq	%rax, buf(%rip)
	.loc	5 51 0                  # ../../straightDFA/log.c:51:0
	movq	(%rax), %rax
	movq	%rax, addr(%rip)
	.loc	5 53 0                  # ../../straightDFA/log.c:53:0
	movq	buf(%rip), %rdi
	addq	$64, %rdi
	callq	sem_trywait
	testl	%eax, %eax
	je	.LBB0_43
# BB#42:                                # %if.then2.i188
                                        #   in Loop: Header=BB0_12 Depth=1
	.loc	5 55 0                  # ../../straightDFA/log.c:55:0
	movq	buf(%rip), %rdi
	addq	$64, %rdi
	callq	sem_wait
.LBB0_43:                               # %_StraightTaint_log.exit190
                                        #   in Loop: Header=BB0_12 Depth=1
	movl	(%r15), %eax
	movq	-72(%rbp), %rcx         # 8-byte Reload
	movl	%eax, (%rcx)
	testb	$127, (%rcx)
	jne	.LBB0_48
# BB#44:                                # %if.then35
                                        #   in Loop: Header=BB0_12 Depth=1
	movw	$12, -44(%rbp)
	.loc	5 38 0                  # ../../straightDFA/log.c:38:0
	movq	addr(%rip), %rax
	movw	$12, (%rax)
	.loc	5 39 0                  # ../../straightDFA/log.c:39:0
	movq	addr(%rip), %rax
	addq	$2, %rax
	movq	%rax, addr(%rip)
	.loc	5 40 0                  # ../../straightDFA/log.c:40:0
	movq	buf(%rip), %rcx
	.loc	5 39 0                  # ../../straightDFA/log.c:39:0
	cmpq	8(%rcx), %rax
	jne	.LBB0_47
# BB#45:                                # %if.else.i204
                                        #   in Loop: Header=BB0_12 Depth=1
	.loc	5 45 0                  # ../../straightDFA/log.c:45:0
	movq	addr(%rip), %rax
	movq	buf(%rip), %rcx
	movq	%rax, 16(%rcx)
	.loc	5 47 0                  # ../../straightDFA/log.c:47:0
	movq	buf(%rip), %rdi
	addq	$32, %rdi
	callq	sem_post
	.loc	5 50 0                  # ../../straightDFA/log.c:50:0
	movq	buf(%rip), %rax
	movq	96(%rax), %rax
	movq	%rax, buf(%rip)
	.loc	5 51 0                  # ../../straightDFA/log.c:51:0
	movq	(%rax), %rax
	movq	%rax, addr(%rip)
	.loc	5 53 0                  # ../../straightDFA/log.c:53:0
	movq	buf(%rip), %rdi
	addq	$64, %rdi
	callq	sem_trywait
	testl	%eax, %eax
	je	.LBB0_47
# BB#46:                                # %if.then2.i207
                                        #   in Loop: Header=BB0_12 Depth=1
	.loc	5 55 0                  # ../../straightDFA/log.c:55:0
	movq	buf(%rip), %rdi
	addq	$64, %rdi
	callq	sem_wait
.LBB0_47:                               # %_StraightTaint_log.exit209
                                        #   in Loop: Header=BB0_12 Depth=1
	movl	(%r13), %edi
	callq	close
	movl	(%r14), %esi
	movl	$.L.str12, %edi
	xorl	%eax, %eax
	callq	printf
	jmp	.LBB0_52
	.align	16, 0x90
.LBB0_48:                               # %if.else38
                                        #   in Loop: Header=BB0_12 Depth=1
	movw	$13, -44(%rbp)
	.loc	5 38 0                  # ../../straightDFA/log.c:38:0
	movq	addr(%rip), %rax
	movw	$13, (%rax)
	.loc	5 39 0                  # ../../straightDFA/log.c:39:0
	movq	addr(%rip), %rax
	addq	$2, %rax
	movq	%rax, addr(%rip)
	.loc	5 40 0                  # ../../straightDFA/log.c:40:0
	movq	buf(%rip), %rcx
	.loc	5 39 0                  # ../../straightDFA/log.c:39:0
	cmpq	8(%rcx), %rax
	jne	.LBB0_51
# BB#49:                                # %if.else.i223
                                        #   in Loop: Header=BB0_12 Depth=1
	.loc	5 45 0                  # ../../straightDFA/log.c:45:0
	movq	addr(%rip), %rax
	movq	buf(%rip), %rcx
	movq	%rax, 16(%rcx)
	.loc	5 47 0                  # ../../straightDFA/log.c:47:0
	movq	buf(%rip), %rdi
	addq	$32, %rdi
	callq	sem_post
	.loc	5 50 0                  # ../../straightDFA/log.c:50:0
	movq	buf(%rip), %rax
	movq	96(%rax), %rax
	movq	%rax, buf(%rip)
	.loc	5 51 0                  # ../../straightDFA/log.c:51:0
	movq	(%rax), %rax
	movq	%rax, addr(%rip)
	.loc	5 53 0                  # ../../straightDFA/log.c:53:0
	movq	buf(%rip), %rdi
	addq	$64, %rdi
	callq	sem_trywait
	testl	%eax, %eax
	je	.LBB0_51
# BB#50:                                # %if.then2.i226
                                        #   in Loop: Header=BB0_12 Depth=1
	.loc	5 55 0                  # ../../straightDFA/log.c:55:0
	movq	buf(%rip), %rdi
	addq	$64, %rdi
	callq	sem_wait
.LBB0_51:                               # %_StraightTaint_log.exit228
                                        #   in Loop: Header=BB0_12 Depth=1
	movl	$.L.str13, %edi
	xorl	%eax, %eax
	callq	printf
.LBB0_52:                               # %if.end40
                                        #   in Loop: Header=BB0_12 Depth=1
	movw	$14, -44(%rbp)
	.loc	5 38 0                  # ../../straightDFA/log.c:38:0
	movq	addr(%rip), %rax
	movw	$14, (%rax)
	.loc	5 39 0                  # ../../straightDFA/log.c:39:0
	movq	addr(%rip), %rax
	addq	$2, %rax
	movq	%rax, addr(%rip)
	.loc	5 40 0                  # ../../straightDFA/log.c:40:0
	movq	buf(%rip), %rcx
	.loc	5 39 0                  # ../../straightDFA/log.c:39:0
	cmpq	8(%rcx), %rax
	jne	.LBB0_55
# BB#53:                                # %if.else.i242
                                        #   in Loop: Header=BB0_12 Depth=1
	.loc	5 45 0                  # ../../straightDFA/log.c:45:0
	movq	addr(%rip), %rax
	movq	buf(%rip), %rcx
	movq	%rax, 16(%rcx)
	.loc	5 47 0                  # ../../straightDFA/log.c:47:0
	movq	buf(%rip), %rdi
	addq	$32, %rdi
	callq	sem_post
	.loc	5 50 0                  # ../../straightDFA/log.c:50:0
	movq	buf(%rip), %rax
	movq	96(%rax), %rax
	movq	%rax, buf(%rip)
	.loc	5 51 0                  # ../../straightDFA/log.c:51:0
	movq	(%rax), %rax
	movq	%rax, addr(%rip)
	.loc	5 53 0                  # ../../straightDFA/log.c:53:0
	movq	buf(%rip), %rdi
	addq	$64, %rdi
	callq	sem_trywait
	testl	%eax, %eax
	je	.LBB0_55
# BB#54:                                # %if.then2.i245
                                        #   in Loop: Header=BB0_12 Depth=1
	.loc	5 55 0                  # ../../straightDFA/log.c:55:0
	movq	buf(%rip), %rdi
	addq	$64, %rdi
	callq	sem_wait
	.align	16, 0x90
.LBB0_55:                               # %if.end41
                                        #   in Loop: Header=BB0_12 Depth=1
	movw	$15, -44(%rbp)
	.loc	5 38 0                  # ../../straightDFA/log.c:38:0
	movq	addr(%rip), %rax
	movw	$15, (%rax)
	.loc	5 39 0                  # ../../straightDFA/log.c:39:0
	movq	addr(%rip), %rax
	addq	$2, %rax
	movq	%rax, addr(%rip)
	.loc	5 40 0                  # ../../straightDFA/log.c:40:0
	movq	buf(%rip), %rcx
	.loc	5 39 0                  # ../../straightDFA/log.c:39:0
	cmpq	8(%rcx), %rax
	jne	.LBB0_58
# BB#56:                                # %if.else.i261
                                        #   in Loop: Header=BB0_12 Depth=1
	.loc	5 45 0                  # ../../straightDFA/log.c:45:0
	movq	addr(%rip), %rax
	movq	buf(%rip), %rcx
	movq	%rax, 16(%rcx)
	.loc	5 47 0                  # ../../straightDFA/log.c:47:0
	movq	buf(%rip), %rdi
	addq	$32, %rdi
	callq	sem_post
	.loc	5 50 0                  # ../../straightDFA/log.c:50:0
	movq	buf(%rip), %rax
	movq	96(%rax), %rax
	movq	%rax, buf(%rip)
	.loc	5 51 0                  # ../../straightDFA/log.c:51:0
	movq	(%rax), %rax
	movq	%rax, addr(%rip)
	.loc	5 53 0                  # ../../straightDFA/log.c:53:0
	movq	buf(%rip), %rdi
	addq	$64, %rdi
	callq	sem_trywait
	testl	%eax, %eax
	je	.LBB0_58
# BB#57:                                # %if.then2.i264
                                        #   in Loop: Header=BB0_12 Depth=1
	.loc	5 55 0                  # ../../straightDFA/log.c:55:0
	movq	buf(%rip), %rdi
	addq	$64, %rdi
	callq	sem_wait
.LBB0_58:                               # %if.end43
                                        #   in Loop: Header=BB0_12 Depth=1
	movl	$1, %edi
	callq	sleep
	movw	$16, -44(%rbp)
	.loc	5 38 0                  # ../../straightDFA/log.c:38:0
	movq	addr(%rip), %rax
	movw	$16, (%rax)
	.loc	5 39 0                  # ../../straightDFA/log.c:39:0
	movq	addr(%rip), %rax
	addq	$2, %rax
	movq	%rax, addr(%rip)
	.loc	5 40 0                  # ../../straightDFA/log.c:40:0
	movq	buf(%rip), %rcx
	.loc	5 39 0                  # ../../straightDFA/log.c:39:0
	cmpq	8(%rcx), %rax
	jne	.LBB0_61
# BB#59:                                # %if.else.i280
                                        #   in Loop: Header=BB0_12 Depth=1
	.loc	5 45 0                  # ../../straightDFA/log.c:45:0
	movq	addr(%rip), %rax
	movq	buf(%rip), %rcx
	movq	%rax, 16(%rcx)
	.loc	5 47 0                  # ../../straightDFA/log.c:47:0
	movq	buf(%rip), %rdi
	addq	$32, %rdi
	callq	sem_post
	.loc	5 50 0                  # ../../straightDFA/log.c:50:0
	movq	buf(%rip), %rax
	movq	96(%rax), %rax
	movq	%rax, buf(%rip)
	.loc	5 51 0                  # ../../straightDFA/log.c:51:0
	movq	(%rax), %rax
	movq	%rax, addr(%rip)
	.loc	5 53 0                  # ../../straightDFA/log.c:53:0
	movq	buf(%rip), %rdi
	addq	$64, %rdi
	callq	sem_trywait
	testl	%eax, %eax
	je	.LBB0_61
# BB#60:                                # %if.then2.i283
                                        #   in Loop: Header=BB0_12 Depth=1
	.loc	5 55 0                  # ../../straightDFA/log.c:55:0
	movq	buf(%rip), %rdi
	addq	$64, %rdi
	callq	sem_wait
.LBB0_61:                               # %if.end44
                                        #   in Loop: Header=BB0_12 Depth=1
	movw	$17, -44(%rbp)
	.loc	5 38 0                  # ../../straightDFA/log.c:38:0
	movq	addr(%rip), %rax
	movw	$17, (%rax)
	.loc	5 39 0                  # ../../straightDFA/log.c:39:0
	movq	addr(%rip), %rax
	addq	$2, %rax
	movq	%rax, addr(%rip)
	.loc	5 40 0                  # ../../straightDFA/log.c:40:0
	movq	buf(%rip), %rcx
	.loc	5 39 0                  # ../../straightDFA/log.c:39:0
	cmpq	8(%rcx), %rax
	jne	.LBB0_64
# BB#62:                                # %if.else.i299
                                        #   in Loop: Header=BB0_12 Depth=1
	.loc	5 45 0                  # ../../straightDFA/log.c:45:0
	movq	addr(%rip), %rax
	movq	buf(%rip), %rcx
	movq	%rax, 16(%rcx)
	.loc	5 47 0                  # ../../straightDFA/log.c:47:0
	movq	buf(%rip), %rdi
	addq	$32, %rdi
	callq	sem_post
	.loc	5 50 0                  # ../../straightDFA/log.c:50:0
	movq	buf(%rip), %rax
	movq	96(%rax), %rax
	movq	%rax, buf(%rip)
	.loc	5 51 0                  # ../../straightDFA/log.c:51:0
	movq	(%rax), %rax
	movq	%rax, addr(%rip)
	.loc	5 53 0                  # ../../straightDFA/log.c:53:0
	movq	buf(%rip), %rdi
	addq	$64, %rdi
	callq	sem_trywait
	testl	%eax, %eax
	je	.LBB0_64
# BB#63:                                # %if.then2.i302
                                        #   in Loop: Header=BB0_12 Depth=1
	.loc	5 55 0                  # ../../straightDFA/log.c:55:0
	movq	buf(%rip), %rdi
	addq	$64, %rdi
	callq	sem_wait
.LBB0_64:                               # %for.inc
                                        #   in Loop: Header=BB0_12 Depth=1
	movw	$18, -44(%rbp)
	.loc	5 38 0                  # ../../straightDFA/log.c:38:0
	movq	addr(%rip), %rax
	movw	$18, (%rax)
	.loc	5 39 0                  # ../../straightDFA/log.c:39:0
	movq	addr(%rip), %rax
	addq	$2, %rax
	movq	%rax, addr(%rip)
	.loc	5 40 0                  # ../../straightDFA/log.c:40:0
	movq	buf(%rip), %rcx
	.loc	5 39 0                  # ../../straightDFA/log.c:39:0
	cmpq	8(%rcx), %rax
	jne	.LBB0_67
# BB#65:                                # %if.else.i318
                                        #   in Loop: Header=BB0_12 Depth=1
	.loc	5 45 0                  # ../../straightDFA/log.c:45:0
	movq	addr(%rip), %rax
	movq	buf(%rip), %rcx
	movq	%rax, 16(%rcx)
	.loc	5 47 0                  # ../../straightDFA/log.c:47:0
	movq	buf(%rip), %rdi
	addq	$32, %rdi
	callq	sem_post
	.loc	5 50 0                  # ../../straightDFA/log.c:50:0
	movq	buf(%rip), %rax
	movq	96(%rax), %rax
	movq	%rax, buf(%rip)
	.loc	5 51 0                  # ../../straightDFA/log.c:51:0
	movq	(%rax), %rax
	movq	%rax, addr(%rip)
	.loc	5 53 0                  # ../../straightDFA/log.c:53:0
	movq	buf(%rip), %rdi
	addq	$64, %rdi
	callq	sem_trywait
	testl	%eax, %eax
	je	.LBB0_67
# BB#66:                                # %if.then2.i321
                                        #   in Loop: Header=BB0_12 Depth=1
	.loc	5 55 0                  # ../../straightDFA/log.c:55:0
	movq	buf(%rip), %rdi
	addq	$64, %rdi
	callq	sem_wait
	jmp	.LBB0_67
.LBB0_28:                               # %if.then19
	movw	$8, -44(%rbp)
	.loc	5 38 0                  # ../../straightDFA/log.c:38:0
	movq	addr(%rip), %rax
	movw	$8, (%rax)
	.loc	5 39 0                  # ../../straightDFA/log.c:39:0
	movq	addr(%rip), %rax
	addq	$2, %rax
	movq	%rax, addr(%rip)
	.loc	5 40 0                  # ../../straightDFA/log.c:40:0
	movq	buf(%rip), %rcx
	.loc	5 39 0                  # ../../straightDFA/log.c:39:0
	cmpq	8(%rcx), %rax
	jne	.LBB0_31
# BB#29:                                # %if.else.i128
	.loc	5 45 0                  # ../../straightDFA/log.c:45:0
	movq	addr(%rip), %rax
	movq	buf(%rip), %rcx
	movq	%rax, 16(%rcx)
	.loc	5 47 0                  # ../../straightDFA/log.c:47:0
	movq	buf(%rip), %rdi
	addq	$32, %rdi
	callq	sem_post
	.loc	5 50 0                  # ../../straightDFA/log.c:50:0
	movq	buf(%rip), %rax
	movq	96(%rax), %rax
	movq	%rax, buf(%rip)
	.loc	5 51 0                  # ../../straightDFA/log.c:51:0
	movq	(%rax), %rax
	movq	%rax, addr(%rip)
	.loc	5 53 0                  # ../../straightDFA/log.c:53:0
	movq	buf(%rip), %rdi
	addq	$64, %rdi
	callq	sem_trywait
	testl	%eax, %eax
	je	.LBB0_31
# BB#30:                                # %if.then2.i131
	.loc	5 55 0                  # ../../straightDFA/log.c:55:0
	movq	buf(%rip), %rdi
	addq	$64, %rdi
	callq	sem_wait
.LBB0_31:                               # %_StraightTaint_log.exit133
	movl	(%r14), %esi
	movl	$.L.str9, %edi
	xorl	%eax, %eax
	callq	printf
	movl	(%r13), %edi
	xorl	%esi, %esi
	callq	dup2
	movl	%eax, %ecx
	movq	-104(%rbp), %rax        # 8-byte Reload
	movl	%ecx, (%rax)
	movl	$.L.str10, %edi
	xorl	%eax, %eax
	movl	%ecx, %esi
	callq	printf
	movl	(%r13), %esi
	movl	$.L.str8, %edi
	xorl	%eax, %eax
	callq	printf
	movl	(%r13), %edi
	callq	close
	movq	-56(%rbp), %rax         # 8-byte Reload
	movl	(%rax), %edi
	callq	close
	leaq	-40(%rbp), %rsp
	popq	%rbx
	popq	%r12
	popq	%r13
	popq	%r14
	popq	%r15
	popq	%rbp
	ret
.LBB0_4:                                # %if.then
	movw	$2, -44(%rbp)
	.loc	5 38 0                  # ../../straightDFA/log.c:38:0
	movq	addr(%rip), %rax
	movw	$2, (%rax)
	.loc	5 39 0                  # ../../straightDFA/log.c:39:0
	movq	addr(%rip), %rax
	addq	$2, %rax
	movq	%rax, addr(%rip)
	.loc	5 40 0                  # ../../straightDFA/log.c:40:0
	movq	buf(%rip), %rcx
	.loc	5 39 0                  # ../../straightDFA/log.c:39:0
	cmpq	8(%rcx), %rax
	jne	.LBB0_7
# BB#5:                                 # %if.else.i14
	.loc	5 45 0                  # ../../straightDFA/log.c:45:0
	movq	addr(%rip), %rax
	movq	buf(%rip), %rcx
	movq	%rax, 16(%rcx)
	.loc	5 47 0                  # ../../straightDFA/log.c:47:0
	movq	buf(%rip), %rax
	addq	$32, %rax
	movq	%rax, %rdi
	callq	sem_post
	.loc	5 50 0                  # ../../straightDFA/log.c:50:0
	movq	buf(%rip), %rax
	movq	96(%rax), %rax
	movq	%rax, buf(%rip)
	.loc	5 51 0                  # ../../straightDFA/log.c:51:0
	movq	(%rax), %rax
	movq	%rax, addr(%rip)
	.loc	5 53 0                  # ../../straightDFA/log.c:53:0
	movq	buf(%rip), %rax
	addq	$64, %rax
	movq	%rax, %rdi
	callq	sem_trywait
	testl	%eax, %eax
	je	.LBB0_7
# BB#6:                                 # %if.then2.i17
	.loc	5 55 0                  # ../../straightDFA/log.c:55:0
	movq	buf(%rip), %rax
	addq	$64, %rax
	movq	%rax, %rdi
	callq	sem_wait
.LBB0_7:                                # %_StraightTaint_log.exit19
	movl	$.L.str2, %edi
	xorl	%eax, %eax
	callq	printf
	movl	$.L.str3, %edi
	movl	$.L.str4, %esi
	movl	$31, %edx
	movl	$.L__PRETTY_FUNCTION__.myListen, %ecx
	callq	__assert_fail
.LBB0_68:                               # %for.end
	movw	$19, -44(%rbp)
	.loc	5 38 0                  # ../../straightDFA/log.c:38:0
	movq	addr(%rip), %rax
	movw	$19, (%rax)
	.loc	5 39 0                  # ../../straightDFA/log.c:39:0
	movq	addr(%rip), %rax
	addq	$2, %rax
	movq	%rax, addr(%rip)
	.loc	5 40 0                  # ../../straightDFA/log.c:40:0
	movq	buf(%rip), %rcx
	.loc	5 39 0                  # ../../straightDFA/log.c:39:0
	cmpq	8(%rcx), %rax
	jne	.LBB0_71
# BB#69:                                # %if.else.i337
	.loc	5 45 0                  # ../../straightDFA/log.c:45:0
	movq	addr(%rip), %rax
	movq	buf(%rip), %rcx
	movq	%rax, 16(%rcx)
	.loc	5 47 0                  # ../../straightDFA/log.c:47:0
	movq	buf(%rip), %rax
	addq	$32, %rax
	movq	%rax, %rdi
	callq	sem_post
	.loc	5 50 0                  # ../../straightDFA/log.c:50:0
	movq	buf(%rip), %rax
	movq	96(%rax), %rax
	movq	%rax, buf(%rip)
	.loc	5 51 0                  # ../../straightDFA/log.c:51:0
	movq	(%rax), %rax
	movq	%rax, addr(%rip)
	.loc	5 53 0                  # ../../straightDFA/log.c:53:0
	movq	buf(%rip), %rax
	addq	$64, %rax
	movq	%rax, %rdi
	callq	sem_trywait
	testl	%eax, %eax
	je	.LBB0_71
# BB#70:                                # %if.then2.i340
	.loc	5 55 0                  # ../../straightDFA/log.c:55:0
	movq	buf(%rip), %rax
	addq	$64, %rax
	movq	%rax, %rdi
	callq	sem_wait
.LBB0_71:                               # %_StraightTaint_log.exit342
	movq	-56(%rbp), %rax         # 8-byte Reload
	movl	(%rax), %eax
	movl	%eax, %edi
	callq	close
	xorl	%edi, %edi
	callq	exit
.LBB0_20:                               # %if.then17
	movw	$6, -44(%rbp)
	.loc	5 38 0                  # ../../straightDFA/log.c:38:0
	movq	addr(%rip), %rax
	movw	$6, (%rax)
	.loc	5 39 0                  # ../../straightDFA/log.c:39:0
	movq	addr(%rip), %rax
	addq	$2, %rax
	movq	%rax, addr(%rip)
	.loc	5 40 0                  # ../../straightDFA/log.c:40:0
	movq	buf(%rip), %rcx
	.loc	5 39 0                  # ../../straightDFA/log.c:39:0
	cmpq	8(%rcx), %rax
	jne	.LBB0_23
# BB#21:                                # %if.else.i90
	.loc	5 45 0                  # ../../straightDFA/log.c:45:0
	movq	addr(%rip), %rax
	movq	buf(%rip), %rcx
	movq	%rax, 16(%rcx)
	.loc	5 47 0                  # ../../straightDFA/log.c:47:0
	movq	buf(%rip), %rax
	addq	$32, %rax
	movq	%rax, %rdi
	callq	sem_post
	.loc	5 50 0                  # ../../straightDFA/log.c:50:0
	movq	buf(%rip), %rax
	movq	96(%rax), %rax
	movq	%rax, buf(%rip)
	.loc	5 51 0                  # ../../straightDFA/log.c:51:0
	movq	(%rax), %rax
	movq	%rax, addr(%rip)
	.loc	5 53 0                  # ../../straightDFA/log.c:53:0
	movq	buf(%rip), %rax
	addq	$64, %rax
	movq	%rax, %rdi
	callq	sem_trywait
	testl	%eax, %eax
	je	.LBB0_23
# BB#22:                                # %if.then2.i93
	.loc	5 55 0                  # ../../straightDFA/log.c:55:0
	movq	buf(%rip), %rax
	addq	$64, %rax
	movq	%rax, %rdi
	callq	sem_wait
.LBB0_23:                               # %_StraightTaint_log.exit95
	movl	$.L.str3, %edi
	movl	$.L.str4, %esi
	movl	$46, %edx
	movl	$.L__PRETTY_FUNCTION__.myListen, %ecx
	callq	__assert_fail
.Ltmp11:
	.size	myListen, .Ltmp11-myListen
	.cfi_endproc

	.globl	main
	.align	16, 0x90
	.type	main,@function
main:                                   # @main
	.cfi_startproc
# BB#0:                                 # %entry
	pushq	%rbp
.Ltmp15:
	.cfi_def_cfa_offset 16
.Ltmp16:
	.cfi_offset %rbp, -16
	movq	%rsp, %rbp
.Ltmp17:
	.cfi_def_cfa_register %rbp
	pushq	%r15
	pushq	%r14
	pushq	%r13
	pushq	%r12
	pushq	%rbx
	subq	$40, %rsp
.Ltmp18:
	.cfi_offset %rbx, -56
.Ltmp19:
	.cfi_offset %r12, -48
.Ltmp20:
	.cfi_offset %r13, -40
.Ltmp21:
	.cfi_offset %r14, -32
.Ltmp22:
	.cfi_offset %r15, -24
	movl	$addr, %edi
	callq	_StraightTaint_init
	movq	%rax, addr(%rip)
	movw	$20, -42(%rbp)
	.loc	5 38 0                  # ../../straightDFA/log.c:38:0
	movq	addr(%rip), %rax
	movw	$20, (%rax)
	.loc	5 39 0                  # ../../straightDFA/log.c:39:0
	movq	addr(%rip), %rax
	addq	$2, %rax
	movq	%rax, addr(%rip)
	.loc	5 40 0                  # ../../straightDFA/log.c:40:0
	movq	buf(%rip), %rcx
	.loc	5 39 0                  # ../../straightDFA/log.c:39:0
	cmpq	8(%rcx), %rax
	jne	.LBB1_3
# BB#1:                                 # %if.else.i
	.loc	5 45 0                  # ../../straightDFA/log.c:45:0
	movq	addr(%rip), %rax
	movq	buf(%rip), %rcx
	movq	%rax, 16(%rcx)
	.loc	5 47 0                  # ../../straightDFA/log.c:47:0
	movq	buf(%rip), %rdi
	addq	$32, %rdi
	callq	sem_post
	.loc	5 50 0                  # ../../straightDFA/log.c:50:0
	movq	buf(%rip), %rax
	movq	96(%rax), %rax
	movq	%rax, buf(%rip)
	.loc	5 51 0                  # ../../straightDFA/log.c:51:0
	movq	(%rax), %rax
	movq	%rax, addr(%rip)
	.loc	5 53 0                  # ../../straightDFA/log.c:53:0
	movq	buf(%rip), %rdi
	addq	$64, %rdi
	callq	sem_trywait
	testl	%eax, %eax
	je	.LBB1_3
# BB#2:                                 # %if.then2.i
	.loc	5 55 0                  # ../../straightDFA/log.c:55:0
	movq	buf(%rip), %rdi
	addq	$64, %rdi
	callq	sem_wait
.LBB1_3:                                # %_StraightTaint_log.exit
	movq	%rsp, %rax
	leaq	-16(%rax), %rcx
	movq	%rcx, -64(%rbp)         # 8-byte Spill
	movq	%rcx, %rsp
	movq	%rsp, %r15
	addq	$-1040, %r15            # imm = 0xFFFFFFFFFFFFFBF0
	movq	%r15, %rsp
	movq	%rsp, %r13
	leaq	-16(%r13), %rcx
	movq	%rcx, -56(%rbp)         # 8-byte Spill
	movq	%rcx, %rsp
	movq	%rsp, %r12
	addq	$-16, %r12
	movq	%r12, %rsp
	movq	%rsp, %rbx
	addq	$-16, %rbx
	movq	%rbx, %rsp
	movq	%rsp, %r14
	addq	$-32, %r14
	movq	%r14, %rsp
	movq	%rsp, %rcx
	addq	$-16, %rcx
	movq	%rcx, -72(%rbp)         # 8-byte Spill
	movq	%rcx, %rsp
	addq	$-16, %rcx
	movq	%rcx, -80(%rbp)         # 8-byte Spill
	movq	%rcx, %rsp
	movl	$0, -16(%rax)
	movl	$.L.str14, %edi
	xorl	%eax, %eax
	callq	printf
	callq	myListen
	xorl	%edi, %edi
	movl	$1025, %edx             # imm = 0x401
	xorl	%ecx, %ecx
	movq	%r15, %rsi
	callq	recv
	testl	%eax, %eax
	movl	%eax, -16(%r13)
	je	.LBB1_18
# BB#4:                                 # %cond.true
	movw	$21, -42(%rbp)
	.loc	5 38 0                  # ../../straightDFA/log.c:38:0
	movq	addr(%rip), %rax
	movw	$21, (%rax)
	.loc	5 39 0                  # ../../straightDFA/log.c:39:0
	movq	addr(%rip), %rax
	addq	$2, %rax
	movq	%rax, addr(%rip)
	.loc	5 40 0                  # ../../straightDFA/log.c:40:0
	movq	buf(%rip), %rcx
	.loc	5 39 0                  # ../../straightDFA/log.c:39:0
	cmpq	8(%rcx), %rax
	jne	.LBB1_7
# BB#5:                                 # %if.else.i14
	.loc	5 45 0                  # ../../straightDFA/log.c:45:0
	movq	addr(%rip), %rax
	movq	buf(%rip), %rcx
	movq	%rax, 16(%rcx)
	.loc	5 47 0                  # ../../straightDFA/log.c:47:0
	movq	buf(%rip), %rdi
	addq	$32, %rdi
	callq	sem_post
	.loc	5 50 0                  # ../../straightDFA/log.c:50:0
	movq	buf(%rip), %rax
	movq	96(%rax), %rax
	movq	%rax, buf(%rip)
	.loc	5 51 0                  # ../../straightDFA/log.c:51:0
	movq	(%rax), %rax
	movq	%rax, addr(%rip)
	.loc	5 53 0                  # ../../straightDFA/log.c:53:0
	movq	buf(%rip), %rdi
	addq	$64, %rdi
	callq	sem_trywait
	testl	%eax, %eax
	je	.LBB1_7
# BB#6:                                 # %if.then2.i17
	.loc	5 55 0                  # ../../straightDFA/log.c:55:0
	movq	buf(%rip), %rdi
	addq	$64, %rdi
	callq	sem_wait
.LBB1_7:                                # %cond.end
	movw	$24, -42(%rbp)
	.loc	5 38 0                  # ../../straightDFA/log.c:38:0
	movq	addr(%rip), %rax
	movw	$24, (%rax)
	.loc	5 39 0                  # ../../straightDFA/log.c:39:0
	movq	addr(%rip), %rax
	addq	$2, %rax
	movq	%rax, addr(%rip)
	.loc	5 40 0                  # ../../straightDFA/log.c:40:0
	movq	buf(%rip), %rcx
	.loc	5 39 0                  # ../../straightDFA/log.c:39:0
	cmpq	8(%rcx), %rax
	jne	.LBB1_10
# BB#8:                                 # %if.else.i71
	.loc	5 45 0                  # ../../straightDFA/log.c:45:0
	movq	addr(%rip), %rax
	movq	buf(%rip), %rcx
	movq	%rax, 16(%rcx)
	.loc	5 47 0                  # ../../straightDFA/log.c:47:0
	movq	buf(%rip), %rdi
	addq	$32, %rdi
	callq	sem_post
	.loc	5 50 0                  # ../../straightDFA/log.c:50:0
	movq	buf(%rip), %rax
	movq	96(%rax), %rax
	movq	%rax, buf(%rip)
	.loc	5 51 0                  # ../../straightDFA/log.c:51:0
	movq	(%rax), %rax
	movq	%rax, addr(%rip)
	.loc	5 53 0                  # ../../straightDFA/log.c:53:0
	movq	buf(%rip), %rdi
	addq	$64, %rdi
	callq	sem_trywait
	testl	%eax, %eax
	je	.LBB1_10
# BB#9:                                 # %if.then2.i74
	.loc	5 55 0                  # ../../straightDFA/log.c:55:0
	movq	buf(%rip), %rdi
	addq	$64, %rdi
	callq	sem_wait
.LBB1_10:                               # %_StraightTaint_log.exit76
	movq	-56(%rbp), %rax         # 8-byte Reload
	movl	(%rax), %esi
	movl	$.L.str16, %edi
	xorl	%eax, %eax
	callq	printf
	movl	$1, %edi
	callq	sleep
	movq	%r15, %rdi
	callq	strlen
	movl	$1, %edi
	movq	%r15, %rsi
	movq	%rax, %rdx
	callq	write
	callq	getpid
	testl	%eax, %eax
	movl	%eax, (%r12)
	jle	.LBB1_22
# BB#11:                                # %cond.true12
	movw	$25, -42(%rbp)
	.loc	5 38 0                  # ../../straightDFA/log.c:38:0
	movq	addr(%rip), %rax
	movw	$25, (%rax)
	.loc	5 39 0                  # ../../straightDFA/log.c:39:0
	movq	addr(%rip), %rax
	addq	$2, %rax
	movq	%rax, addr(%rip)
	.loc	5 40 0                  # ../../straightDFA/log.c:40:0
	movq	buf(%rip), %rcx
	.loc	5 39 0                  # ../../straightDFA/log.c:39:0
	cmpq	8(%rcx), %rax
	jne	.LBB1_14
# BB#12:                                # %if.else.i90
	.loc	5 45 0                  # ../../straightDFA/log.c:45:0
	movq	addr(%rip), %rax
	movq	buf(%rip), %rcx
	movq	%rax, 16(%rcx)
	.loc	5 47 0                  # ../../straightDFA/log.c:47:0
	movq	buf(%rip), %rdi
	addq	$32, %rdi
	callq	sem_post
	.loc	5 50 0                  # ../../straightDFA/log.c:50:0
	movq	buf(%rip), %rax
	movq	96(%rax), %rax
	movq	%rax, buf(%rip)
	.loc	5 51 0                  # ../../straightDFA/log.c:51:0
	movq	(%rax), %rax
	movq	%rax, addr(%rip)
	.loc	5 53 0                  # ../../straightDFA/log.c:53:0
	movq	buf(%rip), %rdi
	addq	$64, %rdi
	callq	sem_trywait
	testl	%eax, %eax
	je	.LBB1_14
# BB#13:                                # %if.then2.i93
	.loc	5 55 0                  # ../../straightDFA/log.c:55:0
	movq	buf(%rip), %rdi
	addq	$64, %rdi
	callq	sem_wait
.LBB1_14:                               # %cond.end14
	movw	$28, -42(%rbp)
	.loc	5 38 0                  # ../../straightDFA/log.c:38:0
	movq	addr(%rip), %rax
	movw	$28, (%rax)
	.loc	5 39 0                  # ../../straightDFA/log.c:39:0
	movq	addr(%rip), %rax
	addq	$2, %rax
	movq	%rax, addr(%rip)
	.loc	5 40 0                  # ../../straightDFA/log.c:40:0
	movq	buf(%rip), %rcx
	.loc	5 39 0                  # ../../straightDFA/log.c:39:0
	cmpq	8(%rcx), %rax
	jne	.LBB1_17
# BB#15:                                # %if.else.i147
	.loc	5 45 0                  # ../../straightDFA/log.c:45:0
	movq	addr(%rip), %rax
	movq	buf(%rip), %rcx
	movq	%rax, 16(%rcx)
	.loc	5 47 0                  # ../../straightDFA/log.c:47:0
	movq	buf(%rip), %rdi
	addq	$32, %rdi
	callq	sem_post
	.loc	5 50 0                  # ../../straightDFA/log.c:50:0
	movq	buf(%rip), %rax
	movq	96(%rax), %rax
	movq	%rax, buf(%rip)
	.loc	5 51 0                  # ../../straightDFA/log.c:51:0
	movq	(%rax), %rax
	movq	%rax, addr(%rip)
	.loc	5 53 0                  # ../../straightDFA/log.c:53:0
	movq	buf(%rip), %rdi
	addq	$64, %rdi
	callq	sem_trywait
	testl	%eax, %eax
	je	.LBB1_17
# BB#16:                                # %if.then2.i150
	.loc	5 55 0                  # ../../straightDFA/log.c:55:0
	movq	buf(%rip), %rdi
	addq	$64, %rdi
	callq	sem_wait
.LBB1_17:                               # %_StraightTaint_log.exit152
	movl	(%r12), %ecx
	movl	$6, %esi
	movl	$.L.str18, %edx
	xorl	%eax, %eax
	movq	%rbx, %rdi
	callq	snprintf
	movl	$.L.str19, %esi
	movq	%r14, %rdi
	callq	strcpy
	movq	%r14, %rdi
	movq	%rbx, %rsi
	callq	strcat
	movl	$20149999, %edi         # imm = 0x13376EF
	xorl	%esi, %esi
	callq	kill
	movl	$.L.str20, %esi
	movq	%r14, %rdi
	callq	fopen
	movq	-72(%rbp), %rbx         # 8-byte Reload
	movq	%rax, (%rbx)
	movl	$1, %esi
	movl	$1025, %edx             # imm = 0x401
	movq	%r15, %rdi
	movq	%rax, %rcx
	callq	fwrite
	movq	-80(%rbp), %rcx         # 8-byte Reload
	movq	%rax, (%rcx)
	movq	(%rbx), %rdi
	callq	fclose
	movq	-64(%rbp), %rax         # 8-byte Reload
	movl	(%rax), %eax
	leaq	-40(%rbp), %rsp
	popq	%rbx
	popq	%r12
	popq	%r13
	popq	%r14
	popq	%r15
	popq	%rbp
	ret
.LBB1_18:                               # %cond.false
	movw	$22, -42(%rbp)
	.loc	5 38 0                  # ../../straightDFA/log.c:38:0
	movq	addr(%rip), %rax
	movw	$22, (%rax)
	.loc	5 39 0                  # ../../straightDFA/log.c:39:0
	movq	addr(%rip), %rax
	addq	$2, %rax
	movq	%rax, addr(%rip)
	.loc	5 40 0                  # ../../straightDFA/log.c:40:0
	movq	buf(%rip), %rcx
	.loc	5 39 0                  # ../../straightDFA/log.c:39:0
	cmpq	8(%rcx), %rax
	jne	.LBB1_21
# BB#19:                                # %if.else.i33
	.loc	5 45 0                  # ../../straightDFA/log.c:45:0
	movq	addr(%rip), %rax
	movq	buf(%rip), %rcx
	movq	%rax, 16(%rcx)
	.loc	5 47 0                  # ../../straightDFA/log.c:47:0
	movq	buf(%rip), %rax
	addq	$32, %rax
	movq	%rax, %rdi
	callq	sem_post
	.loc	5 50 0                  # ../../straightDFA/log.c:50:0
	movq	buf(%rip), %rax
	movq	96(%rax), %rax
	movq	%rax, buf(%rip)
	.loc	5 51 0                  # ../../straightDFA/log.c:51:0
	movq	(%rax), %rax
	movq	%rax, addr(%rip)
	.loc	5 53 0                  # ../../straightDFA/log.c:53:0
	movq	buf(%rip), %rax
	addq	$64, %rax
	movq	%rax, %rdi
	callq	sem_trywait
	testl	%eax, %eax
	je	.LBB1_21
# BB#20:                                # %if.then2.i36
	.loc	5 55 0                  # ../../straightDFA/log.c:55:0
	movq	buf(%rip), %rax
	addq	$64, %rax
	movq	%rax, %rdi
	callq	sem_wait
.LBB1_21:                               # %_StraightTaint_log.exit38
	movl	$.L.str15, %edi
	movl	$.L.str4, %esi
	movl	$89, %edx
	movl	$.L__PRETTY_FUNCTION__.main, %ecx
	callq	__assert_fail
.LBB1_22:                               # %cond.false13
	movw	$26, -42(%rbp)
	.loc	5 38 0                  # ../../straightDFA/log.c:38:0
	movq	addr(%rip), %rax
	movw	$26, (%rax)
	.loc	5 39 0                  # ../../straightDFA/log.c:39:0
	movq	addr(%rip), %rax
	addq	$2, %rax
	movq	%rax, addr(%rip)
	.loc	5 40 0                  # ../../straightDFA/log.c:40:0
	movq	buf(%rip), %rcx
	.loc	5 39 0                  # ../../straightDFA/log.c:39:0
	cmpq	8(%rcx), %rax
	jne	.LBB1_25
# BB#23:                                # %if.else.i109
	.loc	5 45 0                  # ../../straightDFA/log.c:45:0
	movq	addr(%rip), %rax
	movq	buf(%rip), %rcx
	movq	%rax, 16(%rcx)
	.loc	5 47 0                  # ../../straightDFA/log.c:47:0
	movq	buf(%rip), %rax
	addq	$32, %rax
	movq	%rax, %rdi
	callq	sem_post
	.loc	5 50 0                  # ../../straightDFA/log.c:50:0
	movq	buf(%rip), %rax
	movq	96(%rax), %rax
	movq	%rax, buf(%rip)
	.loc	5 51 0                  # ../../straightDFA/log.c:51:0
	movq	(%rax), %rax
	movq	%rax, addr(%rip)
	.loc	5 53 0                  # ../../straightDFA/log.c:53:0
	movq	buf(%rip), %rax
	addq	$64, %rax
	movq	%rax, %rdi
	callq	sem_trywait
	testl	%eax, %eax
	je	.LBB1_25
# BB#24:                                # %if.then2.i112
	.loc	5 55 0                  # ../../straightDFA/log.c:55:0
	movq	buf(%rip), %rax
	addq	$64, %rax
	movq	%rax, %rdi
	callq	sem_wait
.LBB1_25:                               # %_StraightTaint_log.exit114
	movl	$.L.str17, %edi
	movl	$.L.str4, %esi
	movl	$94, %edx
	movl	$.L__PRETTY_FUNCTION__.main, %ecx
	callq	__assert_fail
.Ltmp23:
	.size	main, .Ltmp23-main
	.cfi_endproc

	.globl	_StraightTaint_init
	.align	16, 0x90
	.type	_StraightTaint_init,@function
_StraightTaint_init:                    # @_StraightTaint_init
.Lfunc_begin2:
	.loc	1 29 0                  # ../../straightDFA/init.c:29:0
	.cfi_startproc
# BB#0:                                 # %entry
	pushq	%rbp
.Ltmp27:
	.cfi_def_cfa_offset 16
.Ltmp28:
	.cfi_offset %rbp, -16
	movq	%rsp, %rbp
.Ltmp29:
	.cfi_def_cfa_register %rbp
	pushq	%rbx
	subq	$1064, %rsp             # imm = 0x428
.Ltmp30:
	.cfi_offset %rbx, -24
	movq	%rdi, -16(%rbp)
	.loc	1 30 0 prologue_end     # ../../straightDFA/init.c:30:0
.Ltmp31:
	movl	$.L.str21, %edi
	movl	$.L.str122, %esi
	callq	fopen
	movq	%rax, Ferror(%rip)
	.loc	1 32 0                  # ../../straightDFA/init.c:32:0
	movq	$buf2, buf1+96(%rip)
	.loc	1 33 0                  # ../../straightDFA/init.c:33:0
	movq	$buf1, buf2+96(%rip)
	.loc	1 34 0                  # ../../straightDFA/init.c:34:0
	movq	$buf1, buf(%rip)
	movl	$20971520, %edi         # imm = 0x1400000
	.loc	1 35 0                  # ../../straightDFA/init.c:35:0
	callq	malloc
	testq	%rax, %rax
	movq	%rax, -24(%rbp)
	.loc	1 36 0                  # ../../straightDFA/init.c:36:0
.Ltmp32:
	je	.LBB2_4
.Ltmp33:
# BB#1:                                 # %if.end
	.loc	1 40 0                  # ../../straightDFA/init.c:40:0
	movq	-24(%rbp), %rax
	movq	%rax, buf1(%rip)
	movl	$10485758, %eax         # imm = 0x9FFFFE
	.loc	1 41 0                  # ../../straightDFA/init.c:41:0
	addq	-24(%rbp), %rax
	movq	%rax, buf1+8(%rip)
	movl	$10485760, %eax         # imm = 0xA00000
	.loc	1 42 0                  # ../../straightDFA/init.c:42:0
	addq	-24(%rbp), %rax
	movq	%rax, buf2(%rip)
	movl	$20971518, %eax         # imm = 0x13FFFFE
	.loc	1 43 0                  # ../../straightDFA/init.c:43:0
	addq	-24(%rbp), %rax
	movq	%rax, buf2+8(%rip)
	movl	$buf1+32, %edi
	xorl	%esi, %esi
	xorl	%edx, %edx
	.loc	1 44 0                  # ../../straightDFA/init.c:44:0
	callq	sem_init
	movl	$buf1+64, %edi
	xorl	%esi, %esi
	xorl	%edx, %edx
	.loc	1 45 0                  # ../../straightDFA/init.c:45:0
	callq	sem_init
	movl	$buf2+32, %edi
	xorl	%esi, %esi
	xorl	%edx, %edx
	.loc	1 46 0                  # ../../straightDFA/init.c:46:0
	callq	sem_init
	movl	$buf2+64, %edi
	xorl	%esi, %esi
	xorl	%edx, %edx
	.loc	1 47 0                  # ../../straightDFA/init.c:47:0
	callq	sem_init
	movl	$buf1+64, %edi
	.loc	1 48 0                  # ../../straightDFA/init.c:48:0
	callq	sem_post
	movl	$buf2+64, %edi
	.loc	1 49 0                  # ../../straightDFA/init.c:49:0
	callq	sem_post
.Ltmp34:
	#DEBUG_VALUE: _StraightTaint_init:pid <- [RBP+-28]
	.loc	1 51 0                  # ../../straightDFA/init.c:51:0
	callq	getpid
	movl	%eax, %ecx
	movl	%ecx, -28(%rbp)
.Ltmp35:
	#DEBUG_VALUE: _StraightTaint_init:filename <- [RBP+-1056]
	leaq	-1056(%rbp), %rbx
	movl	$1024, %esi             # imm = 0x400
	.loc	1 53 0                  # ../../straightDFA/init.c:53:0
	movl	$.L.str324, %edx
	xorl	%eax, %eax
	movq	%rbx, %rdi
	callq	snprintf
	.loc	1 54 0                  # ../../straightDFA/init.c:54:0
	movl	$.L.str122, %esi
	movq	%rbx, %rdi
	callq	fopen
	movq	%rax, flog(%rip)
	.loc	1 55 0                  # ../../straightDFA/init.c:55:0
	movl	$.L.str425, %edi
	.loc	1 54 0                  # ../../straightDFA/init.c:54:0
	movl	$.L.str122, %esi
	.loc	1 55 0                  # ../../straightDFA/init.c:55:0
	callq	fopen
	movq	%rax, %rcx
	movq	%rcx, configFile(%rip)
	.loc	1 56 0                  # ../../straightDFA/init.c:56:0
	movl	$.L.str526, %esi
	xorl	%eax, %eax
	movq	%rcx, %rdi
	movq	%rbx, %rdx
	callq	fprintf
	.loc	1 57 0                  # ../../straightDFA/init.c:57:0
	movq	configFile(%rip), %rdi
	callq	fflush
.Ltmp36:
	#DEBUG_VALUE: _StraightTaint_init:regExit <- [RBP+-1060]
	.loc	1 61 0                  # ../../straightDFA/init.c:61:0
	movl	$_StraightTaint_logger_thread_terminate, %edi
	callq	atexit
	testl	%eax, %eax
	movl	%eax, -1060(%rbp)
	.loc	1 62 0                  # ../../straightDFA/init.c:62:0
.Ltmp37:
	jne	.LBB2_5
.Ltmp38:
# BB#2:                                 # %if.end25
	#DEBUG_VALUE: _StraightTaint_init:pid <- [RBP+-28]
	#DEBUG_VALUE: _StraightTaint_init:filename <- [RBP+-1056]
	#DEBUG_VALUE: _StraightTaint_init:regExit <- [RBP+-1060]
	.loc	1 68 0                  # ../../straightDFA/init.c:68:0
	movl	$logger_thread, %edi
	xorl	%esi, %esi
	movl	$_StraightTaint_logger_thread, %edx
	xorl	%ecx, %ecx
	callq	pthread_create
	testl	%eax, %eax
	jne	.LBB2_6
.Ltmp39:
# BB#3:                                 # %if.end32
	#DEBUG_VALUE: _StraightTaint_init:pid <- [RBP+-28]
	#DEBUG_VALUE: _StraightTaint_init:filename <- [RBP+-1056]
	#DEBUG_VALUE: _StraightTaint_init:regExit <- [RBP+-1060]
	.loc	1 75 0                  # ../../straightDFA/init.c:75:0
	movq	buf(%rip), %rax
	movq	(%rax), %rax
	addq	$1064, %rsp             # imm = 0x428
	popq	%rbx
	popq	%rbp
.Ltmp40:
	ret
.Ltmp41:
.LBB2_4:                                # %if.then
	.loc	1 37 0                  # ../../straightDFA/init.c:37:0
	movl	$.L.str223, %edi
	callq	perror
	movl	$1, %edi
	.loc	1 38 0                  # ../../straightDFA/init.c:38:0
	callq	exit
.Ltmp42:
.LBB2_5:                                # %if.then21
	#DEBUG_VALUE: _StraightTaint_init:pid <- [RBP+-28]
	#DEBUG_VALUE: _StraightTaint_init:filename <- [RBP+-1056]
	#DEBUG_VALUE: _StraightTaint_init:regExit <- [RBP+-1060]
	.loc	1 64 0                  # ../../straightDFA/init.c:64:0
	movq	Ferror(%rip), %rbx
	callq	getpid
	movl	%eax, %ecx
	movl	-1060(%rbp), %r8d
	movl	$.L.str627, %esi
	xorl	%eax, %eax
	movq	%rbx, %rdi
	movl	%ecx, %edx
	movl	%r8d, %ecx
	callq	fprintf
	.loc	1 65 0                  # ../../straightDFA/init.c:65:0
	movq	Ferror(%rip), %rax
	movq	%rax, %rdi
	callq	fflush
	movl	$-1, %edi
	.loc	1 66 0                  # ../../straightDFA/init.c:66:0
	callq	exit
.Ltmp43:
.LBB2_6:                                # %if.then28
	#DEBUG_VALUE: _StraightTaint_init:pid <- [RBP+-28]
	#DEBUG_VALUE: _StraightTaint_init:filename <- [RBP+-1056]
	#DEBUG_VALUE: _StraightTaint_init:regExit <- [RBP+-1060]
	.loc	1 69 0                  # ../../straightDFA/init.c:69:0
	movl	$.L.str728, %edi
	callq	perror
	.loc	1 70 0                  # ../../straightDFA/init.c:70:0
	movq	Ferror(%rip), %rbx
	callq	getpid
	movl	%eax, %ecx
	movl	$.L.str829, %esi
	xorl	%eax, %eax
	movq	%rbx, %rdi
	movl	%ecx, %edx
	callq	fprintf
	.loc	1 71 0                  # ../../straightDFA/init.c:71:0
	movq	Ferror(%rip), %rax
	movq	%rax, %rdi
	callq	fflush
	xorl	%edi, %edi
	.loc	1 72 0                  # ../../straightDFA/init.c:72:0
	callq	exit
.Ltmp44:
.Ltmp45:
	.size	_StraightTaint_init, .Ltmp45-_StraightTaint_init
.Lfunc_end2:
	.cfi_endproc

	.globl	_StraightTaint_fork32
	.align	16, 0x90
	.type	_StraightTaint_fork32,@function
_StraightTaint_fork32:                  # @_StraightTaint_fork32
.Lfunc_begin3:
	.loc	1 177 0                 # ../../straightDFA/init.c:177:0
	.cfi_startproc
# BB#0:                                 # %entry
	pushq	%rbp
.Ltmp48:
	.cfi_def_cfa_offset 16
.Ltmp49:
	.cfi_offset %rbp, -16
	movq	%rsp, %rbp
.Ltmp50:
	.cfi_def_cfa_register %rbp
	subq	$16, %rsp
	movl	%edi, -4(%rbp)
	.loc	1 178 0 prologue_end    # ../../straightDFA/init.c:178:0
.Ltmp51:
	callq	do_StraightTaint_fork
	.loc	1 179 0                 # ../../straightDFA/init.c:179:0
	addq	$16, %rsp
	popq	%rbp
	ret
.Ltmp52:
.Ltmp53:
	.size	_StraightTaint_fork32, .Ltmp53-_StraightTaint_fork32
.Lfunc_end3:
	.cfi_endproc

	.globl	_StraightTaint_fork64
	.align	16, 0x90
	.type	_StraightTaint_fork64,@function
_StraightTaint_fork64:                  # @_StraightTaint_fork64
.Lfunc_begin4:
	.loc	1 182 0                 # ../../straightDFA/init.c:182:0
	.cfi_startproc
# BB#0:                                 # %entry
	pushq	%rbp
.Ltmp56:
	.cfi_def_cfa_offset 16
.Ltmp57:
	.cfi_offset %rbp, -16
	movq	%rsp, %rbp
.Ltmp58:
	.cfi_def_cfa_register %rbp
	subq	$16, %rsp
	movq	%rdi, -8(%rbp)
	.loc	1 183 0 prologue_end    # ../../straightDFA/init.c:183:0
.Ltmp59:
	movl	-8(%rbp), %edi
	movl	%edi, -12(%rbp)
	.loc	1 184 0                 # ../../straightDFA/init.c:184:0
	callq	do_StraightTaint_fork
	.loc	1 185 0                 # ../../straightDFA/init.c:185:0
	addq	$16, %rsp
	popq	%rbp
	ret
.Ltmp60:
.Ltmp61:
	.size	_StraightTaint_fork64, .Ltmp61-_StraightTaint_fork64
.Lfunc_end4:
	.cfi_endproc

	.align	16, 0x90
	.type	do_StraightTaint_fork,@function
do_StraightTaint_fork:                  # @do_StraightTaint_fork
.Lfunc_begin5:
	.loc	1 97 0                  # ../../straightDFA/init.c:97:0
	.cfi_startproc
# BB#0:                                 # %entry
	pushq	%rbp
.Ltmp65:
	.cfi_def_cfa_offset 16
.Ltmp66:
	.cfi_offset %rbp, -16
	movq	%rsp, %rbp
.Ltmp67:
	.cfi_def_cfa_register %rbp
	pushq	%r15
	pushq	%r14
	pushq	%rbx
	subq	$1064, %rsp             # imm = 0x428
.Ltmp68:
	.cfi_offset %rbx, -40
.Ltmp69:
	.cfi_offset %r14, -32
.Ltmp70:
	.cfi_offset %r15, -24
	testl	%edi, %edi
	movl	%edi, -32(%rbp)
	.loc	1 98 0 prologue_end     # ../../straightDFA/init.c:98:0
.Ltmp71:
	jle	.LBB5_10
# BB#1:                                 # %if.then
	movw	$0, -26(%rbp)
	.loc	5 38 0                  # ../../straightDFA/log.c:38:0
.Ltmp72:
	movq	addr(%rip), %rax
	movw	$0, (%rax)
	.loc	5 39 0                  # ../../straightDFA/log.c:39:0
	movq	addr(%rip), %rax
	addq	$2, %rax
	movq	%rax, addr(%rip)
	.loc	5 40 0                  # ../../straightDFA/log.c:40:0
	movq	buf(%rip), %rcx
	.loc	5 39 0                  # ../../straightDFA/log.c:39:0
	cmpq	8(%rcx), %rax
	jne	.LBB5_4
# BB#2:                                 # %if.else.i
	.loc	5 45 0                  # ../../straightDFA/log.c:45:0
	movq	addr(%rip), %rax
	movq	buf(%rip), %rcx
	movq	%rax, 16(%rcx)
	.loc	5 47 0                  # ../../straightDFA/log.c:47:0
	movq	buf(%rip), %rdi
	addq	$32, %rdi
	callq	sem_post
	.loc	5 50 0                  # ../../straightDFA/log.c:50:0
	movq	buf(%rip), %rax
	movq	96(%rax), %rax
	movq	%rax, buf(%rip)
	.loc	5 51 0                  # ../../straightDFA/log.c:51:0
	movq	(%rax), %rax
	movq	%rax, addr(%rip)
	.loc	5 53 0                  # ../../straightDFA/log.c:53:0
	movq	buf(%rip), %rdi
	addq	$64, %rdi
	callq	sem_trywait
	testl	%eax, %eax
	je	.LBB5_4
# BB#3:                                 # %if.then2.i
	.loc	5 55 0                  # ../../straightDFA/log.c:55:0
	movq	buf(%rip), %rdi
	addq	$64, %rdi
	callq	sem_wait
.Ltmp73:
.LBB5_4:                                # %_StraightTaint_log.exit
	.loc	1 101 0                 # ../../straightDFA/init.c:101:0
	movl	-32(%rbp), %eax
	movl	%eax, %ecx
	sarl	$31, %ecx
	shrl	$16, %ecx
	addl	%eax, %ecx
	shrl	$16, %ecx
	movw	%cx, -26(%rbp)
	.loc	5 38 0                  # ../../straightDFA/log.c:38:0
.Ltmp74:
	movq	addr(%rip), %rax
	movw	%cx, (%rax)
	.loc	5 39 0                  # ../../straightDFA/log.c:39:0
	movq	addr(%rip), %rax
	addq	$2, %rax
	movq	%rax, addr(%rip)
	.loc	5 40 0                  # ../../straightDFA/log.c:40:0
	movq	buf(%rip), %rcx
	.loc	5 39 0                  # ../../straightDFA/log.c:39:0
	cmpq	8(%rcx), %rax
	jne	.LBB5_7
# BB#5:                                 # %if.else.i14
	.loc	5 45 0                  # ../../straightDFA/log.c:45:0
	movq	addr(%rip), %rax
	movq	buf(%rip), %rcx
	movq	%rax, 16(%rcx)
	.loc	5 47 0                  # ../../straightDFA/log.c:47:0
	movq	buf(%rip), %rdi
	addq	$32, %rdi
	callq	sem_post
	.loc	5 50 0                  # ../../straightDFA/log.c:50:0
	movq	buf(%rip), %rax
	movq	96(%rax), %rax
	movq	%rax, buf(%rip)
	.loc	5 51 0                  # ../../straightDFA/log.c:51:0
	movq	(%rax), %rax
	movq	%rax, addr(%rip)
	.loc	5 53 0                  # ../../straightDFA/log.c:53:0
	movq	buf(%rip), %rdi
	addq	$64, %rdi
	callq	sem_trywait
	testl	%eax, %eax
	je	.LBB5_7
# BB#6:                                 # %if.then2.i17
	.loc	5 55 0                  # ../../straightDFA/log.c:55:0
	movq	buf(%rip), %rdi
	addq	$64, %rdi
	callq	sem_wait
.Ltmp75:
.LBB5_7:                                # %_StraightTaint_log.exit19
	.loc	1 102 0                 # ../../straightDFA/init.c:102:0
	movw	-32(%rbp), %ax
	movw	%ax, -26(%rbp)
	.loc	5 38 0                  # ../../straightDFA/log.c:38:0
.Ltmp76:
	movq	addr(%rip), %rcx
	movw	%ax, (%rcx)
	.loc	5 39 0                  # ../../straightDFA/log.c:39:0
	movq	addr(%rip), %rax
	addq	$2, %rax
	movq	%rax, addr(%rip)
	.loc	5 40 0                  # ../../straightDFA/log.c:40:0
	movq	buf(%rip), %rcx
	.loc	5 39 0                  # ../../straightDFA/log.c:39:0
	cmpq	8(%rcx), %rax
	jne	.LBB5_15
# BB#8:                                 # %if.else.i33
	.loc	5 45 0                  # ../../straightDFA/log.c:45:0
	movq	addr(%rip), %rax
	movq	buf(%rip), %rcx
	movq	%rax, 16(%rcx)
	.loc	5 47 0                  # ../../straightDFA/log.c:47:0
	movq	buf(%rip), %rdi
	addq	$32, %rdi
	callq	sem_post
	.loc	5 50 0                  # ../../straightDFA/log.c:50:0
	movq	buf(%rip), %rax
	movq	96(%rax), %rax
	movq	%rax, buf(%rip)
	.loc	5 51 0                  # ../../straightDFA/log.c:51:0
	movq	(%rax), %rax
	movq	%rax, addr(%rip)
	.loc	5 53 0                  # ../../straightDFA/log.c:53:0
	movq	buf(%rip), %rdi
	addq	$64, %rdi
	callq	sem_trywait
	testl	%eax, %eax
	je	.LBB5_15
# BB#9:                                 # %if.then2.i36
	.loc	5 55 0                  # ../../straightDFA/log.c:55:0
	movq	buf(%rip), %rdi
	addq	$64, %rdi
	callq	sem_wait
	jmp	.LBB5_15
.Ltmp77:
.LBB5_10:                               # %if.else
	.loc	1 105 0                 # ../../straightDFA/init.c:105:0
	cmpl	$0, -32(%rbp)
	jne	.LBB5_19
# BB#11:                                # %if.then4
	.loc	1 132 0                 # ../../straightDFA/init.c:132:0
.Ltmp78:
	movq	$buf1, buf(%rip)
	.loc	1 133 0                 # ../../straightDFA/init.c:133:0
	movq	buf1(%rip), %rax
	movq	%rax, addr(%rip)
	movl	$buf1+32, %edi
	xorl	%esi, %esi
	xorl	%edx, %edx
	.loc	1 134 0                 # ../../straightDFA/init.c:134:0
	callq	sem_init
	movl	$buf1+64, %edi
	xorl	%esi, %esi
	xorl	%edx, %edx
	.loc	1 135 0                 # ../../straightDFA/init.c:135:0
	callq	sem_init
	movl	$buf2+32, %edi
	xorl	%esi, %esi
	xorl	%edx, %edx
	.loc	1 136 0                 # ../../straightDFA/init.c:136:0
	callq	sem_init
	movl	$buf2+64, %edi
	xorl	%esi, %esi
	xorl	%edx, %edx
	.loc	1 137 0                 # ../../straightDFA/init.c:137:0
	callq	sem_init
	movl	$buf1+64, %edi
	.loc	1 138 0                 # ../../straightDFA/init.c:138:0
	callq	sem_post
	movl	$buf2+64, %edi
	.loc	1 139 0                 # ../../straightDFA/init.c:139:0
	callq	sem_post
.Ltmp79:
	#DEBUG_VALUE: pid <- [RBP+-36]
	.loc	1 141 0                 # ../../straightDFA/init.c:141:0
	callq	getpid
	movl	%eax, %ecx
	movl	%ecx, -36(%rbp)
.Ltmp80:
	#DEBUG_VALUE: filename <- [RBP+-1072]
	leaq	-1072(%rbp), %r14
	movl	$1024, %esi             # imm = 0x400
	.loc	1 143 0                 # ../../straightDFA/init.c:143:0
	movl	$.L.str324, %edx
	xorl	%eax, %eax
	movq	%r14, %rdi
	callq	snprintf
	.loc	1 144 0                 # ../../straightDFA/init.c:144:0
	movl	$.L.str122, %esi
	movq	%r14, %rdi
	callq	fopen
	movq	%rax, %rbx
	movq	%rbx, flog(%rip)
	.loc	1 145 0                 # ../../straightDFA/init.c:145:0
	movq	Ferror(%rip), %r15
	callq	getpid
	movl	%eax, %r8d
	movl	$.L.str930, %esi
	xorl	%eax, %eax
	movq	%r15, %rdi
	movq	%r14, %rdx
	movq	%rbx, %rcx
	callq	fprintf
	.loc	1 146 0                 # ../../straightDFA/init.c:146:0
	movq	Ferror(%rip), %rdi
	callq	fflush
	.loc	1 147 0                 # ../../straightDFA/init.c:147:0
	cmpq	$0, flog(%rip)
	je	.LBB5_16
# BB#12:                                # %cond.end
	#DEBUG_VALUE: pid <- [RBP+-36]
	#DEBUG_VALUE: filename <- [RBP+-1072]
	.loc	1 149 0                 # ../../straightDFA/init.c:149:0
	movq	configFile(%rip), %rdi
	leaq	-1072(%rbp), %rdx
	movl	$.L.str526, %esi
	xorl	%eax, %eax
	callq	fprintf
	.loc	1 150 0                 # ../../straightDFA/init.c:150:0
	movq	configFile(%rip), %rdi
	callq	fflush
.Ltmp81:
	#DEBUG_VALUE: regExit <- [RBP+-1076]
	.loc	1 154 0                 # ../../straightDFA/init.c:154:0
	movl	$_StraightTaint_logger_thread_terminate, %edi
	callq	atexit
	testl	%eax, %eax
	movl	%eax, -1076(%rbp)
	.loc	1 155 0                 # ../../straightDFA/init.c:155:0
.Ltmp82:
	jne	.LBB5_17
.Ltmp83:
# BB#13:                                # %if.end
	#DEBUG_VALUE: pid <- [RBP+-36]
	#DEBUG_VALUE: filename <- [RBP+-1072]
	#DEBUG_VALUE: regExit <- [RBP+-1076]
	.loc	1 161 0                 # ../../straightDFA/init.c:161:0
	movl	$logger_thread, %edi
	xorl	%esi, %esi
	movl	$_StraightTaint_logger_thread, %edx
	xorl	%ecx, %ecx
	callq	pthread_create
	testl	%eax, %eax
	jne	.LBB5_18
.Ltmp84:
# BB#14:                                # %if.end34
	#DEBUG_VALUE: pid <- [RBP+-36]
	#DEBUG_VALUE: filename <- [RBP+-1072]
	#DEBUG_VALUE: regExit <- [RBP+-1076]
	.loc	1 167 0                 # ../../straightDFA/init.c:167:0
	movq	Ferror(%rip), %rbx
	callq	getpid
	movl	%eax, %ecx
	movl	$.L.str1233, %esi
	xorl	%eax, %eax
	movq	%rbx, %rdi
	movl	%ecx, %edx
	callq	fprintf
	.loc	1 168 0                 # ../../straightDFA/init.c:168:0
	movq	Ferror(%rip), %rdi
	callq	fflush
.Ltmp85:
.LBB5_15:                               # %if.end40
	.loc	1 174 0                 # ../../straightDFA/init.c:174:0
	addq	$1064, %rsp             # imm = 0x428
	popq	%rbx
	popq	%r14
	popq	%r15
	popq	%rbp
	ret
.LBB5_19:                               # %if.else38
	.loc	1 172 0                 # ../../straightDFA/init.c:172:0
.Ltmp86:
	movl	$.L.str1334, %edi
	movl	$.L.str1132, %esi
	movl	$172, %edx
	movl	$.L__PRETTY_FUNCTION__.do_StraightTaint_fork, %ecx
	callq	__assert_fail
.Ltmp87:
.LBB5_16:                               # %cond.false
	#DEBUG_VALUE: pid <- [RBP+-36]
	#DEBUG_VALUE: filename <- [RBP+-1072]
	.loc	1 147 0                 # ../../straightDFA/init.c:147:0
	movl	$.L.str1031, %edi
	movl	$.L.str1132, %esi
	movl	$147, %edx
	movl	$.L__PRETTY_FUNCTION__.do_StraightTaint_fork, %ecx
	callq	__assert_fail
.LBB5_17:                               # %if.then24
	#DEBUG_VALUE: pid <- [RBP+-36]
	#DEBUG_VALUE: filename <- [RBP+-1072]
.Ltmp88:
	#DEBUG_VALUE: regExit <- [RBP+-1076]
	.loc	1 157 0                 # ../../straightDFA/init.c:157:0
	movq	Ferror(%rip), %rbx
	callq	getpid
	movl	%eax, %ecx
	movl	-1076(%rbp), %r8d
	movl	$.L.str627, %esi
	xorl	%eax, %eax
	movq	%rbx, %rdi
	movl	%ecx, %edx
	movl	%r8d, %ecx
	callq	fprintf
	.loc	1 158 0                 # ../../straightDFA/init.c:158:0
	movq	Ferror(%rip), %rax
	movq	%rax, %rdi
	callq	fflush
	movl	$-1, %edi
	.loc	1 159 0                 # ../../straightDFA/init.c:159:0
	callq	exit
.Ltmp89:
.LBB5_18:                               # %if.then30
	#DEBUG_VALUE: pid <- [RBP+-36]
	#DEBUG_VALUE: filename <- [RBP+-1072]
	#DEBUG_VALUE: regExit <- [RBP+-1076]
	.loc	1 162 0                 # ../../straightDFA/init.c:162:0
	movl	$.L.str728, %edi
	callq	perror
	.loc	1 163 0                 # ../../straightDFA/init.c:163:0
	movq	Ferror(%rip), %rbx
	callq	getpid
	movl	%eax, %ecx
	movl	$.L.str829, %esi
	xorl	%eax, %eax
	movq	%rbx, %rdi
	movl	%ecx, %edx
	callq	fprintf
	.loc	1 164 0                 # ../../straightDFA/init.c:164:0
	movq	Ferror(%rip), %rax
	movq	%rax, %rdi
	callq	fflush
	xorl	%edi, %edi
	.loc	1 165 0                 # ../../straightDFA/init.c:165:0
	callq	exit
.Ltmp90:
.Ltmp91:
	.size	do_StraightTaint_fork, .Ltmp91-do_StraightTaint_fork
.Lfunc_end5:
	.cfi_endproc

	.globl	_StraightTaint_pseudo
	.align	16, 0x90
	.type	_StraightTaint_pseudo,@function
_StraightTaint_pseudo:                  # @_StraightTaint_pseudo
.Lfunc_begin6:
	.loc	5 24 0                  # ../../straightDFA/log.c:24:0
	.cfi_startproc
# BB#0:                                 # %entry
	pushq	%rbp
.Ltmp94:
	.cfi_def_cfa_offset 16
.Ltmp95:
	.cfi_offset %rbp, -16
	movq	%rsp, %rbp
.Ltmp96:
	.cfi_def_cfa_register %rbp
	.loc	5 25 0 prologue_end     # ../../straightDFA/log.c:25:0
.Ltmp97:
	popq	%rbp
	ret
.Ltmp98:
.Ltmp99:
	.size	_StraightTaint_pseudo, .Ltmp99-_StraightTaint_pseudo
.Lfunc_end6:
	.cfi_endproc

	.globl	_StraightTaint_flush
	.align	16, 0x90
	.type	_StraightTaint_flush,@function
_StraightTaint_flush:                   # @_StraightTaint_flush
.Lfunc_begin7:
	.loc	5 28 0                  # ../../straightDFA/log.c:28:0
	.cfi_startproc
# BB#0:                                 # %entry
	pushq	%rbp
.Ltmp102:
	.cfi_def_cfa_offset 16
.Ltmp103:
	.cfi_offset %rbp, -16
	movq	%rsp, %rbp
.Ltmp104:
	.cfi_def_cfa_register %rbp
	subq	$16, %rsp
	movw	%di, -2(%rbp)
	.loc	5 29 0 prologue_end     # ../../straightDFA/log.c:29:0
.Ltmp105:
	movq	flog(%rip), %rdi
	callq	fflush
	.loc	5 30 0                  # ../../straightDFA/log.c:30:0
	addq	$16, %rsp
	popq	%rbp
	ret
.Ltmp106:
.Ltmp107:
	.size	_StraightTaint_flush, .Ltmp107-_StraightTaint_flush
.Lfunc_end7:
	.cfi_endproc

	.globl	_StraightTaint_log
	.align	16, 0x90
	.type	_StraightTaint_log,@function
_StraightTaint_log:                     # @_StraightTaint_log
.Lfunc_begin8:
	.loc	5 33 0                  # ../../straightDFA/log.c:33:0
	.cfi_startproc
# BB#0:                                 # %entry
	pushq	%rbp
.Ltmp110:
	.cfi_def_cfa_offset 16
.Ltmp111:
	.cfi_offset %rbp, -16
	movq	%rsp, %rbp
.Ltmp112:
	.cfi_def_cfa_register %rbp
	subq	$16, %rsp
	movw	%di, -2(%rbp)
	.loc	5 38 0 prologue_end     # ../../straightDFA/log.c:38:0
.Ltmp113:
	movq	addr(%rip), %rax
	movw	%di, (%rax)
	.loc	5 39 0                  # ../../straightDFA/log.c:39:0
	movq	addr(%rip), %rax
	addq	$2, %rax
	movq	%rax, addr(%rip)
	.loc	5 40 0                  # ../../straightDFA/log.c:40:0
.Ltmp114:
	movq	buf(%rip), %rcx
.Ltmp115:
	.loc	5 39 0                  # ../../straightDFA/log.c:39:0
	cmpq	8(%rcx), %rax
	jne	.LBB8_3
# BB#1:                                 # %if.else
	.loc	5 45 0                  # ../../straightDFA/log.c:45:0
.Ltmp116:
	movq	addr(%rip), %rax
	movq	buf(%rip), %rcx
	movq	%rax, 16(%rcx)
	.loc	5 47 0                  # ../../straightDFA/log.c:47:0
	movq	buf(%rip), %rdi
	addq	$32, %rdi
	callq	sem_post
	.loc	5 50 0                  # ../../straightDFA/log.c:50:0
	movq	buf(%rip), %rax
	movq	96(%rax), %rax
	movq	%rax, buf(%rip)
	.loc	5 51 0                  # ../../straightDFA/log.c:51:0
	movq	(%rax), %rax
	movq	%rax, addr(%rip)
	.loc	5 53 0                  # ../../straightDFA/log.c:53:0
.Ltmp117:
	movq	buf(%rip), %rdi
	addq	$64, %rdi
	callq	sem_trywait
	testl	%eax, %eax
	je	.LBB8_3
# BB#2:                                 # %if.then2
	.loc	5 55 0                  # ../../straightDFA/log.c:55:0
.Ltmp118:
	movq	buf(%rip), %rdi
	addq	$64, %rdi
	callq	sem_wait
.Ltmp119:
.LBB8_3:                                # %return
	.loc	5 62 0                  # ../../straightDFA/log.c:62:0
	addq	$16, %rsp
	popq	%rbp
	ret
.Ltmp120:
.Ltmp121:
	.size	_StraightTaint_log, .Ltmp121-_StraightTaint_log
.Lfunc_end8:
	.cfi_endproc

	.globl	_StraightTaint_logger_thread
	.align	16, 0x90
	.type	_StraightTaint_logger_thread,@function
_StraightTaint_logger_thread:           # @_StraightTaint_logger_thread
.Lfunc_begin9:
	.loc	5 65 0                  # ../../straightDFA/log.c:65:0
	.cfi_startproc
# BB#0:                                 # %entry
	pushq	%rbp
.Ltmp125:
	.cfi_def_cfa_offset 16
.Ltmp126:
	.cfi_offset %rbp, -16
	movq	%rsp, %rbp
.Ltmp127:
	.cfi_def_cfa_register %rbp
	pushq	%rbx
	subq	$168, %rsp
.Ltmp128:
	.cfi_offset %rbx, -24
	movq	%rdi, -16(%rbp)
	.loc	5 66 0 prologue_end     # ../../straightDFA/log.c:66:0
.Ltmp129:
	movq	Ferror(%rip), %rbx
	callq	getpid
	movl	%eax, %ecx
	movl	$.L.str41, %esi
	xorl	%eax, %eax
	movq	%rbx, %rdi
	movl	%ecx, %edx
	callq	fprintf
	.loc	5 67 0                  # ../../straightDFA/log.c:67:0
	movq	Ferror(%rip), %rdi
	callq	fflush
	leaq	-144(%rbp), %rbx
	.loc	5 71 0                  # ../../straightDFA/log.c:71:0
	movq	%rbx, %rdi
	callq	sigfillset
	movl	$2, %edi
	xorl	%edx, %edx
	.loc	5 72 0                  # ../../straightDFA/log.c:72:0
	movq	%rbx, %rsi
	callq	pthread_sigmask
	movl	%eax, -148(%rbp)
	.loc	5 74 0                  # ../../straightDFA/log.c:74:0
	movq	buf(%rip), %rax
	movq	%rax, -160(%rbp)
	.align	16, 0x90
.LBB9_1:                                # %for.cond
                                        # =>This Inner Loop Header: Depth=1
	.loc	5 77 0                  # ../../straightDFA/log.c:77:0
.Ltmp130:
	movq	-160(%rbp), %rdi
	addq	$32, %rdi
	callq	sem_wait
.Ltmp131:
	#DEBUG_VALUE: size <- [RBP+-164]
	.loc	5 81 0                  # ../../straightDFA/log.c:81:0
	movq	-160(%rbp), %rax
	movq	16(%rax), %rcx
	subq	(%rax), %rcx
	shrq	%rcx
	movl	%ecx, -164(%rbp)
	.loc	5 82 0                  # ../../straightDFA/log.c:82:0
	movq	-160(%rbp), %rax
	movq	(%rax), %rdi
	movslq	-164(%rbp), %rdx
	movq	flog(%rip), %rcx
	movl	$2, %esi
	callq	fwrite
	.loc	5 83 0                  # ../../straightDFA/log.c:83:0
	movq	flog(%rip), %rdi
	callq	fflush
	.loc	5 85 0                  # ../../straightDFA/log.c:85:0
	movq	-160(%rbp), %rdi
	addq	$64, %rdi
	callq	sem_post
	.loc	5 86 0                  # ../../straightDFA/log.c:86:0
	movq	-160(%rbp), %rax
	movq	96(%rax), %rax
	testq	%rax, %rax
	movq	%rax, -160(%rbp)
	.loc	5 87 0                  # ../../straightDFA/log.c:87:0
.Ltmp132:
	jne	.LBB9_1
.Ltmp133:
# BB#2:                                 # %for.end
	xorl	%eax, %eax
	.loc	5 92 0                  # ../../straightDFA/log.c:92:0
	addq	$168, %rsp
	popq	%rbx
	popq	%rbp
	ret
.Ltmp134:
.Ltmp135:
	.size	_StraightTaint_logger_thread, .Ltmp135-_StraightTaint_logger_thread
.Lfunc_end9:
	.file	6 "/usr/include/x86_64-linux-gnu/bits/sigset.h"
	.cfi_endproc

	.globl	_StraightTaint_logger_thread_terminate
	.align	16, 0x90
	.type	_StraightTaint_logger_thread_terminate,@function
_StraightTaint_logger_thread_terminate: # @_StraightTaint_logger_thread_terminate
.Lfunc_begin10:
	.loc	5 96 0                  # ../../straightDFA/log.c:96:0
	.cfi_startproc
# BB#0:                                 # %entry
	pushq	%rbp
.Ltmp139:
	.cfi_def_cfa_offset 16
.Ltmp140:
	.cfi_offset %rbp, -16
	movq	%rsp, %rbp
.Ltmp141:
	.cfi_def_cfa_register %rbp
	.loc	5 97 0 prologue_end     # ../../straightDFA/log.c:97:0
.Ltmp142:
	pushq	%rbx
	pushq	%rax
.Ltmp143:
	.cfi_offset %rbx, -24
	movq	Ferror(%rip), %rbx
	callq	getpid
	movl	%eax, %ecx
	movl	$.L.str142, %esi
	xorl	%eax, %eax
	movq	%rbx, %rdi
	movl	%ecx, %edx
	callq	fprintf
	.loc	5 98 0                  # ../../straightDFA/log.c:98:0
	movq	Ferror(%rip), %rdi
	callq	fflush
	.loc	5 100 0                 # ../../straightDFA/log.c:100:0
	movq	addr(%rip), %rax
	movq	buf(%rip), %rcx
	movq	%rax, 16(%rcx)
	.loc	5 101 0                 # ../../straightDFA/log.c:101:0
	movq	buf(%rip), %rax
	movq	$0, 96(%rax)
	.loc	5 102 0                 # ../../straightDFA/log.c:102:0
	movq	buf(%rip), %rdi
	addq	$32, %rdi
	callq	sem_post
	.loc	5 103 0                 # ../../straightDFA/log.c:103:0
	movq	logger_thread(%rip), %rdi
	xorl	%esi, %esi
	callq	pthread_join
	.loc	5 104 0                 # ../../straightDFA/log.c:104:0
	addq	$8, %rsp
	popq	%rbx
	popq	%rbp
	ret
.Ltmp144:
.Ltmp145:
	.size	_StraightTaint_logger_thread_terminate, .Ltmp145-_StraightTaint_logger_thread_terminate
.Lfunc_end10:
	.cfi_endproc

	.type	.L.str,@object          # @.str
	.section	.rodata.str1.1,"aMS",@progbits,1
.L.str:
	.asciz	"Parent pid is: %d\n"
	.size	.L.str, 19

	.type	.L.str1,@object         # @.str1
.L.str1:
	.asciz	"socket retrieve success\n"
	.size	.L.str1, 25

	.type	.L.str2,@object         # @.str2
.L.str2:
	.asciz	"Failed to listen\n"
	.size	.L.str2, 18

	.type	.L.str3,@object         # @.str3
.L.str3:
	.asciz	"0"
	.size	.L.str3, 2

	.type	.L.str4,@object         # @.str4
.L.str4:
	.asciz	"server.c"
	.size	.L.str4, 9

	.type	.L__PRETTY_FUNCTION__.myListen,@object # @__PRETTY_FUNCTION__.myListen
.L__PRETTY_FUNCTION__.myListen:
	.asciz	"void myListen()"
	.size	.L__PRETTY_FUNCTION__.myListen, 16

	.type	.L.str5,@object         # @.str5
.L.str5:
	.asciz	"begin listen...\n"
	.size	.L.str5, 17

	.type	.L.str6,@object         # @.str6
.L.str6:
	.asciz	"loop...\n"
	.size	.L.str6, 9

	.type	.L.str7,@object         # @.str7
.L.str7:
	.asciz	"socket accept\n"
	.size	.L.str7, 15

	.type	.L.str8,@object         # @.str8
.L.str8:
	.asciz	"connfd: %d\n"
	.size	.L.str8, 12

	.type	.L.str9,@object         # @.str9
.L.str9:
	.asciz	"This is child process. pid: %d\n"
	.size	.L.str9, 32

	.type	.L.str10,@object        # @.str10
.L.str10:
	.asciz	"newfdin: %d\n"
	.size	.L.str10, 13

	.type	.L.str11,@object        # @.str11
.L.str11:
	.asciz	"wait failed\n"
	.size	.L.str11, 13

	.type	.L.str12,@object        # @.str12
.L.str12:
	.asciz	"This is parent process. child pid is : %d\n"
	.size	.L.str12, 43

	.type	.L.str13,@object        # @.str13
.L.str13:
	.asciz	"Child process ends unexpectedly\n"
	.size	.L.str13, 33

	.type	.L.str14,@object        # @.str14
.L.str14:
	.asciz	"main()\n"
	.size	.L.str14, 8

	.type	.L.str15,@object        # @.str15
.L.str15:
	.asciz	"recvnum!=0"
	.size	.L.str15, 11

	.type	.L__PRETTY_FUNCTION__.main,@object # @__PRETTY_FUNCTION__.main
.L__PRETTY_FUNCTION__.main:
	.asciz	"int main()"
	.size	.L__PRETTY_FUNCTION__.main, 11

	.type	.L.str16,@object        # @.str16
.L.str16:
	.asciz	"recvnum: %d\n"
	.size	.L.str16, 13

	.type	.L.str17,@object        # @.str17
.L.str17:
	.asciz	"pid>0"
	.size	.L.str17, 6

	.type	.L.str18,@object        # @.str18
.L.str18:
	.asciz	"%d"
	.size	.L.str18, 3

	.type	.L.str19,@object        # @.str19
.L.str19:
	.asciz	"log_"
	.size	.L.str19, 5

	.type	.L.str20,@object        # @.str20
.L.str20:
	.asciz	"w"
	.size	.L.str20, 2

	.type	addr,@object            # @addr
	.comm	addr,8,8
	.type	.L.str21,@object        # @.str21
.L.str21:
	.asciz	"LoggingError"
	.size	.L.str21, 13

	.type	.L.str122,@object       # @.str122
.L.str122:
	.asciz	"w+"
	.size	.L.str122, 3

	.type	Ferror,@object          # @Ferror
	.comm	Ferror,8,8
	.type	buf2,@object            # @buf2
	.comm	buf2,104,8
	.type	buf1,@object            # @buf1
	.comm	buf1,104,8
	.type	buf,@object             # @buf
	.comm	buf,8,8
	.type	.L.str223,@object       # @.str223
.L.str223:
	.asciz	"malloc"
	.size	.L.str223, 7

	.type	.L.str324,@object       # @.str324
.L.str324:
	.asciz	"tmp.%d"
	.size	.L.str324, 7

	.type	flog,@object            # @flog
	.comm	flog,8,8
	.type	.L.str425,@object       # @.str425
.L.str425:
	.asciz	"configFile"
	.size	.L.str425, 11

	.type	configFile,@object      # @configFile
	.comm	configFile,8,8
	.type	.L.str526,@object       # @.str526
.L.str526:
	.asciz	"%s\n"
	.size	.L.str526, 4

	.type	.L.str627,@object       # @.str627
.L.str627:
	.asciz	"Failed in registering atexit() returns %d. pid: %d\n"
	.size	.L.str627, 52

	.type	logger_thread,@object   # @logger_thread
	.comm	logger_thread,8,8
	.type	.L.str728,@object       # @.str728
.L.str728:
	.asciz	"failed to create logger thread"
	.size	.L.str728, 31

	.type	.L.str829,@object       # @.str829
.L.str829:
	.asciz	"failed to create logger thread. pid: %d\n"
	.size	.L.str829, 41

	.type	.L.str930,@object       # @.str930
.L.str930:
	.asciz	"tmpfilename: %s. flog:%p. pid: %d\n"
	.size	.L.str930, 35

	.type	.L.str1031,@object      # @.str1031
.L.str1031:
	.asciz	"flog"
	.size	.L.str1031, 5

	.type	.L.str1132,@object      # @.str1132
.L.str1132:
	.asciz	"../../straightDFA/init.c"
	.size	.L.str1132, 25

	.type	.L__PRETTY_FUNCTION__.do_StraightTaint_fork,@object # @__PRETTY_FUNCTION__.do_StraightTaint_fork
.L__PRETTY_FUNCTION__.do_StraightTaint_fork:
	.asciz	"void do_StraightTaint_fork(int)"
	.size	.L__PRETTY_FUNCTION__.do_StraightTaint_fork, 32

	.type	.L.str1233,@object      # @.str1233
.L.str1233:
	.asciz	"In fork: create logger thread. pid: %d\n"
	.size	.L.str1233, 40

	.type	.L.str1334,@object      # @.str1334
.L.str1334:
	.asciz	"0"
	.size	.L.str1334, 2

	.type	.L.str41,@object        # @.str41
.L.str41:
	.asciz	"create logger thread. pid: %d\n"
	.size	.L.str41, 31

	.type	.L.str142,@object       # @.str142
.L.str142:
	.asciz	"terminate logger thread. pid: %d\n"
	.size	.L.str142, 34

	.text
.Ldebug_end1:
	.section	".note.GNU-stack","",@progbits
