	.file	"thttpd.bc"
	.text
.Ltext_begin:
	.data
	.file	1 "../../straightDFA/init.c"
	.file	2 "/usr/include/libio.h"
	.file	3 "/usr/include/x86_64-linux-gnu/bits/time.h"
	.file	4 "../../straightDFA/log.c"
	.section	.rodata.cst16,"aM",@progbits,16
	.align	16
.LCPI0_0:
	.zero	16
	.text
	.globl	main
	.align	16, 0x90
	.type	main,@function
main:                                   # @main
	.cfi_startproc
# BB#0:                                 # %entry
	pushq	%rbp
.Ltmp7:
	.cfi_def_cfa_offset 16
	pushq	%r15
.Ltmp8:
	.cfi_def_cfa_offset 24
	pushq	%r14
.Ltmp9:
	.cfi_def_cfa_offset 32
	pushq	%r13
.Ltmp10:
	.cfi_def_cfa_offset 40
	pushq	%r12
.Ltmp11:
	.cfi_def_cfa_offset 48
	pushq	%rbx
.Ltmp12:
	.cfi_def_cfa_offset 56
	subq	$23688, %rsp            # imm = 0x5C88
.Ltmp13:
	.cfi_def_cfa_offset 23744
.Ltmp14:
	.cfi_offset %rbx, -56
.Ltmp15:
	.cfi_offset %r12, -48
.Ltmp16:
	.cfi_offset %r13, -40
.Ltmp17:
	.cfi_offset %r14, -32
.Ltmp18:
	.cfi_offset %r15, -24
.Ltmp19:
	.cfi_offset %rbp, -16
	movq	%rsi, %rbx
	movq	%rbx, 112(%rsp)         # 8-byte Spill
	movl	%edi, %r14d
	movl	%r14d, 120(%rsp)        # 4-byte Spill
	movl	$addr, %edi
	callq	_StraightTaint_init
	movq	%rax, addr(%rip)
	movl	$1, %r13d
	movl	$1, %edi
	callq	_StraightTaint_log
	movq	(%rbx), %rbx
	movq	%rbx, argv0(%rip)
	movl	$47, %esi
	movq	%rbx, %rdi
	callq	strrchr
	testq	%rax, %rax
	leaq	1(%rax), %rdi
	cmoveq	%rbx, %rdi
	movl	$9, %esi
	movl	$24, %edx
	callq	openlog
	movb	$0, debug(%rip)
	movw	$80, port(%rip)
	movq	$0, dir(%rip)
	movq	$0, data_dir(%rip)
	movb	$0, do_chroot(%rip)
	movb	$0, no_log(%rip)
	movl	$0, no_symlink_check(%rip)
	movb	$0, do_vhost(%rip)
	movb	$0, do_global_passwd(%rip)
	movq	$0, cgi_pattern(%rip)
	movl	$0, cgi_limit(%rip)
	movq	$0, url_pattern(%rip)
	movb	$0, no_empty_referers(%rip)
	movq	$0, local_pattern(%rip)
	movq	$0, throttlefile(%rip)
	movq	$0, hostname(%rip)
	movq	$0, logfile(%rip)
	movq	$0, pidfile(%rip)
	movq	$.L.str70, user(%rip)
	movq	$.L.str71, charset(%rip)
	movq	$.L.str42, p3p(%rip)
	movl	$-1, max_age(%rip)
	cmpl	$2, %r14d
	jl	.LBB0_251
# BB#1:                                 # %land.rhs.lr.ph.i
	movl	$2, %edi
	callq	_StraightTaint_log
	movl	$1, %r15d
	movabsq	$4294977024, %r12       # imm = 0x100002600
	jmp	.LBB0_2
	.align	16, 0x90
.LBB0_4:                                # %if.then.i
                                        #   in Loop: Header=BB0_2 Depth=1
	movl	$4, %edi
	callq	_StraightTaint_log
	movsbl	1(%rbx), %ebp
	cmpl	$85, %ebp
	jg	.LBB0_10
# BB#5:                                 # %if.then.i
                                        #   in Loop: Header=BB0_2 Depth=1
	movzbl	%bpl, %eax
	cmpl	$67, %eax
	jne	.LBB0_182
# BB#6:                                 # %cond.end108.i
                                        #   in Loop: Header=BB0_2 Depth=1
	movl	$7, %edi
	callq	_StraightTaint_log
	cmpb	$0, 2(%rbx)
	jne	.LBB0_182
# BB#7:                                 # %land.lhs.true112.i
                                        #   in Loop: Header=BB0_2 Depth=1
	movl	$8, %edi
	callq	_StraightTaint_log
	leal	1(%r15), %r13d
	cmpl	120(%rsp), %r13d        # 4-byte Folded Reload
	jge	.LBB0_182
# BB#8:                                 # %if.then115.i
                                        #   in Loop: Header=BB0_2 Depth=1
	movl	$9, %edi
	callq	_StraightTaint_log
	movslq	%r13d, %rax
	movq	112(%rsp), %rcx         # 8-byte Reload
	movq	(%rcx,%rax,8), %rbx
	movl	$20149999, %edi         # imm = 0x13376EF
	xorl	%esi, %esi
	callq	kill
	movl	$.L.str56, %esi
	movq	%rbx, %rdi
	callq	fopen
	movq	%rax, %rbp
	movq	%rbp, 104(%rsp)         # 8-byte Spill
	testq	%rbp, %rbp
	je	.LBB0_19
# BB#9:                                 # %while.cond.preheader.i.i
                                        #   in Loop: Header=BB0_2 Depth=1
	movl	$10, %edi
	callq	_StraightTaint_log
	movl	$10000, %esi            # imm = 0x2710
	leaq	4512(%rsp), %rbx
	movq	%rbx, %rdi
	jmp	.LBB0_23
	.align	16, 0x90
.LBB0_22:                               # %while.cond.loopexit.i.i
                                        #   in Loop: Header=BB0_23 Depth=2
	movl	$12, %edi
	callq	_StraightTaint_log
	movl	$10000, %esi            # imm = 0x2710
	leaq	4512(%rsp), %rbx
	movq	%rbx, %rdi
	movq	104(%rsp), %rbp         # 8-byte Reload
.LBB0_23:                               # %while.cond.loopexit.i.i
                                        #   Parent Loop BB0_2 Depth=1
                                        # =>  This Loop Header: Depth=2
                                        #       Child Loop BB0_28 Depth 3
                                        #         Child Loop BB0_29 Depth 4
	movq	%rbp, %rdx
	callq	fgets
	testq	%rax, %rax
	je	.LBB0_249
# BB#24:                                # %while.body.i.i
                                        #   in Loop: Header=BB0_23 Depth=2
	movl	$13, %edi
	callq	_StraightTaint_log
	movl	$35, %esi
	movq	%rbx, %rdi
	callq	strchr
	movq	%rax, %rbx
	testq	%rbx, %rbx
	je	.LBB0_26
# BB#25:                                # %if.then6.i.i
                                        #   in Loop: Header=BB0_23 Depth=2
	movl	$14, %edi
	callq	_StraightTaint_log
	movb	$0, (%rbx)
.LBB0_26:                               # %cond.false35.i.i
                                        #   in Loop: Header=BB0_23 Depth=2
	movl	$15, %edi
	callq	_StraightTaint_log
	movl	$.L.str98, %esi
	leaq	4512(%rsp), %rdi
	callq	strspn
	cmpb	$0, 4512(%rsp,%rax)
	je	.LBB0_22
# BB#27:                                #   in Loop: Header=BB0_23 Depth=2
	leaq	4512(%rsp,%rax), %rbx
	jmp	.LBB0_28
.LBB0_85:                               # %if.else174.i.i
                                        #   in Loop: Header=BB0_28 Depth=3
	movl	$65, %edi
	callq	_StraightTaint_log
	movl	$.L.str108, %esi
	movq	%rbx, %rdi
	callq	strcasecmp
	testl	%eax, %eax
	jne	.LBB0_91
# BB#86:                                # %if.then178.i.i
                                        #   in Loop: Header=BB0_28 Depth=3
	movl	$66, %edi
	callq	_StraightTaint_log
	testq	%r15, %r15
	je	.LBB0_87
# BB#88:                                # %value_required.exit521.i.i
                                        #   in Loop: Header=BB0_28 Depth=3
	movl	$68, %edi
	callq	_StraightTaint_log
	movq	%r15, %rdi
	callq	__strdup
	movq	%rax, %rbx
	testq	%rbx, %rbx
	je	.LBB0_89
# BB#90:                                # %e_strdup.exit526.i.i
                                        #   in Loop: Header=BB0_28 Depth=3
	movl	$70, %edi
	callq	_StraightTaint_log
	movq	%rbx, user(%rip)
	jmp	.LBB0_175
.LBB0_91:                               # %if.else180.i.i
                                        #   in Loop: Header=BB0_28 Depth=3
	movl	$71, %edi
	callq	_StraightTaint_log
	movl	$.L.str109, %esi
	movq	%rbx, %rdi
	callq	strcasecmp
	testl	%eax, %eax
	jne	.LBB0_97
# BB#92:                                # %if.then184.i.i
                                        #   in Loop: Header=BB0_28 Depth=3
	movl	$72, %edi
	callq	_StraightTaint_log
	testq	%r15, %r15
	je	.LBB0_93
# BB#94:                                # %value_required.exit530.i.i
                                        #   in Loop: Header=BB0_28 Depth=3
	movl	$74, %edi
	callq	_StraightTaint_log
	movq	%r15, %rdi
	callq	__strdup
	movq	%rax, %rbx
	testq	%rbx, %rbx
	je	.LBB0_95
# BB#96:                                # %e_strdup.exit535.i.i
                                        #   in Loop: Header=BB0_28 Depth=3
	movl	$76, %edi
	callq	_StraightTaint_log
	movq	%rbx, cgi_pattern(%rip)
	jmp	.LBB0_175
.LBB0_97:                               # %if.else186.i.i
                                        #   in Loop: Header=BB0_28 Depth=3
	movl	$77, %edi
	callq	_StraightTaint_log
	movl	$.L.str110, %esi
	movq	%rbx, %rdi
	callq	strcasecmp
	testl	%eax, %eax
	jne	.LBB0_101
# BB#98:                                # %if.then190.i.i
                                        #   in Loop: Header=BB0_28 Depth=3
	movl	$78, %edi
	callq	_StraightTaint_log
	testq	%r15, %r15
	je	.LBB0_99
# BB#100:                               # %value_required.exit539.i.i
                                        #   in Loop: Header=BB0_28 Depth=3
	movl	$80, %edi
	callq	_StraightTaint_log
	xorl	%esi, %esi
	movl	$10, %edx
	movq	%r15, %rdi
	callq	strtol
	movl	%eax, cgi_limit(%rip)
	jmp	.LBB0_175
.LBB0_101:                              # %if.else192.i.i
                                        #   in Loop: Header=BB0_28 Depth=3
	movl	$81, %edi
	callq	_StraightTaint_log
	movl	$.L.str111, %esi
	movq	%rbx, %rdi
	callq	strcasecmp
	testl	%eax, %eax
	jne	.LBB0_107
# BB#102:                               # %if.then196.i.i
                                        #   in Loop: Header=BB0_28 Depth=3
	movl	$82, %edi
	callq	_StraightTaint_log
	testq	%r15, %r15
	je	.LBB0_103
# BB#104:                               # %value_required.exit545.i.i
                                        #   in Loop: Header=BB0_28 Depth=3
	movl	$84, %edi
	callq	_StraightTaint_log
	movq	%r15, %rdi
	callq	__strdup
	movq	%rax, %rbx
	testq	%rbx, %rbx
	je	.LBB0_105
# BB#106:                               # %e_strdup.exit550.i.i
                                        #   in Loop: Header=BB0_28 Depth=3
	movl	$86, %edi
	callq	_StraightTaint_log
	movq	%rbx, url_pattern(%rip)
	jmp	.LBB0_175
.LBB0_107:                              # %if.else198.i.i
                                        #   in Loop: Header=BB0_28 Depth=3
	movl	$87, %edi
	callq	_StraightTaint_log
	movl	$.L.str112, %esi
	movq	%rbx, %rdi
	callq	strcasecmp
	testl	%eax, %eax
	jne	.LBB0_111
# BB#108:                               # %if.then202.i.i
                                        #   in Loop: Header=BB0_28 Depth=3
	movl	$88, %edi
	callq	_StraightTaint_log
	testq	%r15, %r15
	jne	.LBB0_109
# BB#110:                               # %no_value_required.exit554.i.i
                                        #   in Loop: Header=BB0_28 Depth=3
	movl	$90, %edi
	callq	_StraightTaint_log
	movb	$1, no_empty_referers(%rip)
	jmp	.LBB0_175
.LBB0_111:                              # %if.else203.i.i
                                        #   in Loop: Header=BB0_28 Depth=3
	movl	$91, %edi
	callq	_StraightTaint_log
	movl	$.L.str113, %esi
	movq	%rbx, %rdi
	callq	strcasecmp
	testl	%eax, %eax
	jne	.LBB0_117
# BB#112:                               # %if.then207.i.i
                                        #   in Loop: Header=BB0_28 Depth=3
	movl	$92, %edi
	callq	_StraightTaint_log
	testq	%r15, %r15
	je	.LBB0_113
# BB#114:                               # %value_required.exit558.i.i
                                        #   in Loop: Header=BB0_28 Depth=3
	movl	$94, %edi
	callq	_StraightTaint_log
	movq	%r15, %rdi
	callq	__strdup
	movq	%rax, %rbx
	testq	%rbx, %rbx
	je	.LBB0_115
# BB#116:                               # %e_strdup.exit563.i.i
                                        #   in Loop: Header=BB0_28 Depth=3
	movl	$96, %edi
	callq	_StraightTaint_log
	movq	%rbx, local_pattern(%rip)
	jmp	.LBB0_175
.LBB0_117:                              # %if.else209.i.i
                                        #   in Loop: Header=BB0_28 Depth=3
	movl	$97, %edi
	callq	_StraightTaint_log
	movl	$.L.str114, %esi
	movq	%rbx, %rdi
	callq	strcasecmp
	testl	%eax, %eax
	jne	.LBB0_123
# BB#118:                               # %if.then213.i.i
                                        #   in Loop: Header=BB0_28 Depth=3
	movl	$98, %edi
	callq	_StraightTaint_log
	testq	%r15, %r15
	je	.LBB0_119
# BB#120:                               # %value_required.exit567.i.i
                                        #   in Loop: Header=BB0_28 Depth=3
	movl	$100, %edi
	callq	_StraightTaint_log
	movq	%r15, %rdi
	callq	__strdup
	movq	%rax, %rbx
	testq	%rbx, %rbx
	je	.LBB0_121
# BB#122:                               # %e_strdup.exit572.i.i
                                        #   in Loop: Header=BB0_28 Depth=3
	movl	$102, %edi
	callq	_StraightTaint_log
	movq	%rbx, throttlefile(%rip)
	jmp	.LBB0_175
.LBB0_123:                              # %if.else215.i.i
                                        #   in Loop: Header=BB0_28 Depth=3
	movl	$103, %edi
	callq	_StraightTaint_log
	movl	$.L.str115, %esi
	movq	%rbx, %rdi
	callq	strcasecmp
	testl	%eax, %eax
	jne	.LBB0_129
# BB#124:                               # %if.then219.i.i
                                        #   in Loop: Header=BB0_28 Depth=3
	movl	$104, %edi
	callq	_StraightTaint_log
	testq	%r15, %r15
	je	.LBB0_125
# BB#126:                               # %value_required.exit576.i.i
                                        #   in Loop: Header=BB0_28 Depth=3
	movl	$106, %edi
	callq	_StraightTaint_log
	movq	%r15, %rdi
	callq	__strdup
	movq	%rax, %rbx
	testq	%rbx, %rbx
	je	.LBB0_127
# BB#128:                               # %e_strdup.exit581.i.i
                                        #   in Loop: Header=BB0_28 Depth=3
	movl	$108, %edi
	callq	_StraightTaint_log
	movq	%rbx, hostname(%rip)
	jmp	.LBB0_175
.LBB0_129:                              # %if.else221.i.i
                                        #   in Loop: Header=BB0_28 Depth=3
	movl	$109, %edi
	callq	_StraightTaint_log
	movl	$.L.str116, %esi
	movq	%rbx, %rdi
	callq	strcasecmp
	testl	%eax, %eax
	jne	.LBB0_135
# BB#130:                               # %if.then225.i.i
                                        #   in Loop: Header=BB0_28 Depth=3
	movl	$110, %edi
	callq	_StraightTaint_log
	testq	%r15, %r15
	je	.LBB0_131
# BB#132:                               # %value_required.exit585.i.i
                                        #   in Loop: Header=BB0_28 Depth=3
	movl	$112, %edi
	callq	_StraightTaint_log
	movq	%r15, %rdi
	callq	__strdup
	movq	%rax, %rbx
	testq	%rbx, %rbx
	je	.LBB0_133
# BB#134:                               # %e_strdup.exit590.i.i
                                        #   in Loop: Header=BB0_28 Depth=3
	movl	$114, %edi
	callq	_StraightTaint_log
	movq	%rbx, logfile(%rip)
	jmp	.LBB0_175
.LBB0_135:                              # %if.else227.i.i
                                        #   in Loop: Header=BB0_28 Depth=3
	movl	$115, %edi
	callq	_StraightTaint_log
	movl	$.L.str117, %esi
	movq	%rbx, %rdi
	callq	strcasecmp
	testl	%eax, %eax
	jne	.LBB0_139
# BB#136:                               # %if.then231.i.i
                                        #   in Loop: Header=BB0_28 Depth=3
	movl	$116, %edi
	callq	_StraightTaint_log
	testq	%r15, %r15
	jne	.LBB0_137
# BB#138:                               # %no_value_required.exit594.i.i
                                        #   in Loop: Header=BB0_28 Depth=3
	movl	$118, %edi
	callq	_StraightTaint_log
	movb	$1, do_vhost(%rip)
	jmp	.LBB0_175
.LBB0_139:                              # %if.else232.i.i
                                        #   in Loop: Header=BB0_28 Depth=3
	movl	$119, %edi
	callq	_StraightTaint_log
	movl	$.L.str118, %esi
	movq	%rbx, %rdi
	callq	strcasecmp
	testl	%eax, %eax
	jne	.LBB0_143
# BB#140:                               # %if.then236.i.i
                                        #   in Loop: Header=BB0_28 Depth=3
	movl	$120, %edi
	callq	_StraightTaint_log
	testq	%r15, %r15
	jne	.LBB0_141
# BB#142:                               # %no_value_required.exit598.i.i
                                        #   in Loop: Header=BB0_28 Depth=3
	movl	$122, %edi
	callq	_StraightTaint_log
	movb	$0, do_vhost(%rip)
	jmp	.LBB0_175
.LBB0_143:                              # %if.else237.i.i
                                        #   in Loop: Header=BB0_28 Depth=3
	movl	$123, %edi
	callq	_StraightTaint_log
	movl	$.L.str119, %esi
	movq	%rbx, %rdi
	callq	strcasecmp
	testl	%eax, %eax
	jne	.LBB0_147
# BB#144:                               # %if.then241.i.i
                                        #   in Loop: Header=BB0_28 Depth=3
	movl	$124, %edi
	callq	_StraightTaint_log
	testq	%r15, %r15
	jne	.LBB0_145
# BB#146:                               # %no_value_required.exit602.i.i
                                        #   in Loop: Header=BB0_28 Depth=3
	movl	$126, %edi
	callq	_StraightTaint_log
	movb	$1, do_global_passwd(%rip)
	jmp	.LBB0_175
.LBB0_147:                              # %if.else242.i.i
                                        #   in Loop: Header=BB0_28 Depth=3
	movl	$127, %edi
	callq	_StraightTaint_log
	movl	$.L.str120, %esi
	movq	%rbx, %rdi
	callq	strcasecmp
	testl	%eax, %eax
	jne	.LBB0_151
# BB#148:                               # %if.then246.i.i
                                        #   in Loop: Header=BB0_28 Depth=3
	movl	$128, %edi
	callq	_StraightTaint_log
	testq	%r15, %r15
	jne	.LBB0_149
# BB#150:                               # %no_value_required.exit606.i.i
                                        #   in Loop: Header=BB0_28 Depth=3
	movl	$130, %edi
	callq	_StraightTaint_log
	movb	$0, do_global_passwd(%rip)
	jmp	.LBB0_175
.LBB0_151:                              # %if.else247.i.i
                                        #   in Loop: Header=BB0_28 Depth=3
	movl	$131, %edi
	callq	_StraightTaint_log
	movl	$.L.str121, %esi
	movq	%rbx, %rdi
	callq	strcasecmp
	testl	%eax, %eax
	jne	.LBB0_157
# BB#152:                               # %if.then251.i.i
                                        #   in Loop: Header=BB0_28 Depth=3
	movl	$132, %edi
	callq	_StraightTaint_log
	testq	%r15, %r15
	je	.LBB0_153
# BB#154:                               # %value_required.exit610.i.i
                                        #   in Loop: Header=BB0_28 Depth=3
	movl	$134, %edi
	callq	_StraightTaint_log
	movq	%r15, %rdi
	callq	__strdup
	movq	%rax, %rbx
	testq	%rbx, %rbx
	je	.LBB0_155
# BB#156:                               # %e_strdup.exit615.i.i
                                        #   in Loop: Header=BB0_28 Depth=3
	movl	$136, %edi
	callq	_StraightTaint_log
	movq	%rbx, pidfile(%rip)
	jmp	.LBB0_175
.LBB0_157:                              # %if.else253.i.i
                                        #   in Loop: Header=BB0_28 Depth=3
	movl	$137, %edi
	callq	_StraightTaint_log
	movl	$.L.str122, %esi
	movq	%rbx, %rdi
	callq	strcasecmp
	testl	%eax, %eax
	jne	.LBB0_163
# BB#158:                               # %if.then257.i.i
                                        #   in Loop: Header=BB0_28 Depth=3
	movl	$138, %edi
	callq	_StraightTaint_log
	testq	%r15, %r15
	je	.LBB0_159
# BB#160:                               # %value_required.exit619.i.i
                                        #   in Loop: Header=BB0_28 Depth=3
	movl	$140, %edi
	callq	_StraightTaint_log
	movq	%r15, %rdi
	callq	__strdup
	movq	%rax, %rbx
	testq	%rbx, %rbx
	je	.LBB0_161
# BB#162:                               # %e_strdup.exit624.i.i
                                        #   in Loop: Header=BB0_28 Depth=3
	movl	$142, %edi
	callq	_StraightTaint_log
	movq	%rbx, charset(%rip)
	jmp	.LBB0_175
.LBB0_163:                              # %if.else259.i.i
                                        #   in Loop: Header=BB0_28 Depth=3
	movl	$143, %edi
	callq	_StraightTaint_log
	movl	$.L.str123, %esi
	movq	%rbx, %rdi
	callq	strcasecmp
	testl	%eax, %eax
	jne	.LBB0_169
# BB#164:                               # %if.then263.i.i
                                        #   in Loop: Header=BB0_28 Depth=3
	movl	$144, %edi
	callq	_StraightTaint_log
	testq	%r15, %r15
	je	.LBB0_165
# BB#166:                               # %value_required.exit628.i.i
                                        #   in Loop: Header=BB0_28 Depth=3
	movl	$146, %edi
	callq	_StraightTaint_log
	movq	%r15, %rdi
	callq	__strdup
	movq	%rax, %rbx
	testq	%rbx, %rbx
	je	.LBB0_167
# BB#168:                               # %e_strdup.exit633.i.i
                                        #   in Loop: Header=BB0_28 Depth=3
	movl	$148, %edi
	callq	_StraightTaint_log
	movq	%rbx, p3p(%rip)
	jmp	.LBB0_175
.LBB0_169:                              # %if.else265.i.i
                                        #   in Loop: Header=BB0_28 Depth=3
	movl	$149, %edi
	callq	_StraightTaint_log
	movl	$.L.str124, %esi
	movq	%rbx, %rdi
	callq	strcasecmp
	testl	%eax, %eax
	jne	.LBB0_173
# BB#170:                               # %if.then269.i.i
                                        #   in Loop: Header=BB0_28 Depth=3
	movl	$150, %edi
	callq	_StraightTaint_log
	testq	%r15, %r15
	je	.LBB0_171
# BB#172:                               # %value_required.exit637.i.i
                                        #   in Loop: Header=BB0_28 Depth=3
	movl	$152, %edi
	callq	_StraightTaint_log
	xorl	%esi, %esi
	movl	$10, %edx
	movq	%r15, %rdi
	callq	strtol
	movl	%eax, max_age(%rip)
	jmp	.LBB0_175
	.align	16, 0x90
.LBB0_28:                               # %cond.false86.i.i
                                        #   Parent Loop BB0_2 Depth=1
                                        #     Parent Loop BB0_23 Depth=2
                                        # =>    This Loop Header: Depth=3
                                        #         Child Loop BB0_29 Depth 4
	movl	$16, %edi
	callq	_StraightTaint_log
	movl	$.L.str98, %esi
	movq	%rbx, %rdi
	callq	strcspn
	movq	%rax, %rbp
	addq	%rbx, %rbp
	jmp	.LBB0_29
	.align	16, 0x90
.LBB0_31:                               # %while.body115.i.i
                                        #   in Loop: Header=BB0_29 Depth=4
	movl	$18, %edi
	callq	_StraightTaint_log
	movb	$0, (%rbp)
	incq	%rbp
.LBB0_29:                               # %while.cond101.i.i
                                        #   Parent Loop BB0_2 Depth=1
                                        #     Parent Loop BB0_23 Depth=2
                                        #       Parent Loop BB0_28 Depth=3
                                        # =>      This Inner Loop Header: Depth=4
	movl	$17, %edi
	callq	_StraightTaint_log
	movzbl	(%rbp), %eax
	cmpq	$32, %rax
	ja	.LBB0_32
# BB#30:                                # %while.cond101.i.i
                                        #   in Loop: Header=BB0_29 Depth=4
	btq	%rax, %r12
	jb	.LBB0_31
	.align	16, 0x90
.LBB0_32:                               # %while.end.i.i
                                        #   in Loop: Header=BB0_28 Depth=3
	movl	$19, %edi
	callq	_StraightTaint_log
	movl	$61, %esi
	movq	%rbx, %rdi
	callq	strchr
	movq	%rax, %r14
	testq	%r14, %r14
	movl	$0, %r15d
	je	.LBB0_34
# BB#33:                                # %if.then119.i.i
                                        #   in Loop: Header=BB0_28 Depth=3
	movl	$20, %edi
	callq	_StraightTaint_log
	movb	$0, (%r14)
	incq	%r14
	movq	%r14, %r15
.LBB0_34:                               # %if.end121.i.i
                                        #   in Loop: Header=BB0_28 Depth=3
	movl	$21, %edi
	callq	_StraightTaint_log
	movl	$.L.str99, %esi
	movq	%rbx, %rdi
	callq	strcasecmp
	testl	%eax, %eax
	jne	.LBB0_40
# BB#35:                                # %if.then125.i.i
                                        #   in Loop: Header=BB0_28 Depth=3
	movl	$22, %edi
	callq	_StraightTaint_log
	testq	%r15, %r15
	jne	.LBB0_36
# BB#174:                               # %no_value_required.exit.i.i
                                        #   in Loop: Header=BB0_28 Depth=3
	movl	$24, %edi
	callq	_StraightTaint_log
	movb	$1, debug(%rip)
	jmp	.LBB0_175
	.align	16, 0x90
.LBB0_40:                               # %if.else.i.i
                                        #   in Loop: Header=BB0_28 Depth=3
	movl	$25, %edi
	callq	_StraightTaint_log
	movl	$.L.str100, %esi
	movq	%rbx, %rdi
	callq	strcasecmp
	testl	%eax, %eax
	jne	.LBB0_45
# BB#41:                                # %if.then129.i.i
                                        #   in Loop: Header=BB0_28 Depth=3
	movl	$26, %edi
	callq	_StraightTaint_log
	testq	%r15, %r15
	je	.LBB0_42
# BB#44:                                # %value_required.exit.i.i
                                        #   in Loop: Header=BB0_28 Depth=3
	movl	$28, %edi
	callq	_StraightTaint_log
	xorl	%esi, %esi
	movl	$10, %edx
	movq	%r15, %rdi
	callq	strtol
	movw	%ax, port(%rip)
	jmp	.LBB0_175
	.align	16, 0x90
.LBB0_45:                               # %if.else132.i.i
                                        #   in Loop: Header=BB0_28 Depth=3
	movl	$29, %edi
	callq	_StraightTaint_log
	movl	$.L.str101, %esi
	movq	%rbx, %rdi
	callq	strcasecmp
	testl	%eax, %eax
	jne	.LBB0_53
# BB#46:                                # %if.then136.i.i
                                        #   in Loop: Header=BB0_28 Depth=3
	movl	$30, %edi
	callq	_StraightTaint_log
	testq	%r15, %r15
	je	.LBB0_47
# BB#48:                                # %value_required.exit481.i.i
                                        #   in Loop: Header=BB0_28 Depth=3
	movl	$32, %edi
	callq	_StraightTaint_log
	movq	%r15, %rdi
	callq	__strdup
	movq	%rax, %rbx
	testq	%rbx, %rbx
	je	.LBB0_49
# BB#52:                                # %e_strdup.exit.i.i
                                        #   in Loop: Header=BB0_28 Depth=3
	movl	$34, %edi
	callq	_StraightTaint_log
	movq	%rbx, dir(%rip)
	jmp	.LBB0_175
.LBB0_53:                               # %if.else138.i.i
                                        #   in Loop: Header=BB0_28 Depth=3
	movl	$35, %edi
	callq	_StraightTaint_log
	movl	$.L.str20, %esi
	movq	%rbx, %rdi
	callq	strcasecmp
	testl	%eax, %eax
	jne	.LBB0_57
# BB#54:                                # %if.then142.i.i
                                        #   in Loop: Header=BB0_28 Depth=3
	movl	$36, %edi
	callq	_StraightTaint_log
	testq	%r15, %r15
	jne	.LBB0_55
# BB#56:                                # %no_value_required.exit488.i.i
                                        #   in Loop: Header=BB0_28 Depth=3
	movl	$38, %edi
	callq	_StraightTaint_log
	movb	$1, do_chroot(%rip)
	movl	$1, no_symlink_check(%rip)
	jmp	.LBB0_175
.LBB0_57:                               # %if.else143.i.i
                                        #   in Loop: Header=BB0_28 Depth=3
	movl	$39, %edi
	callq	_StraightTaint_log
	movl	$.L.str102, %esi
	movq	%rbx, %rdi
	callq	strcasecmp
	testl	%eax, %eax
	jne	.LBB0_61
# BB#58:                                # %if.then147.i.i
                                        #   in Loop: Header=BB0_28 Depth=3
	movl	$40, %edi
	callq	_StraightTaint_log
	testq	%r15, %r15
	jne	.LBB0_59
# BB#60:                                # %no_value_required.exit492.i.i
                                        #   in Loop: Header=BB0_28 Depth=3
	movl	$42, %edi
	callq	_StraightTaint_log
	movb	$0, do_chroot(%rip)
	movl	$0, no_symlink_check(%rip)
	jmp	.LBB0_175
.LBB0_61:                               # %if.else148.i.i
                                        #   in Loop: Header=BB0_28 Depth=3
	movl	$43, %edi
	callq	_StraightTaint_log
	movl	$.L.str103, %esi
	movq	%rbx, %rdi
	callq	strcasecmp
	testl	%eax, %eax
	jne	.LBB0_67
# BB#62:                                # %if.then152.i.i
                                        #   in Loop: Header=BB0_28 Depth=3
	movl	$44, %edi
	callq	_StraightTaint_log
	testq	%r15, %r15
	je	.LBB0_63
# BB#64:                                # %value_required.exit496.i.i
                                        #   in Loop: Header=BB0_28 Depth=3
	movl	$46, %edi
	callq	_StraightTaint_log
	movq	%r15, %rdi
	callq	__strdup
	movq	%rax, %rbx
	testq	%rbx, %rbx
	je	.LBB0_65
# BB#66:                                # %e_strdup.exit501.i.i
                                        #   in Loop: Header=BB0_28 Depth=3
	movl	$48, %edi
	callq	_StraightTaint_log
	movq	%rbx, data_dir(%rip)
	jmp	.LBB0_175
.LBB0_67:                               # %if.else154.i.i
                                        #   in Loop: Header=BB0_28 Depth=3
	movl	$49, %edi
	callq	_StraightTaint_log
	movl	$.L.str104, %esi
	movq	%rbx, %rdi
	callq	strcasecmp
	testl	%eax, %eax
	jne	.LBB0_72
# BB#68:                                # %if.then158.i.i
                                        #   in Loop: Header=BB0_28 Depth=3
	movl	$50, %edi
	callq	_StraightTaint_log
	testq	%r15, %r15
	jne	.LBB0_69
# BB#70:                                # %no_value_required.exit505.i.i
                                        #   in Loop: Header=BB0_28 Depth=3
	movl	$52, %edi
	jmp	.LBB0_71
.LBB0_72:                               # %if.else159.i.i
                                        #   in Loop: Header=BB0_28 Depth=3
	movl	$53, %edi
	callq	_StraightTaint_log
	movl	$.L.str105, %esi
	movq	%rbx, %rdi
	callq	strcasecmp
	testl	%eax, %eax
	jne	.LBB0_77
# BB#73:                                # %if.then163.i.i
                                        #   in Loop: Header=BB0_28 Depth=3
	movl	$54, %edi
	callq	_StraightTaint_log
	testq	%r15, %r15
	jne	.LBB0_74
# BB#75:                                # %no_value_required.exit509.i.i
                                        #   in Loop: Header=BB0_28 Depth=3
	movl	$56, %edi
	jmp	.LBB0_76
.LBB0_77:                               # %if.else164.i.i
                                        #   in Loop: Header=BB0_28 Depth=3
	movl	$57, %edi
	callq	_StraightTaint_log
	movl	$.L.str106, %esi
	movq	%rbx, %rdi
	callq	strcasecmp
	testl	%eax, %eax
	jne	.LBB0_81
# BB#78:                                # %if.then168.i.i
                                        #   in Loop: Header=BB0_28 Depth=3
	movl	$58, %edi
	callq	_StraightTaint_log
	testq	%r15, %r15
	jne	.LBB0_79
# BB#80:                                # %no_value_required.exit513.i.i
                                        #   in Loop: Header=BB0_28 Depth=3
	movl	$60, %edi
.LBB0_71:                               # %cond.false336.i.i
                                        #   in Loop: Header=BB0_28 Depth=3
	callq	_StraightTaint_log
	movl	$0, no_symlink_check(%rip)
	jmp	.LBB0_175
.LBB0_81:                               # %if.else169.i.i
                                        #   in Loop: Header=BB0_28 Depth=3
	movl	$61, %edi
	callq	_StraightTaint_log
	movl	$.L.str107, %esi
	movq	%rbx, %rdi
	callq	strcasecmp
	testl	%eax, %eax
	jne	.LBB0_85
# BB#82:                                # %if.then173.i.i
                                        #   in Loop: Header=BB0_28 Depth=3
	movl	$62, %edi
	callq	_StraightTaint_log
	testq	%r15, %r15
	jne	.LBB0_83
# BB#84:                                # %no_value_required.exit517.i.i
                                        #   in Loop: Header=BB0_28 Depth=3
	movl	$64, %edi
.LBB0_76:                               # %cond.false336.i.i
                                        #   in Loop: Header=BB0_28 Depth=3
	callq	_StraightTaint_log
	movl	$1, no_symlink_check(%rip)
	.align	16, 0x90
.LBB0_175:                              # %cond.false336.i.i
                                        #   in Loop: Header=BB0_28 Depth=3
	movl	$154, %edi
	callq	_StraightTaint_log
	movl	$.L.str98, %esi
	movq	%rbp, %rdi
	callq	strspn
	leaq	(%rbp,%rax), %rbx
	cmpb	$0, (%rbp,%rax)
	jne	.LBB0_28
	jmp	.LBB0_22
	.align	16, 0x90
.LBB0_10:                               # %if.then.i
                                        #   in Loop: Header=BB0_2 Depth=1
	movsbl	%bpl, %eax
	cmpl	$99, %eax
	jg	.LBB0_14
# BB#11:                                # %if.then.i
                                        #   in Loop: Header=BB0_2 Depth=1
	movzbl	%bpl, %eax
	cmpl	$86, %eax
	jne	.LBB0_182
# BB#12:                                # %cond.end.i
                                        #   in Loop: Header=BB0_2 Depth=1
	movl	$5, %edi
	callq	_StraightTaint_log
	cmpb	$0, 2(%rbx)
	jne	.LBB0_182
	jmp	.LBB0_13
	.align	16, 0x90
.LBB0_14:                               # %if.then.i
                                        #   in Loop: Header=BB0_2 Depth=1
	movzbl	%bpl, %eax
	cmpl	$100, %eax
	je	.LBB0_179
# BB#15:                                # %if.then.i
                                        #   in Loop: Header=BB0_2 Depth=1
	cmpl	$112, %eax
	jne	.LBB0_16
# BB#176:                               # %cond.end176.i
                                        #   in Loop: Header=BB0_2 Depth=1
	movl	$156, %edi
	callq	_StraightTaint_log
	cmpb	$0, 2(%rbx)
	jne	.LBB0_182
# BB#177:                               # %land.lhs.true180.i
                                        #   in Loop: Header=BB0_2 Depth=1
	movl	$157, %edi
	callq	_StraightTaint_log
	leal	1(%r15), %r13d
	cmpl	120(%rsp), %r13d        # 4-byte Folded Reload
	jge	.LBB0_182
# BB#178:                               # %if.then184.i
                                        #   in Loop: Header=BB0_2 Depth=1
	movl	$158, %edi
	callq	_StraightTaint_log
	movslq	%r13d, %rax
	movq	112(%rsp), %rcx         # 8-byte Reload
	movq	(%rcx,%rax,8), %rdi
	xorl	%esi, %esi
	movl	$10, %edx
	callq	strtol
	movw	%ax, port(%rip)
	jmp	.LBB0_250
.LBB0_179:                              # %cond.end248.i
                                        #   in Loop: Header=BB0_2 Depth=1
	movl	$159, %edi
	callq	_StraightTaint_log
	cmpb	$0, 2(%rbx)
	jne	.LBB0_182
# BB#180:                               # %land.lhs.true252.i
                                        #   in Loop: Header=BB0_2 Depth=1
	movl	$160, %edi
	callq	_StraightTaint_log
	leal	1(%r15), %r13d
	cmpl	120(%rsp), %r13d        # 4-byte Folded Reload
	jge	.LBB0_182
# BB#181:                               # %if.then256.i
                                        #   in Loop: Header=BB0_2 Depth=1
	movl	$161, %edi
	callq	_StraightTaint_log
	movslq	%r13d, %rax
	movq	112(%rsp), %rcx         # 8-byte Reload
	movq	(%rcx,%rax,8), %rax
	movq	%rax, dir(%rip)
	jmp	.LBB0_250
.LBB0_16:                               # %if.then.i
                                        #   in Loop: Header=BB0_2 Depth=1
	cmpl	$114, %eax
	jne	.LBB0_182
# BB#17:                                # %cond.end318.i
                                        #   in Loop: Header=BB0_2 Depth=1
	movl	$162, %edi
	callq	_StraightTaint_log
	cmpb	$0, 2(%rbx)
	jne	.LBB0_182
# BB#18:                                # %if.then322.i
                                        #   in Loop: Header=BB0_2 Depth=1
	movl	$163, %edi
	callq	_StraightTaint_log
	movb	$1, do_chroot(%rip)
	jmp	.LBB0_195
	.align	16, 0x90
.LBB0_182:                              # %cond.false377.i
                                        #   in Loop: Header=BB0_2 Depth=1
	movl	$164, %edi
	callq	_StraightTaint_log
	movl	$.L.str79, %esi
	movq	%rbx, %rdi
	callq	strcmp
	testl	%eax, %eax
	jne	.LBB0_184
# BB#183:                               # %if.then385.i
                                        #   in Loop: Header=BB0_2 Depth=1
	movl	$165, %edi
	callq	_StraightTaint_log
	movb	$0, do_chroot(%rip)
	jmp	.LBB0_192
	.align	16, 0x90
.LBB0_184:                              # %if.then411.i
                                        #   in Loop: Header=BB0_2 Depth=1
	movl	$166, %edi
	callq	_StraightTaint_log
	movzbl	%bpl, %r14d
	cmpl	$115, %r14d
	jne	.LBB0_185
# BB#190:                               # %cond.end514.i
                                        #   in Loop: Header=BB0_2 Depth=1
	movl	$171, %edi
	callq	_StraightTaint_log
	cmpb	$0, 2(%rbx)
	jne	.LBB0_193
# BB#191:                               # %if.then518.i
                                        #   in Loop: Header=BB0_2 Depth=1
	movl	$172, %edi
	callq	_StraightTaint_log
	.align	16, 0x90
.LBB0_192:                              # %if.end1551.i
                                        #   in Loop: Header=BB0_2 Depth=1
	movl	$0, no_symlink_check(%rip)
	movl	%r15d, %r13d
	jmp	.LBB0_250
	.align	16, 0x90
.LBB0_185:                              # %if.then411.i
                                        #   in Loop: Header=BB0_2 Depth=1
	cmpl	$100, %r14d
	jne	.LBB0_193
# BB#186:                               # %if.then421.i
                                        #   in Loop: Header=BB0_2 Depth=1
	movl	$167, %edi
	callq	_StraightTaint_log
	movzbl	2(%rbx), %eax
	cmpl	$100, %eax
	jne	.LBB0_193
# BB#187:                               # %cond.end444.i
                                        #   in Loop: Header=BB0_2 Depth=1
	movl	$168, %edi
	callq	_StraightTaint_log
	cmpb	$0, 3(%rbx)
	jne	.LBB0_193
# BB#188:                               # %land.lhs.true448.i
                                        #   in Loop: Header=BB0_2 Depth=1
	movl	$169, %edi
	callq	_StraightTaint_log
	leal	1(%r15), %r13d
	cmpl	120(%rsp), %r13d        # 4-byte Folded Reload
	jge	.LBB0_193
# BB#189:                               # %if.then452.i
                                        #   in Loop: Header=BB0_2 Depth=1
	movl	$170, %edi
	callq	_StraightTaint_log
	movslq	%r13d, %rax
	movq	112(%rsp), %rcx         # 8-byte Reload
	movq	(%rcx,%rax,8), %rax
	movq	%rax, data_dir(%rip)
	jmp	.LBB0_250
	.align	16, 0x90
.LBB0_193:                              # %cond.false573.i
                                        #   in Loop: Header=BB0_2 Depth=1
	movl	$173, %edi
	callq	_StraightTaint_log
	movl	$.L.str82, %esi
	movq	%rbx, %rdi
	callq	strcmp
	testl	%eax, %eax
	jne	.LBB0_196
# BB#194:                               # %if.then581.i
                                        #   in Loop: Header=BB0_2 Depth=1
	movl	$174, %edi
	callq	_StraightTaint_log
.LBB0_195:                              # %if.end1551.i
                                        #   in Loop: Header=BB0_2 Depth=1
	movl	$1, no_symlink_check(%rip)
	movl	%r15d, %r13d
	jmp	.LBB0_250
.LBB0_196:                              # %if.then607.i
                                        #   in Loop: Header=BB0_2 Depth=1
	movl	$175, %edi
	callq	_StraightTaint_log
	movsbl	%bpl, %ebp
	cmpl	$115, %ebp
	jg	.LBB0_203
# BB#197:                               # %if.then607.i
                                        #   in Loop: Header=BB0_2 Depth=1
	cmpl	$99, %r14d
	je	.LBB0_209
# BB#198:                               # %if.then607.i
                                        #   in Loop: Header=BB0_2 Depth=1
	cmpl	$104, %r14d
	jne	.LBB0_199
# BB#215:                               # %cond.end850.i
                                        #   in Loop: Header=BB0_2 Depth=1
	movl	$185, %edi
	callq	_StraightTaint_log
	cmpb	$0, 2(%rbx)
	jne	.LBB0_220
# BB#216:                               # %land.lhs.true854.i
                                        #   in Loop: Header=BB0_2 Depth=1
	movl	$186, %edi
	callq	_StraightTaint_log
	leal	1(%r15), %r13d
	cmpl	120(%rsp), %r13d        # 4-byte Folded Reload
	jge	.LBB0_220
# BB#217:                               # %if.then858.i
                                        #   in Loop: Header=BB0_2 Depth=1
	movl	$187, %edi
	callq	_StraightTaint_log
	movslq	%r13d, %rax
	movq	112(%rsp), %rcx         # 8-byte Reload
	movq	(%rcx,%rax,8), %rax
	movq	%rax, hostname(%rip)
	jmp	.LBB0_250
.LBB0_203:                              # %if.then607.i
                                        #   in Loop: Header=BB0_2 Depth=1
	cmpl	$116, %r14d
	je	.LBB0_212
# BB#204:                               # %if.then607.i
                                        #   in Loop: Header=BB0_2 Depth=1
	cmpl	$118, %r14d
	jne	.LBB0_205
# BB#218:                               # %cond.end990.i
                                        #   in Loop: Header=BB0_2 Depth=1
	movl	$191, %edi
	callq	_StraightTaint_log
	cmpb	$0, 2(%rbx)
	jne	.LBB0_220
# BB#219:                               # %if.then994.i
                                        #   in Loop: Header=BB0_2 Depth=1
	movl	$192, %edi
	callq	_StraightTaint_log
	movb	$1, do_vhost(%rip)
	movl	%r15d, %r13d
	jmp	.LBB0_250
.LBB0_249:                              # %read_config.exit.i
                                        #   in Loop: Header=BB0_2 Depth=1
	movl	$155, %edi
	callq	_StraightTaint_log
	movq	%rbp, %rdi
	callq	fclose
	jmp	.LBB0_250
.LBB0_209:                              # %cond.end710.i
                                        #   in Loop: Header=BB0_2 Depth=1
	movl	$179, %edi
	callq	_StraightTaint_log
	cmpb	$0, 2(%rbx)
	jne	.LBB0_220
# BB#210:                               # %land.lhs.true714.i
                                        #   in Loop: Header=BB0_2 Depth=1
	movl	$180, %edi
	callq	_StraightTaint_log
	leal	1(%r15), %r13d
	cmpl	120(%rsp), %r13d        # 4-byte Folded Reload
	jge	.LBB0_220
# BB#211:                               # %if.then718.i
                                        #   in Loop: Header=BB0_2 Depth=1
	movl	$181, %edi
	callq	_StraightTaint_log
	movslq	%r13d, %rax
	movq	112(%rsp), %rcx         # 8-byte Reload
	movq	(%rcx,%rax,8), %rax
	movq	%rax, cgi_pattern(%rip)
	jmp	.LBB0_250
.LBB0_199:                              # %if.then607.i
                                        #   in Loop: Header=BB0_2 Depth=1
	cmpl	$108, %r14d
	jne	.LBB0_220
# BB#200:                               # %cond.end920.i
                                        #   in Loop: Header=BB0_2 Depth=1
	movl	$188, %edi
	callq	_StraightTaint_log
	cmpb	$0, 2(%rbx)
	jne	.LBB0_220
# BB#201:                               # %land.lhs.true924.i
                                        #   in Loop: Header=BB0_2 Depth=1
	movl	$189, %edi
	callq	_StraightTaint_log
	leal	1(%r15), %r13d
	cmpl	120(%rsp), %r13d        # 4-byte Folded Reload
	jge	.LBB0_220
# BB#202:                               # %if.then928.i
                                        #   in Loop: Header=BB0_2 Depth=1
	movl	$190, %edi
	callq	_StraightTaint_log
	movslq	%r13d, %rax
	movq	112(%rsp), %rcx         # 8-byte Reload
	movq	(%rcx,%rax,8), %rax
	movq	%rax, logfile(%rip)
	jmp	.LBB0_250
.LBB0_212:                              # %cond.end780.i
                                        #   in Loop: Header=BB0_2 Depth=1
	movl	$182, %edi
	callq	_StraightTaint_log
	cmpb	$0, 2(%rbx)
	jne	.LBB0_220
# BB#213:                               # %land.lhs.true784.i
                                        #   in Loop: Header=BB0_2 Depth=1
	movl	$183, %edi
	callq	_StraightTaint_log
	leal	1(%r15), %r13d
	cmpl	120(%rsp), %r13d        # 4-byte Folded Reload
	jge	.LBB0_220
# BB#214:                               # %if.then788.i
                                        #   in Loop: Header=BB0_2 Depth=1
	movl	$184, %edi
	callq	_StraightTaint_log
	movslq	%r13d, %rax
	movq	112(%rsp), %rcx         # 8-byte Reload
	movq	(%rcx,%rax,8), %rax
	movq	%rax, throttlefile(%rip)
	jmp	.LBB0_250
.LBB0_205:                              # %if.then607.i
                                        #   in Loop: Header=BB0_2 Depth=1
	cmpl	$117, %r14d
	jne	.LBB0_220
# BB#206:                               # %cond.end640.i
                                        #   in Loop: Header=BB0_2 Depth=1
	movl	$176, %edi
	callq	_StraightTaint_log
	cmpb	$0, 2(%rbx)
	jne	.LBB0_220
# BB#207:                               # %land.lhs.true644.i
                                        #   in Loop: Header=BB0_2 Depth=1
	movl	$177, %edi
	callq	_StraightTaint_log
	leal	1(%r15), %r13d
	cmpl	120(%rsp), %r13d        # 4-byte Folded Reload
	jge	.LBB0_220
# BB#208:                               # %if.then648.i
                                        #   in Loop: Header=BB0_2 Depth=1
	movl	$178, %edi
	callq	_StraightTaint_log
	movslq	%r13d, %rax
	movq	112(%rsp), %rcx         # 8-byte Reload
	movq	(%rcx,%rax,8), %rax
	movq	%rax, user(%rip)
	jmp	.LBB0_250
.LBB0_220:                              # %cond.false1049.i
                                        #   in Loop: Header=BB0_2 Depth=1
	movl	$193, %edi
	callq	_StraightTaint_log
	movl	$.L.str89, %esi
	movq	%rbx, %rdi
	callq	strcmp
	testl	%eax, %eax
	jne	.LBB0_222
# BB#221:                               # %if.then1057.i
                                        #   in Loop: Header=BB0_2 Depth=1
	movl	$194, %edi
	callq	_StraightTaint_log
	movb	$0, do_vhost(%rip)
	movl	%r15d, %r13d
	jmp	.LBB0_250
.LBB0_222:                              # %if.then1083.i
                                        #   in Loop: Header=BB0_2 Depth=1
	movl	$195, %edi
	callq	_StraightTaint_log
	cmpl	$103, %r14d
	jne	.LBB0_225
# BB#223:                               # %cond.end1116.i
                                        #   in Loop: Header=BB0_2 Depth=1
	movl	$196, %edi
	callq	_StraightTaint_log
	cmpb	$0, 2(%rbx)
	jne	.LBB0_225
# BB#224:                               # %if.then1120.i
                                        #   in Loop: Header=BB0_2 Depth=1
	movl	$197, %edi
	callq	_StraightTaint_log
	movb	$1, do_global_passwd(%rip)
	movl	%r15d, %r13d
	jmp	.LBB0_250
.LBB0_225:                              # %cond.false1175.i
                                        #   in Loop: Header=BB0_2 Depth=1
	movl	$198, %edi
	callq	_StraightTaint_log
	movl	$.L.str91, %esi
	movq	%rbx, %rdi
	callq	strcmp
	testl	%eax, %eax
	jne	.LBB0_227
# BB#226:                               # %if.then1183.i
                                        #   in Loop: Header=BB0_2 Depth=1
	movl	$199, %edi
	callq	_StraightTaint_log
	movb	$0, do_global_passwd(%rip)
	movl	%r15d, %r13d
	jmp	.LBB0_250
.LBB0_227:                              # %if.then1209.i
                                        #   in Loop: Header=BB0_2 Depth=1
	movl	$200, %edi
	callq	_StraightTaint_log
	cmpl	$104, %ebp
	jg	.LBB0_238
# BB#228:                               # %if.then1209.i
                                        #   in Loop: Header=BB0_2 Depth=1
	cmpl	$76, %ebp
	jg	.LBB0_232
# BB#229:                               # %if.then1209.i
                                        #   in Loop: Header=BB0_2 Depth=1
	cmpl	$68, %r14d
	jne	.LBB0_248
# BB#230:                               # %cond.end1523.i
                                        #   in Loop: Header=BB0_2 Depth=1
	movl	$213, %edi
	callq	_StraightTaint_log
	cmpb	$0, 2(%rbx)
	jne	.LBB0_248
# BB#231:                               # %if.then1527.i
                                        #   in Loop: Header=BB0_2 Depth=1
	movl	$214, %edi
	callq	_StraightTaint_log
	movb	$1, debug(%rip)
	movl	%r15d, %r13d
	jmp	.LBB0_250
.LBB0_238:                              # %if.then1209.i
                                        #   in Loop: Header=BB0_2 Depth=1
	cmpl	$105, %r14d
	jne	.LBB0_248
# BB#239:                               # %cond.end1242.i
                                        #   in Loop: Header=BB0_2 Depth=1
	movl	$201, %edi
	callq	_StraightTaint_log
	cmpb	$0, 2(%rbx)
	jne	.LBB0_248
# BB#240:                               # %land.lhs.true1246.i
                                        #   in Loop: Header=BB0_2 Depth=1
	movl	$202, %edi
	callq	_StraightTaint_log
	incl	%r15d
	cmpl	120(%rsp), %r15d        # 4-byte Folded Reload
	jge	.LBB0_248
# BB#241:                               # %if.then1250.i
                                        #   in Loop: Header=BB0_2 Depth=1
	movl	$203, %edi
	callq	_StraightTaint_log
	movslq	%r15d, %rax
	movq	112(%rsp), %rcx         # 8-byte Reload
	movq	(%rcx,%rax,8), %rax
	movq	%rax, pidfile(%rip)
	movl	%r15d, %r13d
	.align	16, 0x90
.LBB0_250:                              # %if.end1551.i
                                        #   in Loop: Header=BB0_2 Depth=1
	movl	$216, %edi
	callq	_StraightTaint_log
	incl	%r13d
	cmpl	120(%rsp), %r13d        # 4-byte Folded Reload
	movl	%r13d, %r15d
	jl	.LBB0_2
	jmp	.LBB0_251
.LBB0_232:                              # %if.then1209.i
                                        #   in Loop: Header=BB0_2 Depth=1
	cmpl	$77, %r14d
	je	.LBB0_245
# BB#233:                               # %if.then1209.i
                                        #   in Loop: Header=BB0_2 Depth=1
	cmpl	$80, %r14d
	jne	.LBB0_234
# BB#242:                               # %cond.end1382.i
                                        #   in Loop: Header=BB0_2 Depth=1
	movl	$207, %edi
	callq	_StraightTaint_log
	cmpb	$0, 2(%rbx)
	jne	.LBB0_248
# BB#243:                               # %land.lhs.true1386.i
                                        #   in Loop: Header=BB0_2 Depth=1
	movl	$208, %edi
	callq	_StraightTaint_log
	incl	%r15d
	cmpl	120(%rsp), %r15d        # 4-byte Folded Reload
	jge	.LBB0_248
# BB#244:                               # %if.then1390.i
                                        #   in Loop: Header=BB0_2 Depth=1
	movl	$209, %edi
	callq	_StraightTaint_log
	movslq	%r15d, %rax
	movq	112(%rsp), %rcx         # 8-byte Reload
	movq	(%rcx,%rax,8), %rax
	movq	%rax, p3p(%rip)
	movl	%r15d, %r13d
	jmp	.LBB0_250
.LBB0_245:                              # %cond.end1452.i
                                        #   in Loop: Header=BB0_2 Depth=1
	movl	$210, %edi
	callq	_StraightTaint_log
	cmpb	$0, 2(%rbx)
	jne	.LBB0_248
# BB#246:                               # %land.lhs.true1456.i
                                        #   in Loop: Header=BB0_2 Depth=1
	movl	$211, %edi
	callq	_StraightTaint_log
	incl	%r15d
	cmpl	120(%rsp), %r15d        # 4-byte Folded Reload
	jge	.LBB0_248
# BB#247:                               # %if.then1460.i
                                        #   in Loop: Header=BB0_2 Depth=1
	movl	$212, %edi
	callq	_StraightTaint_log
	movslq	%r15d, %rax
	movq	112(%rsp), %rcx         # 8-byte Reload
	movq	(%rcx,%rax,8), %rdi
	xorl	%esi, %esi
	movl	$10, %edx
	callq	strtol
	movl	%eax, max_age(%rip)
	movl	%r15d, %r13d
	jmp	.LBB0_250
.LBB0_234:                              # %if.then1209.i
                                        #   in Loop: Header=BB0_2 Depth=1
	cmpl	$84, %r14d
	jne	.LBB0_248
# BB#235:                               # %cond.end1312.i
                                        #   in Loop: Header=BB0_2 Depth=1
	movl	$204, %edi
	callq	_StraightTaint_log
	cmpb	$0, 2(%rbx)
	jne	.LBB0_248
# BB#236:                               # %land.lhs.true1316.i
                                        #   in Loop: Header=BB0_2 Depth=1
	movl	$205, %edi
	callq	_StraightTaint_log
	incl	%r15d
	cmpl	120(%rsp), %r15d        # 4-byte Folded Reload
	jge	.LBB0_248
# BB#237:                               # %if.then1320.i
                                        #   in Loop: Header=BB0_2 Depth=1
	movl	$206, %edi
	callq	_StraightTaint_log
	movslq	%r15d, %rax
	movq	112(%rsp), %rcx         # 8-byte Reload
	movq	(%rcx,%rax,8), %rax
	movq	%rax, charset(%rip)
	movl	%r15d, %r13d
	jmp	.LBB0_250
	.align	16, 0x90
.LBB0_2:                                # %land.rhs.i
                                        # =>This Loop Header: Depth=1
                                        #     Child Loop BB0_23 Depth 2
                                        #       Child Loop BB0_28 Depth 3
                                        #         Child Loop BB0_29 Depth 4
	movl	$3, %edi
	callq	_StraightTaint_log
	movslq	%r15d, %rax
	movq	112(%rsp), %rcx         # 8-byte Reload
	movq	(%rcx,%rax,8), %rbx
	movzbl	(%rbx), %eax
	cmpl	$45, %eax
	je	.LBB0_4
# BB#3:
	movl	%r15d, %r13d
.LBB0_251:                              # %while.end.i
	movl	$217, %edi
	callq	_StraightTaint_log
	cmpl	120(%rsp), %r13d        # 4-byte Folded Reload
	jne	.LBB0_527
# BB#252:                               # %parse_args.exit
	movl	$219, %edi
	callq	_StraightTaint_log
	callq	tzset
	xorps	%xmm0, %xmm0
	movaps	%xmm0, 4544(%rsp)
	movaps	%xmm0, 4528(%rsp)
	movaps	%xmm0, 4512(%rsp)
	movl	$1, 4512(%rsp)
	movl	$1, 4520(%rsp)
	movzwl	port(%rip), %ecx
	xorl	%r14d, %r14d
	leaq	14544(%rsp), %rbx
	movl	$10, %esi
	movl	$.L.str66, %edx
	xorl	%eax, %eax
	movq	%rbx, %rdi
	callq	snprintf
	movq	hostname(%rip), %rdi
	leaq	4512(%rsp), %rdx
	leaq	14512(%rsp), %rcx
	movq	%rbx, %rsi
	callq	getaddrinfo
	movl	%eax, %ebx
	testl	%ebx, %ebx
	jne	.LBB0_528
# BB#253:                               # %for.cond.preheader.i
	movl	$220, %edi
	callq	_StraightTaint_log
	movq	14512(%rsp), %r15
	testq	%r15, %r15
	movl	$0, %r12d
	je	.LBB0_270
# BB#254:
	movq	%r15, %rbx
	xorl	%ebp, %ebp
	.align	16, 0x90
.LBB0_255:                              # %for.body.i
                                        # =>This Inner Loop Header: Depth=1
	movl	$222, %edi
	callq	_StraightTaint_log
	movl	4(%rbx), %eax
	cmpl	$2, %eax
	jne	.LBB0_256
# BB#258:                               # %sw.bb14.i
                                        #   in Loop: Header=BB0_255 Depth=1
	movl	$224, %edi
	callq	_StraightTaint_log
	testq	%r14, %r14
	cmoveq	%rbx, %r14
	jmp	.LBB0_259
	.align	16, 0x90
.LBB0_256:                              # %for.body.i
                                        #   in Loop: Header=BB0_255 Depth=1
	cmpl	$10, %eax
	jne	.LBB0_259
# BB#257:                               # %sw.bb.i
                                        #   in Loop: Header=BB0_255 Depth=1
	movl	$223, %edi
	callq	_StraightTaint_log
	testq	%rbp, %rbp
	cmoveq	%rbx, %rbp
.LBB0_259:                              # %for.inc.i
                                        #   in Loop: Header=BB0_255 Depth=1
	movl	$225, %edi
	callq	_StraightTaint_log
	movq	40(%rbx), %rbx
	testq	%rbx, %rbx
	jne	.LBB0_255
# BB#260:                               # %for.end.i
	movl	$226, %edi
	callq	_StraightTaint_log
	xorl	%r12d, %r12d
	testq	%rbp, %rbp
	movl	$0, %ebx
	je	.LBB0_265
# BB#261:                               # %if.else.i
	movl	$227, %edi
	callq	_StraightTaint_log
	movl	16(%rbp), %ebx
	cmpq	$129, %rbx
	jae	.LBB0_262
# BB#264:                               # %if.end28.i
	movl	$229, %edi
	callq	_StraightTaint_log
	xorps	%xmm0, %xmm0
	movaps	%xmm0, 256(%rsp)
	movaps	%xmm0, 240(%rsp)
	movaps	%xmm0, 224(%rsp)
	movaps	%xmm0, 208(%rsp)
	movaps	%xmm0, 192(%rsp)
	movaps	%xmm0, 176(%rsp)
	movaps	%xmm0, 160(%rsp)
	movaps	%xmm0, 144(%rsp)
	movq	24(%rbp), %rsi
	movl	16(%rbp), %edx
	leaq	144(%rsp), %rdi
	callq	memmove
	movl	$1, %ebx
.LBB0_265:                              # %if.end31.i
	movl	$230, %edi
	callq	_StraightTaint_log
	testq	%r14, %r14
	je	.LBB0_269
# BB#266:                               # %if.else35.i
	movl	$231, %edi
	callq	_StraightTaint_log
	movl	16(%r14), %ebp
	cmpq	$129, %rbp
	jae	.LBB0_267
# BB#268:                               # %if.end43.i
	movl	$233, %edi
	callq	_StraightTaint_log
	xorps	%xmm0, %xmm0
	movaps	%xmm0, 384(%rsp)
	movaps	%xmm0, 368(%rsp)
	movaps	%xmm0, 352(%rsp)
	movaps	%xmm0, 336(%rsp)
	movaps	%xmm0, 320(%rsp)
	movaps	%xmm0, 304(%rsp)
	movaps	%xmm0, 288(%rsp)
	movaps	%xmm0, 272(%rsp)
	movq	24(%r14), %rsi
	movl	16(%r14), %edx
	leaq	272(%rsp), %rdi
	callq	memmove
	movl	$1, %r12d
.LBB0_269:                              # %lookup_hostname.exit
	movl	%ebx, %r14d
.LBB0_270:                              # %lookup_hostname.exit
	movl	$234, %edi
	callq	_StraightTaint_log
	movq	%r15, %rdi
	callq	freeaddrinfo
	movl	%r12d, %eax
	orl	%r14d, %eax
	je	.LBB0_271
# BB#272:                               # %if.end4
	movl	$236, %edi
	callq	_StraightTaint_log
	movl	$0, numthrottles(%rip)
	movl	$0, maxthrottles(%rip)
	movq	$0, throttles(%rip)
	movq	throttlefile(%rip), %rbx
	testq	%rbx, %rbx
	je	.LBB0_294
# BB#273:                               # %if.then6
	movl	%r12d, 120(%rsp)        # 4-byte Spill
	movl	$237, %edi
	callq	_StraightTaint_log
	movl	$20149999, %edi         # imm = 0x13376EF
	xorl	%esi, %esi
	callq	kill
	movl	$.L.str56, %esi
	movq	%rbx, %rdi
	callq	fopen
	movq	%rax, %r12
	testq	%r12, %r12
	je	.LBB0_274
# BB#275:                               # %if.end.i
	movq	%rbx, 112(%rsp)         # 8-byte Spill
	movl	$239, %edi
	callq	_StraightTaint_log
	leaq	14512(%rsp), %rdi
	xorl	%esi, %esi
	callq	gettimeofday
	leaq	4512(%rsp), %rdi
	movl	$5000, %esi             # imm = 0x1388
	movq	%r12, %rdx
	callq	fgets
	testq	%rax, %rax
	je	.LBB0_293
# BB#276:                               # %while.body.lr.ph.i
	movl	$240, %edi
	callq	_StraightTaint_log
	leaq	4512(%rsp), %r13
	leaq	14544(%rsp), %rbp
	jmp	.LBB0_277
.LBB0_291:                              # %if.else55.i
                                        #   in Loop: Header=BB0_277 Depth=1
	movl	$251, %edi
	callq	_StraightTaint_log
	movl	$2, %edi
	movl	$.L.str59, %esi
	xorl	%eax, %eax
	movq	112(%rsp), %rbx         # 8-byte Reload
	movq	%rbx, %rdx
	movq	%r13, %rcx
	callq	syslog
	movq	stderr(%rip), %rdi
	movq	argv0(%rip), %rdx
	movl	$.L.str60, %esi
	xorl	%eax, %eax
	movq	%rbx, %rcx
	movq	%r13, %r8
	callq	fprintf
	jmp	.LBB0_292
	.align	16, 0x90
.LBB0_277:                              # %while.body.i
                                        # =>This Loop Header: Depth=1
                                        #     Child Loop BB0_281 Depth 2
                                        #     Child Loop BB0_298 Depth 2
	movl	$241, %edi
	callq	_StraightTaint_log
	movl	$35, %esi
	movq	%r13, %rdi
	callq	strchr
	movq	%rax, %rbx
	testq	%rbx, %rbx
	je	.LBB0_279
# BB#278:                               # %if.then7.i
                                        #   in Loop: Header=BB0_277 Depth=1
	movl	$242, %edi
	callq	_StraightTaint_log
	movb	$0, (%rbx)
.LBB0_279:                              # %if.end8.i
                                        #   in Loop: Header=BB0_277 Depth=1
	movl	$243, %edi
	callq	_StraightTaint_log
	movq	%r13, %rdi
	callq	strlen
	movq	%rax, %r15
	testl	%r15d, %r15d
	jle	.LBB0_284
# BB#280:                               # %land.rhs.lr.ph.i598
                                        #   in Loop: Header=BB0_277 Depth=1
	movl	$244, %edi
	callq	_StraightTaint_log
	movl	%r15d, %ebx
	movslq	%r15d, %r15
.LBB0_281:                              # %land.rhs.i600
                                        #   Parent Loop BB0_277 Depth=1
                                        # =>  This Inner Loop Header: Depth=2
	movl	$245, %edi
	callq	_StraightTaint_log
	movzbl	4511(%rsp,%r15), %eax
	cmpq	$32, %rax
	ja	.LBB0_284
# BB#282:                               # %land.rhs.i600
                                        #   in Loop: Header=BB0_281 Depth=2
	movabsq	$4294977024, %rcx       # imm = 0x100002600
	btq	%rax, %rcx
	jae	.LBB0_284
# BB#283:                               # %while.body36.i
                                        #   in Loop: Header=BB0_281 Depth=2
	movl	$246, %edi
	callq	_StraightTaint_log
	movb	$0, 4511(%rsp,%r15)
	leaq	-1(%r15), %r15
	decl	%ebx
	testl	%ebx, %ebx
	jg	.LBB0_281
	.align	16, 0x90
.LBB0_284:                              # %while.end.i601
                                        #   in Loop: Header=BB0_277 Depth=1
	movl	$247, %edi
	callq	_StraightTaint_log
	testl	%r15d, %r15d
	je	.LBB0_292
# BB#285:                               # %if.end42.i
                                        #   in Loop: Header=BB0_277 Depth=1
	movl	$248, %edi
	callq	_StraightTaint_log
	movl	$.L.str57, %esi
	xorl	%eax, %eax
	movq	%r13, %rdi
	movq	%rbp, %rdx
	leaq	14528(%rsp), %rcx
	leaq	14536(%rsp), %r8
	callq	__isoc99_sscanf
	cmpl	$3, %eax
	je	.LBB0_288
# BB#286:                               # %if.else.i602
                                        #   in Loop: Header=BB0_277 Depth=1
	movl	$249, %edi
	callq	_StraightTaint_log
	movl	$.L.str58, %esi
	xorl	%eax, %eax
	movq	%r13, %rdi
	movq	%rbp, %rdx
	leaq	14536(%rsp), %rcx
	callq	__isoc99_sscanf
	cmpl	$2, %eax
	jne	.LBB0_291
# BB#287:                               # %if.then54.i
                                        #   in Loop: Header=BB0_277 Depth=1
	movl	$250, %edi
	callq	_StraightTaint_log
	movq	$0, 14528(%rsp)
.LBB0_288:                              # %if.end60.i
                                        #   in Loop: Header=BB0_277 Depth=1
	movl	$253, %edi
	callq	_StraightTaint_log
	movzbl	14544(%rsp), %eax
	cmpl	$47, %eax
	jne	.LBB0_290
# BB#289:                               # %if.then65.i
                                        #   in Loop: Header=BB0_277 Depth=1
	movl	$254, %edi
	callq	_StraightTaint_log
	movq	%rbp, %rdi
	leaq	14545(%rsp), %rsi
	callq	strcpy
.LBB0_290:                              # %while.cond70.preheader.i
                                        #   in Loop: Header=BB0_277 Depth=1
	movl	$255, %edi
	callq	_StraightTaint_log
	jmp	.LBB0_298
	.align	16, 0x90
.LBB0_297:                              # %while.body75.i
                                        #   in Loop: Header=BB0_298 Depth=2
	movl	$256, %edi              # imm = 0x100
	callq	_StraightTaint_log
	leaq	1(%rbx), %rdi
	addq	$2, %rbx
	movq	%rbx, %rsi
	callq	strcpy
.LBB0_298:                              # %while.body75.i
                                        #   Parent Loop BB0_277 Depth=1
                                        # =>  This Inner Loop Header: Depth=2
	movl	$.L.str61, %esi
	movq	%rbp, %rdi
	callq	strstr
	movq	%rax, %rbx
	testq	%rbx, %rbx
	jne	.LBB0_297
# BB#299:                               # %while.end78.i
                                        #   in Loop: Header=BB0_277 Depth=1
	movl	$257, %edi              # imm = 0x101
	callq	_StraightTaint_log
	movl	numthrottles(%rip), %eax
	movl	maxthrottles(%rip), %ebx
	cmpl	%ebx, %eax
	jl	.LBB0_305
# BB#300:                               # %if.then81.i
                                        #   in Loop: Header=BB0_277 Depth=1
	movl	$258, %edi              # imm = 0x102
	callq	_StraightTaint_log
	testl	%ebx, %ebx
	jne	.LBB0_302
# BB#301:                               # %if.then84.i
                                        #   in Loop: Header=BB0_277 Depth=1
	movl	$259, %edi              # imm = 0x103
	callq	_StraightTaint_log
	movl	$100, maxthrottles(%rip)
	movl	$4800, %edi             # imm = 0x12C0
	callq	malloc
	jmp	.LBB0_303
.LBB0_302:                              # %if.else87.i
                                        #   in Loop: Header=BB0_277 Depth=1
	movl	$260, %edi              # imm = 0x104
	callq	_StraightTaint_log
	addl	%ebx, %ebx
	movl	%ebx, maxthrottles(%rip)
	movq	throttles(%rip), %rdi
	movslq	%ebx, %rax
	shlq	$4, %rax
	leaq	(%rax,%rax,2), %rsi
	callq	realloc
.LBB0_303:                              # %if.end92.i
                                        #   in Loop: Header=BB0_277 Depth=1
	movq	%rax, %rbx
	movl	$261, %edi              # imm = 0x105
	callq	_StraightTaint_log
	testq	%rbx, %rbx
	movq	%rbx, throttles(%rip)
	je	.LBB0_304
.LBB0_305:                              # %if.end98.i
                                        #   in Loop: Header=BB0_277 Depth=1
	movl	$263, %edi              # imm = 0x107
	callq	_StraightTaint_log
	movq	%rbp, %rdi
	callq	__strdup
	movq	%rax, %rbx
	testq	%rbx, %rbx
	je	.LBB0_306
# BB#307:                               # %e_strdup.exit.i
                                        #   in Loop: Header=BB0_277 Depth=1
	movl	$265, %edi              # imm = 0x109
	callq	_StraightTaint_log
	movslq	numthrottles(%rip), %rax
	movq	throttles(%rip), %rcx
	movq	%rax, %rdx
	shlq	$4, %rdx
	leaq	(%rdx,%rdx,2), %rdx
	movq	%rbx, (%rcx,%rdx)
	movq	14536(%rsp), %rcx
	movq	throttles(%rip), %rsi
	movq	%rcx, 8(%rsi,%rdx)
	movq	14528(%rsp), %rcx
	movq	%rcx, 16(%rsi,%rdx)
	xorps	%xmm0, %xmm0
	movups	%xmm0, 24(%rsi,%rdx)
	movl	$0, 40(%rsi,%rdx)
	leal	1(%rax), %eax
	movl	%eax, numthrottles(%rip)
.LBB0_292:                              # %while.cond.backedge.i
                                        #   in Loop: Header=BB0_277 Depth=1
	movl	$252, %edi
	callq	_StraightTaint_log
	movl	$5000, %esi             # imm = 0x1388
	movq	%r13, %rdi
	movq	%r12, %rdx
	callq	fgets
	testq	%rax, %rax
	jne	.LBB0_277
.LBB0_293:                              # %read_throttlefile.exit
	movl	$266, %edi              # imm = 0x10A
	callq	_StraightTaint_log
	movq	%r12, %rdi
	callq	fclose
	movl	120(%rsp), %r12d        # 4-byte Reload
.LBB0_294:                              # %if.end7
	movl	$267, %edi              # imm = 0x10B
	callq	_StraightTaint_log
	callq	getuid
	testl	%eax, %eax
	movl	$32767, %r15d           # imm = 0x7FFF
	movl	$32767, %eax            # imm = 0x7FFF
	jne	.LBB0_309
# BB#295:                               # %if.then10
	movl	$268, %edi              # imm = 0x10C
	callq	_StraightTaint_log
	movq	user(%rip), %rdi
	callq	getpwnam
	movq	%rax, %rbx
	testq	%rbx, %rbx
	je	.LBB0_296
# BB#308:                               # %if.end15
	movl	$270, %edi              # imm = 0x10E
	callq	_StraightTaint_log
	movl	16(%rbx), %eax
	movl	20(%rbx), %r15d
.LBB0_309:                              # %if.end16
	movl	%eax, 96(%rsp)          # 4-byte Spill
	movl	$271, %edi              # imm = 0x10F
	callq	_StraightTaint_log
	movq	logfile(%rip), %rbp
	xorl	%r13d, %r13d
	testq	%rbp, %rbp
	je	.LBB0_322
# BB#310:                               # %cond.false
	movl	$272, %edi              # imm = 0x110
	callq	_StraightTaint_log
	movl	$.L.str4, %esi
	movq	%rbp, %rdi
	callq	strcmp
	testl	%eax, %eax
	je	.LBB0_311
# BB#312:                               # %cond.true71
	movl	$274, %edi              # imm = 0x112
	callq	_StraightTaint_log
	movzbl	(%rbp), %eax
	cmpl	$45, %eax
	jne	.LBB0_315
# BB#313:                               # %cond.end116
	movl	$275, %edi              # imm = 0x113
	callq	_StraightTaint_log
	cmpb	$0, 1(%rbp)
	je	.LBB0_314
.LBB0_315:                              # %if.else121
	movl	$277, %edi              # imm = 0x115
	callq	_StraightTaint_log
	movl	$20149999, %edi         # imm = 0x13376EF
	xorl	%esi, %esi
	callq	kill
	movl	$.L.str6, %esi
	movq	%rbp, %rdi
	callq	fopen
	movq	%rax, %r13
	testq	%r13, %r13
	movq	logfile(%rip), %rbx
	je	.LBB0_316
# BB#317:                               # %if.end126
	movl	$279, %edi              # imm = 0x117
	callq	_StraightTaint_log
	movzbl	(%rbx), %eax
	cmpl	$47, %eax
	jne	.LBB0_318
.LBB0_319:                              # %if.end133
	movl	$281, %edi              # imm = 0x119
	callq	_StraightTaint_log
	movq	%r13, %rdi
	callq	fileno
	movl	%eax, %ecx
	movl	$2, %esi
	movl	$1, %edx
	xorl	%eax, %eax
	movl	%ecx, %edi
	callq	fcntl
	callq	getuid
	testl	%eax, %eax
	jne	.LBB0_322
# BB#320:                               # %if.then139
	movl	$282, %edi              # imm = 0x11A
	callq	_StraightTaint_log
	movq	%r13, %rdi
	callq	fileno
	movl	%eax, %edi
	movl	96(%rsp), %esi          # 4-byte Reload
	movl	%r15d, %edx
	callq	fchown
	testl	%eax, %eax
	jns	.LBB0_322
# BB#321:                               # %if.then144
	movl	$283, %edi              # imm = 0x11B
	callq	_StraightTaint_log
	movl	$4, %edi
	movl	$.L.str10, %esi
	xorl	%eax, %eax
	callq	syslog
	movl	$.L.str11, %edi
	callq	perror
	jmp	.LBB0_322
.LBB0_311:                              # %if.then61
	movl	$273, %edi              # imm = 0x111
	callq	_StraightTaint_log
	movb	$1, no_log(%rip)
	xorl	%r13d, %r13d
	jmp	.LBB0_322
.LBB0_314:                              # %if.then120
	movl	$276, %edi              # imm = 0x114
	callq	_StraightTaint_log
	movq	stdout(%rip), %r13
.LBB0_322:                              # %if.end150
	movl	$284, %edi              # imm = 0x11C
	callq	_StraightTaint_log
	movq	dir(%rip), %rbx
	testq	%rbx, %rbx
	je	.LBB0_325
# BB#323:                               # %if.then153
	movl	$285, %edi              # imm = 0x11D
	callq	_StraightTaint_log
	movq	%rbx, %rdi
	callq	chdir
	testl	%eax, %eax
	js	.LBB0_324
.LBB0_325:                              # %if.end159
	movl	$287, %edi              # imm = 0x11F
	callq	_StraightTaint_log
	leaq	400(%rsp), %rbx
	movl	$4096, %esi             # imm = 0x1000
	movq	%rbx, %rdi
	callq	getcwd
	movq	%rbx, %rdi
	callq	strlen
	movzbl	-1(%rax,%rbx), %eax
	cmpl	$47, %eax
	je	.LBB0_327
# BB#326:                               # %if.then168
	movl	$288, %edi              # imm = 0x120
	callq	_StraightTaint_log
	leaq	400(%rsp), %rdi
	callq	strlen
	movw	$47, 400(%rsp,%rax)
.LBB0_327:                              # %if.end171
	movl	$289, %edi              # imm = 0x121
	callq	_StraightTaint_log
	movb	debug(%rip), %al
	testb	%al, %al
	je	.LBB0_328
# BB#332:                               # %if.else186
	movl	$294, %edi              # imm = 0x126
	callq	_StraightTaint_log
	callq	setsid
	jmp	.LBB0_333
.LBB0_328:                              # %if.then173
	movl	$290, %edi              # imm = 0x122
	callq	_StraightTaint_log
	movq	stdin(%rip), %rdi
	callq	fclose
	movq	stdout(%rip), %rbx
	cmpq	%rbx, %r13
	je	.LBB0_330
# BB#329:                               # %if.then177
	movl	$291, %edi              # imm = 0x123
	callq	_StraightTaint_log
	movq	%rbx, %rdi
	callq	fclose
.LBB0_330:                              # %if.end179
	movl	$292, %edi              # imm = 0x124
	callq	_StraightTaint_log
	movq	stderr(%rip), %rdi
	callq	fclose
	movl	$1, %edi
	movl	$1, %esi
	callq	daemon
	testl	%eax, %eax
	js	.LBB0_331
.LBB0_333:                              # %if.end188
	movq	%r13, 120(%rsp)         # 8-byte Spill
	movl	%r15d, 112(%rsp)        # 4-byte Spill
	movl	$295, %edi              # imm = 0x127
	callq	_StraightTaint_log
	movq	pidfile(%rip), %rbp
	testq	%rbp, %rbp
	je	.LBB0_336
# BB#334:                               # %if.then191
	movl	$296, %edi              # imm = 0x128
	callq	_StraightTaint_log
	movl	$20149999, %edi         # imm = 0x13376EF
	xorl	%esi, %esi
	callq	kill
	movl	$.L.str16, %esi
	movq	%rbp, %rdi
	callq	fopen
	movq	%rax, %rbp
	testq	%rbp, %rbp
	je	.LBB0_529
# BB#335:                               # %if.end197
	movl	$298, %edi              # imm = 0x12A
	callq	_StraightTaint_log
	callq	getpid
	movl	%eax, %ecx
	movl	$.L.str17, %esi
	xorl	%eax, %eax
	movq	%rbp, %rdi
	movl	%ecx, %edx
	callq	fprintf
	movq	%rbp, %rdi
	callq	fclose
.LBB0_336:                              # %if.end201
	movl	$299, %edi              # imm = 0x12B
	callq	_StraightTaint_log
	callq	fdwatch_get_nfiles
	movl	%eax, %ebx
	testl	%ebx, %ebx
	movl	%ebx, max_connects(%rip)
	js	.LBB0_337
# BB#338:                               # %if.end206
	movl	$301, %edi              # imm = 0x12D
	callq	_StraightTaint_log
	addl	$-10, %ebx
	movl	%ebx, max_connects(%rip)
	movzbl	do_chroot(%rip), %eax
	cmpl	$1, %eax
	jne	.LBB0_349
# BB#339:                               # %if.then209
	movl	$302, %edi              # imm = 0x12E
	callq	_StraightTaint_log
	leaq	400(%rsp), %rdi
	callq	chroot
	testl	%eax, %eax
	js	.LBB0_340
# BB#341:                               # %if.end215
	movl	$304, %edi              # imm = 0x130
	callq	_StraightTaint_log
	movq	logfile(%rip), %rbp
	testq	%rbp, %rbp
	je	.LBB0_347
# BB#342:                               # %cond.true227
	movl	$305, %edi              # imm = 0x131
	callq	_StraightTaint_log
	movzbl	(%rbp), %eax
	cmpl	$45, %eax
	jne	.LBB0_344
# BB#343:                               # %cond.end272
	movl	$306, %edi              # imm = 0x132
	callq	_StraightTaint_log
	cmpb	$0, 1(%rbp)
	je	.LBB0_347
.LBB0_344:                              # %if.then276
	movl	$307, %edi              # imm = 0x133
	callq	_StraightTaint_log
	leaq	400(%rsp), %r15
	movq	%r15, %rdi
	callq	strlen
	movq	%rax, %rbx
	movq	%rbp, %rdi
	movq	%r15, %rsi
	movq	%rbx, %rdx
	callq	strncmp
	testl	%eax, %eax
	jne	.LBB0_346
# BB#345:                               # %if.then283
	movl	$308, %edi              # imm = 0x134
	callq	_StraightTaint_log
	leaq	-1(%rbx,%rbp), %rsi
	movq	%rbp, %rdi
	callq	strcpy
.LBB0_347:                              # %if.end292
	movl	$310, %edi              # imm = 0x136
	callq	_StraightTaint_log
	movw	$47, 400(%rsp)
	leaq	400(%rsp), %rdi
	callq	chdir
	testl	%eax, %eax
	js	.LBB0_348
.LBB0_349:                              # %if.end301
	movl	$312, %edi              # imm = 0x138
	callq	_StraightTaint_log
	movq	data_dir(%rip), %rbx
	testq	%rbx, %rbx
	je	.LBB0_352
# BB#350:                               # %if.then304
	movl	$313, %edi              # imm = 0x139
	callq	_StraightTaint_log
	movq	%rbx, %rdi
	callq	chdir
	testl	%eax, %eax
	js	.LBB0_351
.LBB0_352:                              # %if.end310
	movl	$315, %edi              # imm = 0x13B
	callq	_StraightTaint_log
	xorl	%ebx, %ebx
	movl	$15, %edi
	movl	$handle_term, %esi
	xorl	%eax, %eax
	callq	sigset
	movl	$2, %edi
	movl	$handle_term, %esi
	xorl	%eax, %eax
	callq	sigset
	movl	$17, %edi
	movl	$handle_chld, %esi
	xorl	%eax, %eax
	callq	sigset
	movl	$13, %edi
	movl	$1, %esi
	xorl	%eax, %eax
	callq	sigset
	movl	$1, %edi
	movl	$handle_hup, %esi
	xorl	%eax, %eax
	callq	sigset
	movl	$10, %edi
	movl	$handle_usr1, %esi
	xorl	%eax, %eax
	callq	sigset
	movl	$12, %edi
	movl	$handle_usr2, %esi
	xorl	%eax, %eax
	callq	sigset
	movl	$14, %edi
	movl	$handle_alrm, %esi
	xorl	%eax, %eax
	callq	sigset
	movl	$0, got_hup(%rip)
	movl	$0, got_usr1(%rip)
	movl	$0, watchdog_flag(%rip)
	movl	$360, %edi              # imm = 0x168
	callq	alarm
	callq	tmr_init
	movq	hostname(%rip), %rax
	movq	%rax, 104(%rsp)         # 8-byte Spill
	testl	%r12d, %r12d
	leaq	272(%rsp), %rsi
	cmoveq	%rbx, %rsi
	testl	%r14d, %r14d
	leaq	144(%rsp), %rdx
	cmoveq	%rbx, %rdx
	movq	cgi_pattern(%rip), %r8
	movl	cgi_limit(%rip), %r9d
	movq	charset(%rip), %rdi
	movq	p3p(%rip), %r11
	movl	max_age(%rip), %r14d
	movzbl	no_log(%rip), %r15d
	movl	no_symlink_check(%rip), %ebp
	movzbl	do_vhost(%rip), %ebx
	movzbl	do_global_passwd(%rip), %ecx
	movq	url_pattern(%rip), %r12
	movq	local_pattern(%rip), %r13
	movzbl	no_empty_referers(%rip), %eax
	movzwl	port(%rip), %r10d
	movl	%eax, 88(%rsp)
	movq	%r13, 80(%rsp)
	movq	%r12, 72(%rsp)
	movl	%ecx, 64(%rsp)
	movl	%ebx, 56(%rsp)
	movl	%ebp, 48(%rsp)
	movq	120(%rsp), %rax         # 8-byte Reload
	movq	%rax, 40(%rsp)
	movl	%r15d, 32(%rsp)
	leaq	400(%rsp), %rax
	movq	%rax, 24(%rsp)
	movl	%r14d, 16(%rsp)
	movq	%r11, 8(%rsp)
	movq	%rdi, (%rsp)
	movq	104(%rsp), %rdi         # 8-byte Reload
	movl	%r10d, %ecx
	callq	httpd_initialize
	testq	%rax, %rax
	movq	%rax, hs(%rip)
	je	.LBB0_530
# BB#353:                               # %if.end335
	movl	$317, %edi              # imm = 0x13D
	callq	_StraightTaint_log
	movq	JunkClientData(%rip), %rdx
	xorl	%edi, %edi
	movl	$occasional, %esi
	movl	$120000, %ecx           # imm = 0x1D4C0
	movl	$1, %r8d
	callq	tmr_create
	testq	%rax, %rax
	movl	112(%rsp), %ebx         # 4-byte Reload
	je	.LBB0_354
# BB#355:                               # %if.end340
	movl	$319, %edi              # imm = 0x13F
	callq	_StraightTaint_log
	movq	JunkClientData(%rip), %rdx
	xorl	%edi, %edi
	movl	$idle, %esi
	movl	$5000, %ecx             # imm = 0x1388
	movl	$1, %r8d
	callq	tmr_create
	testq	%rax, %rax
	je	.LBB0_356
# BB#357:                               # %if.end345
	movl	$321, %edi              # imm = 0x141
	callq	_StraightTaint_log
	cmpl	$0, numthrottles(%rip)
	jle	.LBB0_360
# BB#358:                               # %if.then348
	movl	$322, %edi              # imm = 0x142
	callq	_StraightTaint_log
	movq	JunkClientData(%rip), %rdx
	xorl	%edi, %edi
	movl	$update_throttles, %esi
	movl	$2000, %ecx             # imm = 0x7D0
	movl	$1, %r8d
	callq	tmr_create
	testq	%rax, %rax
	je	.LBB0_359
.LBB0_360:                              # %if.end354
	movl	$324, %edi              # imm = 0x144
	callq	_StraightTaint_log
	movq	JunkClientData(%rip), %rdx
	xorl	%edi, %edi
	movl	$show_stats, %esi
	movl	$3600000, %ecx          # imm = 0x36EE80
	movl	$1, %r8d
	callq	tmr_create
	testq	%rax, %rax
	je	.LBB0_361
# BB#362:                               # %if.end359
	movl	$326, %edi              # imm = 0x146
	callq	_StraightTaint_log
	xorl	%edi, %edi
	callq	time
	movq	%rax, stats_time(%rip)
	movq	%rax, start_time(%rip)
	movq	$0, stats_connections(%rip)
	movq	$0, stats_bytes(%rip)
	movl	$0, stats_simultaneous(%rip)
	callq	getuid
	testl	%eax, %eax
	jne	.LBB0_373
# BB#363:                               # %if.then364
	movl	$327, %edi              # imm = 0x147
	callq	_StraightTaint_log
	xorl	%edi, %edi
	xorl	%esi, %esi
	callq	setgroups
	testl	%eax, %eax
	js	.LBB0_364
# BB#365:                               # %if.end369
	movl	$329, %edi              # imm = 0x149
	callq	_StraightTaint_log
	movl	%ebx, %edi
	callq	setgid
	testl	%eax, %eax
	js	.LBB0_366
# BB#367:                               # %if.end374
	movl	$331, %edi              # imm = 0x14B
	callq	_StraightTaint_log
	movq	user(%rip), %rdi
	movl	%ebx, %esi
	callq	initgroups
	testl	%eax, %eax
	jns	.LBB0_369
# BB#368:                               # %if.then378
	movl	$332, %edi              # imm = 0x14C
	callq	_StraightTaint_log
	movl	$4, %edi
	movl	$.L.str33, %esi
	xorl	%eax, %eax
	callq	syslog
.LBB0_369:                              # %if.end379
	movl	$333, %edi              # imm = 0x14D
	callq	_StraightTaint_log
	movl	96(%rsp), %edi          # 4-byte Reload
	callq	setuid
	testl	%eax, %eax
	js	.LBB0_370
# BB#371:                               # %if.end384
	movl	$335, %edi              # imm = 0x14F
	callq	_StraightTaint_log
	movb	do_chroot(%rip), %al
	testb	%al, %al
	jne	.LBB0_373
# BB#372:                               # %if.then386
	movl	$336, %edi              # imm = 0x150
	callq	_StraightTaint_log
	movl	$4, %edi
	movl	$.L.str35, %esi
	xorl	%eax, %eax
	callq	syslog
.LBB0_373:                              # %if.end388
	movl	$337, %edi              # imm = 0x151
	callq	_StraightTaint_log
	movslq	max_connects(%rip), %r14
	movq	%r14, %rax
	shlq	$4, %rax
	leaq	(%rax,%rax,8), %rdi
	callq	malloc
	movq	%rax, %r15
	testq	%r15, %r15
	movq	%r15, connects(%rip)
	je	.LBB0_531
# BB#374:                               # %for.cond.preheader
	movl	$338, %edi              # imm = 0x152
	callq	_StraightTaint_log
	movl	$8, %ebp
	testl	%r14d, %r14d
	jle	.LBB0_377
# BB#375:
	xorl	%ebx, %ebx
	.align	16, 0x90
.LBB0_376:                              # %for.body
                                        # =>This Inner Loop Header: Depth=1
	movl	$340, %edi              # imm = 0x154
	callq	_StraightTaint_log
	movl	$0, -8(%r15,%rbp)
	incl	%ebx
	movl	%ebx, -4(%r15,%rbp)
	movq	$0, (%r15,%rbp)
	movl	max_connects(%rip), %r14d
	addq	$144, %rbp
	cmpl	%r14d, %ebx
	movq	connects(%rip), %r15
	jl	.LBB0_376
.LBB0_377:                              # %for.end
	movl	$341, %edi              # imm = 0x155
	callq	_StraightTaint_log
	decl	%r14d
	movslq	%r14d, %rax
	leaq	(%rax,%rax,8), %rax
	shlq	$4, %rax
	movl	$-1, 4(%r15,%rax)
	movl	$0, first_free_connect(%rip)
	movl	$0, num_connects(%rip)
	movl	$0, httpd_conn_count(%rip)
	movq	hs(%rip), %rbp
	testq	%rbp, %rbp
	je	.LBB0_382
# BB#378:                               # %if.then409
	movl	$342, %edi              # imm = 0x156
	callq	_StraightTaint_log
	movl	72(%rbp), %ebx
	cmpl	$-1, %ebx
	je	.LBB0_380
# BB#379:                               # %if.then412
	movl	$343, %edi              # imm = 0x157
	callq	_StraightTaint_log
	xorl	%esi, %esi
	xorl	%edx, %edx
	movl	%ebx, %edi
	callq	fdwatch_add_fd
	movq	hs(%rip), %rbp
.LBB0_380:                              # %if.end414
	movl	$344, %edi              # imm = 0x158
	callq	_StraightTaint_log
	movl	76(%rbp), %ebx
	cmpl	$-1, %ebx
	je	.LBB0_382
# BB#381:                               # %if.then417
	movl	$345, %edi              # imm = 0x159
	callq	_StraightTaint_log
	xorl	%esi, %esi
	xorl	%edx, %edx
	movl	%ebx, %edi
	callq	fdwatch_add_fd
.LBB0_382:                              # %if.end420
	movl	$346, %edi              # imm = 0x15A
	callq	_StraightTaint_log
	leaq	128(%rsp), %rdi
	xorl	%esi, %esi
	callq	gettimeofday
	cmpl	$0, terminate(%rip)
	jne	.LBB0_383
.LBB0_384:                              # %while.body.lr.ph
	movl	$347, %edi              # imm = 0x15B
	callq	_StraightTaint_log
	leaq	128(%rsp), %r12
	leaq	19584(%rsp), %r15
	.align	16, 0x90
.LBB0_385:                              # %while.body
                                        # =>This Loop Header: Depth=1
                                        #     Child Loop BB0_411 Depth 2
                                        #       Child Loop BB0_441 Depth 3
                                        #       Child Loop BB0_465 Depth 3
                                        #       Child Loop BB0_499 Depth 3
	movl	$348, %edi              # imm = 0x15C
	callq	_StraightTaint_log
	cmpl	$0, got_hup(%rip)
	je	.LBB0_394
# BB#386:                               # %if.then426
                                        #   in Loop: Header=BB0_385 Depth=1
	movl	$349, %edi              # imm = 0x15D
	callq	_StraightTaint_log
	cmpq	$0, hs(%rip)
	setne	%al
	movq	logfile(%rip), %rbx
	testq	%rbx, %rbx
	je	.LBB0_393
# BB#387:                               # %if.then426
                                        #   in Loop: Header=BB0_385 Depth=1
	movb	no_log(%rip), %cl
	notb	%cl
	andb	%al, %cl
	je	.LBB0_393
# BB#388:                               # %cond.true.i
                                        #   in Loop: Header=BB0_385 Depth=1
	movl	$350, %edi              # imm = 0x15E
	callq	_StraightTaint_log
	movzbl	(%rbx), %eax
	cmpl	$45, %eax
	jne	.LBB0_390
# BB#389:                               # %cond.end.i612
                                        #   in Loop: Header=BB0_385 Depth=1
	movl	$351, %edi              # imm = 0x15F
	callq	_StraightTaint_log
	cmpb	$0, 1(%rbx)
	je	.LBB0_393
.LBB0_390:                              # %if.then43.i
                                        #   in Loop: Header=BB0_385 Depth=1
	movl	$352, %edi              # imm = 0x160
	callq	_StraightTaint_log
	movl	$5, %edi
	movl	$.L.str128, %esi
	xorl	%eax, %eax
	callq	syslog
	movq	logfile(%rip), %rbx
	movl	$20149999, %edi         # imm = 0x13376EF
	xorl	%esi, %esi
	callq	kill
	movl	$.L.str6, %esi
	movq	%rbx, %rdi
	callq	fopen
	movq	%rax, %rbx
	testq	%rbx, %rbx
	jne	.LBB0_392
# BB#391:                               # %if.then47.i
                                        #   in Loop: Header=BB0_385 Depth=1
	movl	$353, %edi              # imm = 0x161
	callq	_StraightTaint_log
	movq	logfile(%rip), %rdx
	movl	$2, %edi
	movl	$.L.str129, %esi
	xorl	%eax, %eax
	callq	syslog
	jmp	.LBB0_393
.LBB0_392:                              # %if.end48.i
                                        #   in Loop: Header=BB0_385 Depth=1
	movl	$354, %edi              # imm = 0x162
	callq	_StraightTaint_log
	movq	%rbx, %rdi
	callq	fileno
	movl	%eax, %ecx
	movl	$2, %esi
	movl	$1, %edx
	xorl	%eax, %eax
	movl	%ecx, %edi
	callq	fcntl
	movq	hs(%rip), %rdi
	movq	%rbx, %rsi
	callq	httpd_set_logfp
	.align	16, 0x90
.LBB0_393:                              # %re_open_logfile.exit
                                        #   in Loop: Header=BB0_385 Depth=1
	movl	$355, %edi              # imm = 0x163
	callq	_StraightTaint_log
	movl	$0, got_hup(%rip)
.LBB0_394:                              # %if.end427
                                        #   in Loop: Header=BB0_385 Depth=1
	movl	$356, %edi              # imm = 0x164
	callq	_StraightTaint_log
	movq	%r12, %rdi
	callq	tmr_mstimeout
	movq	%rax, %rdi
	callq	fdwatch
	movl	%eax, %ebx
	testl	%ebx, %ebx
	jns	.LBB0_398
# BB#395:                               # %if.then432
                                        #   in Loop: Header=BB0_385 Depth=1
	movl	$357, %edi              # imm = 0x165
	callq	_StraightTaint_log
	callq	__errno_location
	movl	(%rax), %eax
	cmpl	$4, %eax
	je	.LBB0_400
# BB#396:                               # %if.then432
                                        #   in Loop: Header=BB0_385 Depth=1
	cmpl	$11, %eax
	je	.LBB0_400
	jmp	.LBB0_397
	.align	16, 0x90
.LBB0_398:                              # %if.end442
                                        #   in Loop: Header=BB0_385 Depth=1
	movl	$359, %edi              # imm = 0x167
	callq	_StraightTaint_log
	xorl	%esi, %esi
	movq	%r12, %rdi
	callq	gettimeofday
	testl	%ebx, %ebx
	jne	.LBB0_403
# BB#399:                               # %if.then446
                                        #   in Loop: Header=BB0_385 Depth=1
	movl	$360, %edi              # imm = 0x168
	callq	_StraightTaint_log
	movq	%r12, %rdi
	callq	tmr_run
	jmp	.LBB0_400
	.align	16, 0x90
.LBB0_403:                              # %if.end447
                                        #   in Loop: Header=BB0_385 Depth=1
	movl	$362, %edi              # imm = 0x16A
	callq	_StraightTaint_log
	movq	hs(%rip), %rbx
	testq	%rbx, %rbx
	je	.LBB0_411
# BB#404:                               # %land.lhs.true450
                                        #   in Loop: Header=BB0_385 Depth=1
	movl	$363, %edi              # imm = 0x16B
	callq	_StraightTaint_log
	movl	76(%rbx), %ebx
	cmpl	$-1, %ebx
	je	.LBB0_407
# BB#405:                               # %land.lhs.true454
                                        #   in Loop: Header=BB0_385 Depth=1
	movl	$364, %edi              # imm = 0x16C
	callq	_StraightTaint_log
	movl	%ebx, %edi
	callq	fdwatch_check_fd
	testl	%eax, %eax
	je	.LBB0_407
# BB#406:                               # %if.then458
                                        #   in Loop: Header=BB0_385 Depth=1
	movl	$365, %edi              # imm = 0x16D
	callq	_StraightTaint_log
	movq	hs(%rip), %rax
	movl	76(%rax), %esi
	movq	%r12, %rdi
	callq	handle_newconnect
	testl	%eax, %eax
	jne	.LBB0_400
.LBB0_407:                              # %if.end464
                                        #   in Loop: Header=BB0_385 Depth=1
	movl	$366, %edi              # imm = 0x16E
	callq	_StraightTaint_log
	movq	hs(%rip), %rbx
	testq	%rbx, %rbx
	je	.LBB0_411
# BB#408:                               # %land.lhs.true467
                                        #   in Loop: Header=BB0_385 Depth=1
	movl	$367, %edi              # imm = 0x16F
	callq	_StraightTaint_log
	movl	72(%rbx), %ebx
	cmpl	$-1, %ebx
	je	.LBB0_411
# BB#409:                               # %land.lhs.true471
                                        #   in Loop: Header=BB0_385 Depth=1
	movl	$368, %edi              # imm = 0x170
	callq	_StraightTaint_log
	movl	%ebx, %edi
	callq	fdwatch_check_fd
	testl	%eax, %eax
	je	.LBB0_411
# BB#410:                               # %if.then475
                                        #   in Loop: Header=BB0_385 Depth=1
	movl	$369, %edi              # imm = 0x171
	callq	_StraightTaint_log
	movq	hs(%rip), %rax
	movl	72(%rax), %esi
	movq	%r12, %rdi
	callq	handle_newconnect
	testl	%eax, %eax
	jne	.LBB0_400
	jmp	.LBB0_411
.LBB0_416:                              # %while.cond482
                                        #   in Loop: Header=BB0_411 Depth=2
	movq	%rbp, %rdi
	movq	%r12, %rsi
	callq	clear_connection
	.align	16, 0x90
.LBB0_411:                              # %while.cond482
                                        #   Parent Loop BB0_385 Depth=1
                                        # =>  This Loop Header: Depth=2
                                        #       Child Loop BB0_441 Depth 3
                                        #       Child Loop BB0_465 Depth 3
                                        #       Child Loop BB0_499 Depth 3
	movl	$370, %edi              # imm = 0x172
	callq	_StraightTaint_log
	callq	fdwatch_get_next_client_data
	movq	%rax, %rbp
	testq	%rbp, %rbp
	je	.LBB0_411
# BB#412:                               # %while.cond482
                                        #   in Loop: Header=BB0_411 Depth=2
	cmpq	$-1, %rbp
	je	.LBB0_519
# BB#413:                               # %if.end490
                                        #   in Loop: Header=BB0_411 Depth=2
	movl	$371, %edi              # imm = 0x173
	callq	_StraightTaint_log
	movq	8(%rbp), %rax
	movl	704(%rax), %edi
	callq	fdwatch_check_fd
	testl	%eax, %eax
	jne	.LBB0_417
# BB#414:                               # %if.then494
                                        #   in Loop: Header=BB0_411 Depth=2
	movl	$372, %edi              # imm = 0x174
.LBB0_415:                              # %while.cond482
                                        #   in Loop: Header=BB0_411 Depth=2
	callq	_StraightTaint_log
	jmp	.LBB0_416
.LBB0_417:                              # %if.else495
                                        #   in Loop: Header=BB0_411 Depth=2
	movl	$373, %edi              # imm = 0x175
	callq	_StraightTaint_log
	movl	(%rbp), %eax
	cmpl	$4, %eax
	je	.LBB0_514
# BB#418:                               # %if.else495
                                        #   in Loop: Header=BB0_411 Depth=2
	cmpl	$2, %eax
	jne	.LBB0_419
# BB#470:                               # %sw.bb497
                                        #   in Loop: Header=BB0_411 Depth=2
	movl	$417, %edi              # imm = 0x1A1
	callq	_StraightTaint_log
	movq	8(%rbp), %r13
	movq	64(%rbp), %r14
	cmpq	$-1, %r14
	movl	$1000000000, %ebx       # imm = 0x3B9ACA00
	je	.LBB0_472
# BB#471:                               # %if.else.i644
                                        #   in Loop: Header=BB0_411 Depth=2
	movl	$418, %edi              # imm = 0x1A2
	callq	_StraightTaint_log
	movq	%r14, %rbx
	sarq	$63, %rbx
	shrq	$62, %rbx
	addq	%r14, %rbx
	sarq	$2, %rbx
.LBB0_472:                              # %if.end.i646
                                        #   in Loop: Header=BB0_411 Depth=2
	movl	$419, %edi              # imm = 0x1A3
	callq	_StraightTaint_log
	movq	472(%r13), %r14
	testq	%r14, %r14
	jne	.LBB0_474
# BB#473:                               # %if.then4.i655
                                        #   in Loop: Header=BB0_411 Depth=2
	movl	$420, %edi              # imm = 0x1A4
	callq	_StraightTaint_log
	movl	704(%r13), %edi
	movq	128(%rbp), %rdx
	movq	136(%rbp), %rsi
	subq	%rsi, %rdx
	addq	712(%r13), %rsi
	cmpq	%rbx, %rdx
	cmovaeq	%rbx, %rdx
	callq	write
	jmp	.LBB0_475
.LBB0_514:                              # %sw.bb498
                                        #   in Loop: Header=BB0_411 Depth=2
	movl	$450, %edi              # imm = 0x1C2
	callq	_StraightTaint_log
	movq	8(%rbp), %rax
	movl	704(%rax), %edi
	movl	$4096, %edx             # imm = 0x1000
	movq	%r15, %rsi
	callq	read
	movq	%rax, %rbx
	testl	%ebx, %ebx
	jns	.LBB0_517
# BB#515:                               # %land.lhs.true.i680
                                        #   in Loop: Header=BB0_411 Depth=2
	movl	$451, %edi              # imm = 0x1C3
	callq	_StraightTaint_log
	callq	__errno_location
	movl	(%rax), %eax
	cmpl	$4, %eax
	je	.LBB0_411
# BB#516:                               # %land.lhs.true.i680
                                        #   in Loop: Header=BB0_411 Depth=2
	cmpl	$11, %eax
	jne	.LBB0_518
	jmp	.LBB0_411
.LBB0_419:                              # %if.else495
                                        #   in Loop: Header=BB0_411 Depth=2
	cmpl	$1, %eax
	jne	.LBB0_411
# BB#420:                               # %sw.bb
                                        #   in Loop: Header=BB0_411 Depth=2
	movq	%r15, %r14
	movl	$374, %edi              # imm = 0x176
	callq	_StraightTaint_log
	movq	8(%rbp), %r13
	movq	152(%r13), %rbx
	movq	160(%r13), %r15
	cmpq	%rbx, %r15
	jae	.LBB0_422
# BB#421:                               # %entry.if.end7_crit_edge.i
                                        #   in Loop: Header=BB0_411 Depth=2
	movl	$375, %edi              # imm = 0x177
	callq	_StraightTaint_log
	jmp	.LBB0_426
.LBB0_474:                              # %if.else10.i
                                        #   in Loop: Header=BB0_411 Depth=2
	movl	$421, %edi              # imm = 0x1A5
	callq	_StraightTaint_log
	movq	368(%r13), %rax
	movq	%rax, 19552(%rsp)
	movq	%r14, 19560(%rsp)
	movq	136(%rbp), %rax
	movq	712(%r13), %rcx
	addq	%rax, %rcx
	movq	%rcx, 19568(%rsp)
	movq	128(%rbp), %rcx
	subq	%rax, %rcx
	cmpq	%rbx, %rcx
	cmovaeq	%rbx, %rcx
	movq	%rcx, 19576(%rsp)
	movl	704(%r13), %edi
	movl	$2, %edx
	leaq	19552(%rsp), %rsi
	callq	writev
.LBB0_475:                              # %if.end36.i
                                        #   in Loop: Header=BB0_411 Depth=2
	movq	%rax, %rbx
	movl	$422, %edi              # imm = 0x1A6
	callq	_StraightTaint_log
	testl	%ebx, %ebx
	jns	.LBB0_482
# BB#476:                               # %land.lhs.true.i
                                        #   in Loop: Header=BB0_411 Depth=2
	movl	$423, %edi              # imm = 0x1A7
	callq	_StraightTaint_log
	callq	__errno_location
	movl	(%rax), %eax
	cmpl	$103, %eax
	jg	.LBB0_481
# BB#477:                               # %land.lhs.true.i
                                        #   in Loop: Header=BB0_411 Depth=2
	cmpl	$31, %eax
	jg	.LBB0_489
# BB#478:                               # %land.lhs.true.i
                                        #   in Loop: Header=BB0_411 Depth=2
	cmpl	$4, %eax
	je	.LBB0_411
# BB#479:                               # %land.lhs.true.i
                                        #   in Loop: Header=BB0_411 Depth=2
	cmpl	$11, %eax
	je	.LBB0_483
# BB#480:                               # %land.lhs.true.i
                                        #   in Loop: Header=BB0_411 Depth=2
	cmpl	$22, %eax
	jne	.LBB0_490
	jmp	.LBB0_491
.LBB0_517:                              # %if.end.i681
                                        #   in Loop: Header=BB0_411 Depth=2
	movl	$452, %edi              # imm = 0x1C4
	callq	_StraightTaint_log
	testl	%ebx, %ebx
	jg	.LBB0_411
.LBB0_518:                              # %if.then10.i
                                        #   in Loop: Header=BB0_411 Depth=2
	movl	$453, %edi              # imm = 0x1C5
	callq	_StraightTaint_log
	movq	%rbp, %rdi
	movq	%r12, %rsi
	callq	really_clear_connection
	jmp	.LBB0_411
.LBB0_482:                              # %if.end43.i657
                                        #   in Loop: Header=BB0_411 Depth=2
	movl	$424, %edi              # imm = 0x1A8
	callq	_StraightTaint_log
	testl	%ebx, %ebx
	jne	.LBB0_492
.LBB0_483:                              # %if.then56.i
                                        #   in Loop: Header=BB0_411 Depth=2
	movl	$425, %edi              # imm = 0x1A9
	callq	_StraightTaint_log
	addq	$100, 112(%rbp)
	movl	$3, (%rbp)
	movl	704(%r13), %edi
	callq	fdwatch_del_fd
	cmpq	$0, 96(%rbp)
	je	.LBB0_485
# BB#484:                               # %if.then60.i
                                        #   in Loop: Header=BB0_411 Depth=2
	movl	$426, %edi              # imm = 0x1AA
	callq	_StraightTaint_log
	movl	$3, %edi
	movl	$.L.str49, %esi
	xorl	%eax, %eax
	callq	syslog
.LBB0_485:                              # %if.end61.i661
                                        #   in Loop: Header=BB0_411 Depth=2
	movl	$427, %edi              # imm = 0x1AB
	callq	_StraightTaint_log
	movq	112(%rbp), %rcx
	movl	$wakeup_connection, %esi
	xorl	%r8d, %r8d
	movq	%r12, %rdi
	movq	%rbp, %rdx
	callq	tmr_create
	testq	%rax, %rax
	movq	%rax, 96(%rbp)
	jne	.LBB0_411
	jmp	.LBB0_486
.LBB0_481:                              # %land.lhs.true.i
                                        #   in Loop: Header=BB0_411 Depth=2
	cmpl	$104, %eax
	jne	.LBB0_490
	jmp	.LBB0_491
.LBB0_492:                              # %if.end87.i
                                        #   in Loop: Header=BB0_411 Depth=2
	movl	$431, %edi              # imm = 0x1AF
	callq	_StraightTaint_log
	movq	128(%rsp), %rax
	movq	%rax, 88(%rbp)
	movq	472(%r13), %r12
	testq	%r12, %r12
	je	.LBB0_496
# BB#493:                               # %if.then91.i
                                        #   in Loop: Header=BB0_411 Depth=2
	movl	$432, %edi              # imm = 0x1B0
	callq	_StraightTaint_log
	movslq	%ebx, %r15
	movq	%r15, %rbx
	subq	%r12, %rbx
	jae	.LBB0_495
# BB#494:                               # %if.then96.i
                                        #   in Loop: Header=BB0_411 Depth=2
	movl	$433, %edi              # imm = 0x1B1
	callq	_StraightTaint_log
	subl	%r15d, %r12d
	movq	368(%r13), %rdi
	addq	%rdi, %r15
	movslq	%r12d, %rbx
	movq	%r15, %rsi
	movq	%rbx, %rdx
	callq	memmove
	movq	%rbx, 472(%r13)
	movq	%r13, 104(%rsp)         # 8-byte Spill
	xorl	%ebx, %ebx
	jmp	.LBB0_497
.LBB0_489:                              # %land.lhs.true.i
                                        #   in Loop: Header=BB0_411 Depth=2
	cmpl	$32, %eax
	je	.LBB0_491
.LBB0_490:                              # %if.then85.i
                                        #   in Loop: Header=BB0_411 Depth=2
	movl	$429, %edi              # imm = 0x1AD
	callq	_StraightTaint_log
	movq	208(%r13), %rdx
	movl	$3, %edi
	movl	$.L.str51, %esi
	xorl	%eax, %eax
	callq	syslog
.LBB0_491:                              # %if.end86.i
                                        #   in Loop: Header=BB0_411 Depth=2
	movl	$430, %edi              # imm = 0x1AE
	jmp	.LBB0_415
.LBB0_422:                              # %if.then.i615
                                        #   in Loop: Header=BB0_411 Depth=2
	movl	$376, %edi              # imm = 0x178
	callq	_StraightTaint_log
	cmpq	$5001, %rbx             # imm = 0x1389
	jb	.LBB0_425
# BB#423:                               # %if.then4.i
                                        #   in Loop: Header=BB0_411 Depth=2
	movl	$377, %edi              # imm = 0x179
	jmp	.LBB0_424
.LBB0_495:                              # %if.else107.i
                                        #   in Loop: Header=BB0_411 Depth=2
	movl	$434, %edi              # imm = 0x1B2
	callq	_StraightTaint_log
	movq	$0, 472(%r13)
.LBB0_496:                              # %if.end114.i
                                        #   in Loop: Header=BB0_411 Depth=2
	movq	%r13, 104(%rsp)         # 8-byte Spill
.LBB0_497:                              # %if.end114.i
                                        #   in Loop: Header=BB0_411 Depth=2
	movl	$435, %edi              # imm = 0x1B3
	callq	_StraightTaint_log
	movslq	%ebx, %r12
	movq	136(%rbp), %rbx
	addq	%r12, %rbx
	movq	%rbx, 136(%rbp)
	movq	8(%rbp), %rcx
	movq	%rcx, 120(%rsp)         # 8-byte Spill
	movq	200(%rcx), %rax
	addq	%r12, %rax
	movq	%rax, 112(%rsp)         # 8-byte Spill
	movq	%rax, 200(%rcx)
	movl	56(%rbp), %r13d
	testl	%r13d, %r13d
	jle	.LBB0_500
# BB#498:                               # %for.body.lr.ph.i667
                                        #   in Loop: Header=BB0_411 Depth=2
	movl	$436, %edi              # imm = 0x1B4
	callq	_StraightTaint_log
	movq	throttles(%rip), %r15
	leaq	16(%rbp), %r14
	.align	16, 0x90
.LBB0_499:                              # %for.body.i671
                                        #   Parent Loop BB0_385 Depth=1
                                        #     Parent Loop BB0_411 Depth=2
                                        # =>    This Inner Loop Header: Depth=3
	movl	$437, %edi              # imm = 0x1B5
	callq	_StraightTaint_log
	movslq	(%r14), %rax
	leaq	(%rax,%rax,2), %rax
	shlq	$4, %rax
	addq	%r12, 32(%r15,%rax)
	addq	$4, %r14
	decl	%r13d
	jne	.LBB0_499
.LBB0_500:                              # %for.end.i672
                                        #   in Loop: Header=BB0_411 Depth=2
	movl	$438, %edi              # imm = 0x1B6
	callq	_StraightTaint_log
	cmpq	128(%rbp), %rbx
	jge	.LBB0_501
# BB#504:                               # %if.end134.i
                                        #   in Loop: Header=BB0_411 Depth=2
	movl	$440, %edi              # imm = 0x1B8
	callq	_StraightTaint_log
	movq	112(%rbp), %rbx
	cmpq	$101, %rbx
	leaq	128(%rsp), %r12
	leaq	19584(%rsp), %r15
	jl	.LBB0_506
# BB#505:                               # %if.then138.i
                                        #   in Loop: Header=BB0_411 Depth=2
	movl	$441, %edi              # imm = 0x1B9
	callq	_StraightTaint_log
	addq	$-100, %rbx
	movq	%rbx, 112(%rbp)
.LBB0_506:                              # %if.end141.i
                                        #   in Loop: Header=BB0_411 Depth=2
	movl	$442, %edi              # imm = 0x1BA
	callq	_StraightTaint_log
	movq	64(%rbp), %r14
	cmpq	$-1, %r14
	je	.LBB0_411
# BB#507:                               # %if.then145.i
                                        #   in Loop: Header=BB0_411 Depth=2
	movl	$443, %edi              # imm = 0x1BB
	callq	_StraightTaint_log
	movq	128(%rsp), %rbx
	subq	80(%rbp), %rbx
	movl	$1, %eax
	cmoveq	%rax, %rbx
	movq	112(%rsp), %rax         # 8-byte Reload
	cqto
	idivq	%rbx
	cmpq	%r14, %rax
	jle	.LBB0_411
# BB#508:                               # %if.then158.i
                                        #   in Loop: Header=BB0_411 Depth=2
	movq	%r15, %r13
	movl	$444, %edi              # imm = 0x1BC
	callq	_StraightTaint_log
	movl	$3, (%rbp)
	movq	104(%rsp), %rax         # 8-byte Reload
	movl	704(%rax), %edi
	callq	fdwatch_del_fd
	movq	8(%rbp), %rax
	movq	200(%rax), %rax
	cqto
	idivq	64(%rbp)
	movq	%rax, %r14
	subq	%rbx, %r14
	cmpq	$0, 96(%rbp)
	je	.LBB0_510
# BB#509:                               # %if.then171.i
                                        #   in Loop: Header=BB0_411 Depth=2
	movl	$445, %edi              # imm = 0x1BD
	callq	_StraightTaint_log
	movl	$3, %edi
	movl	$.L.str49, %esi
	xorl	%eax, %eax
	callq	syslog
.LBB0_510:                              # %if.end172.i
                                        #   in Loop: Header=BB0_411 Depth=2
	movl	$446, %edi              # imm = 0x1BE
	callq	_StraightTaint_log
	testl	%r14d, %r14d
	movl	$500, %r15d             # imm = 0x1F4
	jle	.LBB0_512
# BB#511:                               # %cond.true175.i
                                        #   in Loop: Header=BB0_411 Depth=2
	movl	$447, %edi              # imm = 0x1BF
	callq	_StraightTaint_log
	movslq	%r14d, %rax
	imulq	$1000, %rax, %r15       # imm = 0x3E8
.LBB0_512:                              # %cond.end178.i
                                        #   in Loop: Header=BB0_411 Depth=2
	movl	$448, %edi              # imm = 0x1C0
	callq	_StraightTaint_log
	movl	$wakeup_connection, %esi
	xorl	%r8d, %r8d
	movq	%r12, %rdi
	movq	%rbp, %rdx
	movq	%r15, %rcx
	callq	tmr_create
	testq	%rax, %rax
	movq	%rax, 96(%rbp)
	movq	%r13, %r15
	jne	.LBB0_411
	jmp	.LBB0_513
.LBB0_501:                              # %if.then133.i
                                        #   in Loop: Header=BB0_411 Depth=2
	movl	$439, %edi              # imm = 0x1B7
	callq	_StraightTaint_log
	movq	120(%rsp), %rdi         # 8-byte Reload
.LBB0_502:                              # %while.cond482
                                        #   in Loop: Header=BB0_411 Depth=2
	callq	httpd_write_response
	movq	%rbp, %rdi
	leaq	128(%rsp), %r12
.LBB0_503:                              # %while.cond482
                                        #   in Loop: Header=BB0_411 Depth=2
	movq	%r12, %rsi
	callq	clear_connection
	leaq	19584(%rsp), %r15
	jmp	.LBB0_411
.LBB0_425:                              # %if.end.i617
                                        #   in Loop: Header=BB0_411 Depth=2
	leaq	152(%r13), %r15
	movl	$378, %edi              # imm = 0x17A
	callq	_StraightTaint_log
	leaq	144(%r13), %rdi
	addq	$1000, %rbx             # imm = 0x3E8
	movq	%r15, %rsi
	movq	%rbx, %rdx
	callq	httpd_realloc_str
	movq	152(%r13), %rbx
	movq	160(%r13), %r15
.LBB0_426:                              # %if.end7.i
                                        #   in Loop: Header=BB0_411 Depth=2
	movl	$379, %edi              # imm = 0x17B
	callq	_StraightTaint_log
	movl	704(%r13), %edi
	subq	%r15, %rbx
	addq	144(%r13), %r15
	movq	%r15, %rsi
	movq	%rbx, %rdx
	callq	read
	movq	%rax, %rbx
	testl	%ebx, %ebx
	jne	.LBB0_428
# BB#427:                               # %if.then14.i
                                        #   in Loop: Header=BB0_411 Depth=2
	movl	$380, %edi              # imm = 0x17C
.LBB0_424:                              # %while.cond482
                                        #   in Loop: Header=BB0_411 Depth=2
	callq	_StraightTaint_log
	movq	httpd_err400title(%rip), %rdx
	movq	httpd_err400form(%rip), %r8
	movl	$400, %esi              # imm = 0x190
	movl	$.L.str42, %ecx
	movl	$.L.str42, %r9d
	movq	%r13, %rdi
	callq	httpd_send_err
	movq	8(%rbp), %rdi
	callq	httpd_write_response
	movq	%rbp, %rdi
	movq	%r12, %rsi
	callq	clear_connection
	movq	%r14, %r15
	jmp	.LBB0_411
.LBB0_428:                              # %if.end15.i
                                        #   in Loop: Header=BB0_411 Depth=2
	movl	$381, %edi              # imm = 0x17D
	callq	_StraightTaint_log
	testl	%ebx, %ebx
	movq	%r14, %r15
	jns	.LBB0_433
# BB#429:                               # %if.then18.i
                                        #   in Loop: Header=BB0_411 Depth=2
	movl	$382, %edi              # imm = 0x17E
	callq	_StraightTaint_log
	callq	__errno_location
	movl	(%rax), %eax
	cmpl	$4, %eax
	je	.LBB0_411
# BB#430:                               # %if.then18.i
                                        #   in Loop: Header=BB0_411 Depth=2
	cmpl	$11, %eax
	je	.LBB0_411
# BB#431:                               # %if.end30.i
                                        #   in Loop: Header=BB0_411 Depth=2
	movl	$383, %edi              # imm = 0x17F
	jmp	.LBB0_432
.LBB0_433:                              # %if.end31.i624
                                        #   in Loop: Header=BB0_411 Depth=2
	movl	$384, %edi              # imm = 0x180
	callq	_StraightTaint_log
	movslq	%ebx, %rax
	addq	%rax, 160(%r13)
	movq	128(%rsp), %rax
	movq	%rax, 88(%rbp)
	movq	%r13, %rdi
	callq	httpd_got_request
	testl	%eax, %eax
	je	.LBB0_411
# BB#434:                               # %if.end31.i624
                                        #   in Loop: Header=BB0_411 Depth=2
	cmpl	$2, %eax
	jne	.LBB0_436
# BB#435:                               # %sw.bb36.i
                                        #   in Loop: Header=BB0_411 Depth=2
	movl	$385, %edi              # imm = 0x181
.LBB0_432:                              # %while.cond482
                                        #   in Loop: Header=BB0_411 Depth=2
	callq	_StraightTaint_log
	movq	httpd_err400title(%rip), %rdx
	movq	httpd_err400form(%rip), %r8
	movl	$400, %esi              # imm = 0x190
	movl	$.L.str42, %ecx
	movl	$.L.str42, %r9d
	movq	%r13, %rdi
	callq	httpd_send_err
	jmp	.LBB0_439
.LBB0_436:                              # %sw.epilog.i
                                        #   in Loop: Header=BB0_411 Depth=2
	movl	$386, %edi              # imm = 0x182
	callq	_StraightTaint_log
	movq	%r13, %rdi
	callq	httpd_parse_request
	testl	%eax, %eax
	jns	.LBB0_440
# BB#437:                               # %if.then40.i626
                                        #   in Loop: Header=BB0_411 Depth=2
	movl	$387, %edi              # imm = 0x183
	jmp	.LBB0_438
.LBB0_440:                              # %if.end41.i
                                        #   in Loop: Header=BB0_411 Depth=2
	movl	$388, %edi              # imm = 0x184
	callq	_StraightTaint_log
	movl	$0, 56(%rbp)
	movq	$-1, 72(%rbp)
	movq	$-1, 64(%rbp)
	cmpl	$0, numthrottles(%rip)
	movl	$1, %ebx
	movl	$0, %r15d
	jle	.LBB0_454
.LBB0_441:                              # %for.body.i.i
                                        #   Parent Loop BB0_385 Depth=1
                                        #     Parent Loop BB0_411 Depth=2
                                        # =>    This Inner Loop Header: Depth=3
	movl	$389, %edi              # imm = 0x185
	callq	_StraightTaint_log
	movq	throttles(%rip), %rax
	movq	(%rax,%r15), %rdi
	movq	8(%rbp), %rax
	movq	240(%rax), %rsi
	callq	match
	testl	%eax, %eax
	je	.LBB0_452
# BB#442:                               # %if.then.i.i628
                                        #   in Loop: Header=BB0_441 Depth=3
	movq	%rbx, 120(%rsp)         # 8-byte Spill
	movl	$390, %edi              # imm = 0x186
	callq	_StraightTaint_log
	movq	throttles(%rip), %r14
	movq	8(%r14,%r15), %rax
	movq	%rax, 112(%rsp)         # 8-byte Spill
	movq	24(%r14,%r15), %rbx
	leaq	(%rax,%rax), %rax
	cmpq	%rax, %rbx
	jg	.LBB0_532
# BB#443:                               # %if.end.i.i
                                        #   in Loop: Header=BB0_441 Depth=3
	movl	$391, %edi              # imm = 0x187
	callq	_StraightTaint_log
	cmpq	16(%r14,%r15), %rbx
	jl	.LBB0_532
# BB#444:                               # %if.end18.i.i
                                        #   in Loop: Header=BB0_441 Depth=3
	movl	$392, %edi              # imm = 0x188
	callq	_StraightTaint_log
	cmpl	$0, 40(%r14,%r15)
	movq	112(%rsp), %rbx         # 8-byte Reload
	jns	.LBB0_446
# BB#445:                               # %if.then22.i.i
                                        #   in Loop: Header=BB0_441 Depth=3
	movl	$393, %edi              # imm = 0x189
	callq	_StraightTaint_log
	movl	$3, %edi
	movl	$.L.str52, %esi
	xorl	%eax, %eax
	callq	syslog
	movq	throttles(%rip), %r14
	movl	$0, 40(%r14,%r15)
	movq	8(%r14,%r15), %rbx
.LBB0_446:                              # %if.end26.i.i
                                        #   in Loop: Header=BB0_441 Depth=3
	movl	$394, %edi              # imm = 0x18A
	callq	_StraightTaint_log
	movslq	56(%rbp), %rax
	leal	1(%rax), %ecx
	movl	%ecx, 56(%rbp)
	movq	120(%rsp), %rcx         # 8-byte Reload
	leal	-1(%rcx), %ecx
	movl	%ecx, 16(%rbp,%rax,4)
	movl	40(%r14,%r15), %eax
	incl	%eax
	movl	%eax, 40(%r14,%r15)
	movslq	%eax, %rcx
	movq	%rbx, %rax
	cqto
	idivq	%rcx
	movq	%rax, %r12
	movq	64(%rbp), %rbx
	cmpq	$-1, %rbx
	je	.LBB0_448
# BB#447:                               # %if.else.i.i629
                                        #   in Loop: Header=BB0_441 Depth=3
	movl	$395, %edi              # imm = 0x18B
	callq	_StraightTaint_log
	cmpq	%r12, %rbx
	cmovleq	%rbx, %r12
.LBB0_448:                              # %if.end50.i.i
                                        #   in Loop: Header=BB0_441 Depth=3
	movl	$396, %edi              # imm = 0x18C
	callq	_StraightTaint_log
	movq	%r12, 64(%rbp)
	movq	16(%r14,%r15), %r14
	movq	72(%rbp), %r12
	cmpq	$-1, %r12
	jne	.LBB0_450
# BB#449:                               # %if.then57.i.i
                                        #   in Loop: Header=BB0_441 Depth=3
	movl	$397, %edi              # imm = 0x18D
	callq	_StraightTaint_log
	jmp	.LBB0_451
.LBB0_450:                              # %if.else59.i.i
                                        #   in Loop: Header=BB0_441 Depth=3
	movl	$398, %edi              # imm = 0x18E
	callq	_StraightTaint_log
	cmpq	%r14, %r12
	cmovgeq	%r12, %r14
.LBB0_451:                              # %for.inc.i.i
                                        #   in Loop: Header=BB0_441 Depth=3
	movq	%r14, 72(%rbp)
	leaq	128(%rsp), %r12
	movq	120(%rsp), %rbx         # 8-byte Reload
.LBB0_452:                              # %for.inc.i.i
                                        #   in Loop: Header=BB0_441 Depth=3
	movl	$399, %edi              # imm = 0x18F
	callq	_StraightTaint_log
	cmpl	numthrottles(%rip), %ebx
	jge	.LBB0_454
# BB#453:                               # %for.inc.land.rhs_crit_edge.i.i
                                        #   in Loop: Header=BB0_441 Depth=3
	movl	$400, %edi              # imm = 0x190
	callq	_StraightTaint_log
	incl	%ebx
	addq	$48, %r15
	cmpl	$10, 56(%rbp)
	jl	.LBB0_441
.LBB0_454:                              # %if.end44.i
                                        #   in Loop: Header=BB0_411 Depth=2
	movl	$402, %edi              # imm = 0x192
	callq	_StraightTaint_log
	movq	%r13, %rdi
	movq	%r12, %rsi
	callq	httpd_start_request
	testl	%eax, %eax
	leaq	19584(%rsp), %r15
	jns	.LBB0_456
# BB#455:                               # %if.then48.i
                                        #   in Loop: Header=BB0_411 Depth=2
	movl	$403, %edi              # imm = 0x193
	jmp	.LBB0_438
.LBB0_456:                              # %if.end49.i
                                        #   in Loop: Header=BB0_411 Depth=2
	movl	$404, %edi              # imm = 0x194
	callq	_StraightTaint_log
	cmpl	$0, 528(%r13)
	jne	.LBB0_457
# BB#458:                               # %if.else.i634
                                        #   in Loop: Header=BB0_411 Depth=2
	movl	$406, %edi              # imm = 0x196
	callq	_StraightTaint_log
	movq	192(%r13), %rbx
	testq	%rbx, %rbx
	jns	.LBB0_460
# BB#459:                               # %if.then55.i
                                        #   in Loop: Header=BB0_411 Depth=2
	movl	$407, %edi              # imm = 0x197
	callq	_StraightTaint_log
	movq	$0, 128(%rbp)
	xorl	%ebx, %ebx
	jmp	.LBB0_462
.LBB0_457:                              # %if.then51.i
                                        #   in Loop: Header=BB0_411 Depth=2
	movl	$405, %edi              # imm = 0x195
	callq	_StraightTaint_log
	movq	536(%r13), %rax
	movq	%rax, 136(%rbp)
	movq	544(%r13), %rbx
	incq	%rbx
	jmp	.LBB0_461
.LBB0_532:                              # %if.then43.i631
                                        #   in Loop: Header=BB0_411 Depth=2
	movl	$401, %edi              # imm = 0x191
	callq	_StraightTaint_log
	movq	httpd_err503title(%rip), %rdx
	movq	httpd_err503form(%rip), %r8
	movq	208(%r13), %r9
	movl	$503, %esi              # imm = 0x1F7
	movl	$.L.str42, %ecx
	movq	%r13, %rdi
	callq	httpd_send_err
	movq	8(%rbp), %rdi
	callq	httpd_write_response
	movq	%rbp, %rdi
	jmp	.LBB0_503
.LBB0_460:                              # %if.else57.i
                                        #   in Loop: Header=BB0_411 Depth=2
	movl	$408, %edi              # imm = 0x198
	callq	_StraightTaint_log
.LBB0_461:                              # %if.end61.i
                                        #   in Loop: Header=BB0_411 Depth=2
	movq	%rbx, 128(%rbp)
.LBB0_462:                              # %if.end61.i
                                        #   in Loop: Header=BB0_411 Depth=2
	movl	$409, %edi              # imm = 0x199
	callq	_StraightTaint_log
	cmpq	$0, 712(%r13)
	jne	.LBB0_467
# BB#463:                               # %for.cond.preheader.i635
                                        #   in Loop: Header=BB0_411 Depth=2
	movl	$410, %edi              # imm = 0x19A
	callq	_StraightTaint_log
	movl	56(%rbp), %r12d
	testl	%r12d, %r12d
	movq	200(%r13), %r14
	jle	.LBB0_466
# BB#464:                               # %for.body.lr.ph.i
                                        #   in Loop: Header=BB0_411 Depth=2
	movl	$411, %edi              # imm = 0x19B
	callq	_StraightTaint_log
	movq	throttles(%rip), %r15
	leaq	16(%rbp), %rbx
.LBB0_465:                              # %for.body.i639
                                        #   Parent Loop BB0_385 Depth=1
                                        #     Parent Loop BB0_411 Depth=2
                                        # =>    This Inner Loop Header: Depth=3
	movl	$412, %edi              # imm = 0x19C
	callq	_StraightTaint_log
	movslq	(%rbx), %rax
	leaq	(%rax,%rax,2), %rax
	shlq	$4, %rax
	addq	%r14, 32(%r15,%rax)
	addq	$4, %rbx
	decl	%r12d
	jne	.LBB0_465
.LBB0_466:                              # %for.end.i640
                                        #   in Loop: Header=BB0_411 Depth=2
	movl	$413, %edi              # imm = 0x19D
	callq	_StraightTaint_log
	movq	%r14, 136(%rbp)
	movq	8(%rbp), %rdi
	jmp	.LBB0_502
.LBB0_467:                              # %if.end73.i
                                        #   in Loop: Header=BB0_411 Depth=2
	movl	$414, %edi              # imm = 0x19E
	callq	_StraightTaint_log
	cmpq	%rbx, 136(%rbp)
	jge	.LBB0_468
# BB#469:                               # %if.end79.i
                                        #   in Loop: Header=BB0_411 Depth=2
	movl	$416, %edi              # imm = 0x1A0
	callq	_StraightTaint_log
	movl	$2, (%rbp)
	movq	128(%rsp), %rax
	movq	%rax, 80(%rbp)
	movq	$0, 112(%rbp)
	movl	704(%r13), %edi
	callq	fdwatch_del_fd
	movl	704(%r13), %edi
	movl	$1, %edx
	movq	%rbp, %rsi
	callq	fdwatch_add_fd
	jmp	.LBB0_411
.LBB0_468:                              # %if.then78.i
                                        #   in Loop: Header=BB0_411 Depth=2
	movl	$415, %edi              # imm = 0x19F
.LBB0_438:                              # %while.cond482
                                        #   in Loop: Header=BB0_411 Depth=2
	callq	_StraightTaint_log
.LBB0_439:                              # %while.cond482
                                        #   in Loop: Header=BB0_411 Depth=2
	movq	8(%rbp), %rdi
	callq	httpd_write_response
	jmp	.LBB0_416
.LBB0_519:                              # %while.end
                                        #   in Loop: Header=BB0_385 Depth=1
	movl	$454, %edi              # imm = 0x1C6
	callq	_StraightTaint_log
	movq	%r12, %rdi
	callq	tmr_run
	cmpl	$0, got_usr1(%rip)
	je	.LBB0_400
# BB#520:                               # %while.end
                                        #   in Loop: Header=BB0_385 Depth=1
	movl	terminate(%rip), %eax
	testl	%eax, %eax
	jne	.LBB0_400
# BB#521:                               # %if.then503
                                        #   in Loop: Header=BB0_385 Depth=1
	movl	$455, %edi              # imm = 0x1C7
	callq	_StraightTaint_log
	movl	$1, terminate(%rip)
	movq	hs(%rip), %rbx
	testq	%rbx, %rbx
	je	.LBB0_400
# BB#522:                               # %if.then506
                                        #   in Loop: Header=BB0_385 Depth=1
	movl	$456, %edi              # imm = 0x1C8
	callq	_StraightTaint_log
	movl	72(%rbx), %ebp
	cmpl	$-1, %ebp
	je	.LBB0_524
# BB#523:                               # %if.then510
                                        #   in Loop: Header=BB0_385 Depth=1
	movl	$457, %edi              # imm = 0x1C9
	callq	_StraightTaint_log
	movl	%ebp, %edi
	callq	fdwatch_del_fd
	movq	hs(%rip), %rbx
.LBB0_524:                              # %if.end512
                                        #   in Loop: Header=BB0_385 Depth=1
	movl	$458, %edi              # imm = 0x1CA
	callq	_StraightTaint_log
	movl	76(%rbx), %ebp
	cmpl	$-1, %ebp
	je	.LBB0_526
# BB#525:                               # %if.then516
                                        #   in Loop: Header=BB0_385 Depth=1
	movl	$459, %edi              # imm = 0x1CB
	callq	_StraightTaint_log
	movl	%ebp, %edi
	callq	fdwatch_del_fd
	movq	hs(%rip), %rbx
.LBB0_526:                              # %if.end518
                                        #   in Loop: Header=BB0_385 Depth=1
	movl	$460, %edi              # imm = 0x1CC
	callq	_StraightTaint_log
	movq	%rbx, %rdi
	callq	httpd_unlisten
	.align	16, 0x90
.LBB0_400:                              # %while.cond.backedge
                                        #   in Loop: Header=BB0_385 Depth=1
	movl	$361, %edi              # imm = 0x169
	callq	_StraightTaint_log
	cmpl	$0, terminate(%rip)
	movl	num_connects(%rip), %eax
	je	.LBB0_385
# BB#401:                               # %while.cond.backedge
                                        #   in Loop: Header=BB0_385 Depth=1
	testl	%eax, %eax
	jg	.LBB0_385
	jmp	.LBB0_402
.LBB0_318:                              # %if.then131
	movl	$280, %edi              # imm = 0x118
	callq	_StraightTaint_log
	movl	$4, %edi
	movl	$.L.str8, %esi
	xorl	%eax, %eax
	callq	syslog
	movq	stderr(%rip), %rdi
	movq	argv0(%rip), %rdx
	movl	$.L.str9, %esi
	xorl	%eax, %eax
	callq	fprintf
	jmp	.LBB0_319
.LBB0_346:                              # %if.else289
	movl	$309, %edi              # imm = 0x135
	callq	_StraightTaint_log
	movl	$4, %edi
	movl	$.L.str21, %esi
	xorl	%eax, %eax
	callq	syslog
	movq	stderr(%rip), %rdi
	movq	argv0(%rip), %rdx
	movl	$.L.str22, %esi
	xorl	%eax, %eax
	callq	fprintf
	jmp	.LBB0_347
.LBB0_19:                               # %if.then.i.i
	movl	$11, %edi
	callq	_StraightTaint_log
	jmp	.LBB0_20
.LBB0_87:                               # %if.then.i520.i.i
	movl	$67, %edi
	jmp	.LBB0_43
.LBB0_89:                               # %if.then.i525.i.i
	movl	$69, %edi
	jmp	.LBB0_50
.LBB0_93:                               # %if.then.i529.i.i
	movl	$73, %edi
	jmp	.LBB0_43
.LBB0_95:                               # %if.then.i534.i.i
	movl	$75, %edi
	jmp	.LBB0_50
.LBB0_99:                               # %if.then.i538.i.i
	movl	$79, %edi
	jmp	.LBB0_43
.LBB0_103:                              # %if.then.i544.i.i
	movl	$83, %edi
	jmp	.LBB0_43
.LBB0_105:                              # %if.then.i549.i.i
	movl	$85, %edi
	jmp	.LBB0_50
.LBB0_109:                              # %if.then.i553.i.i
	movl	$89, %edi
	jmp	.LBB0_37
.LBB0_113:                              # %if.then.i557.i.i
	movl	$93, %edi
	jmp	.LBB0_43
.LBB0_115:                              # %if.then.i562.i.i
	movl	$95, %edi
	jmp	.LBB0_50
.LBB0_119:                              # %if.then.i566.i.i
	movl	$99, %edi
	jmp	.LBB0_43
.LBB0_121:                              # %if.then.i571.i.i
	movl	$101, %edi
	jmp	.LBB0_50
.LBB0_125:                              # %if.then.i575.i.i
	movl	$105, %edi
	jmp	.LBB0_43
.LBB0_127:                              # %if.then.i580.i.i
	movl	$107, %edi
	jmp	.LBB0_50
.LBB0_131:                              # %if.then.i584.i.i
	movl	$111, %edi
	jmp	.LBB0_43
.LBB0_133:                              # %if.then.i589.i.i
	movl	$113, %edi
	jmp	.LBB0_50
.LBB0_137:                              # %if.then.i593.i.i
	movl	$117, %edi
	jmp	.LBB0_37
.LBB0_141:                              # %if.then.i597.i.i
	movl	$121, %edi
	jmp	.LBB0_37
.LBB0_145:                              # %if.then.i601.i.i
	movl	$125, %edi
	jmp	.LBB0_37
.LBB0_149:                              # %if.then.i605.i.i
	movl	$129, %edi
	jmp	.LBB0_37
.LBB0_153:                              # %if.then.i609.i.i
	movl	$133, %edi
	jmp	.LBB0_43
.LBB0_155:                              # %if.then.i614.i.i
	movl	$135, %edi
	jmp	.LBB0_50
.LBB0_159:                              # %if.then.i618.i.i
	movl	$139, %edi
	jmp	.LBB0_43
.LBB0_161:                              # %if.then.i623.i.i
	movl	$141, %edi
	jmp	.LBB0_50
.LBB0_165:                              # %if.then.i627.i.i
	movl	$145, %edi
	jmp	.LBB0_43
.LBB0_167:                              # %if.then.i632.i.i
	movl	$147, %edi
	jmp	.LBB0_50
.LBB0_173:                              # %if.else271.i.i
	movl	$153, %edi
	callq	_StraightTaint_log
	movq	stderr(%rip), %rcx
	movq	argv0(%rip), %rdx
	movl	$.L.str125, %esi
	jmp	.LBB0_38
.LBB0_171:                              # %if.then.i636.i.i
	movl	$151, %edi
	jmp	.LBB0_43
.LBB0_36:                               # %if.then.i.i.i
	movl	$23, %edi
	jmp	.LBB0_37
.LBB0_42:                               # %if.then.i476.i.i
	movl	$27, %edi
	jmp	.LBB0_43
.LBB0_47:                               # %if.then.i480.i.i
	movl	$31, %edi
	jmp	.LBB0_43
.LBB0_49:                               # %if.then.i484.i.i
	movl	$33, %edi
	jmp	.LBB0_50
.LBB0_55:                               # %if.then.i487.i.i
	movl	$37, %edi
	jmp	.LBB0_37
.LBB0_59:                               # %if.then.i491.i.i
	movl	$41, %edi
	jmp	.LBB0_37
.LBB0_63:                               # %if.then.i495.i.i
	movl	$45, %edi
.LBB0_43:                               # %if.then.i476.i.i
	callq	_StraightTaint_log
	movq	stderr(%rip), %rcx
	movq	argv0(%rip), %rdx
	movl	$.L.str126, %esi
	jmp	.LBB0_38
.LBB0_65:                               # %if.then.i500.i.i
	movl	$47, %edi
	jmp	.LBB0_50
.LBB0_69:                               # %if.then.i504.i.i
	movl	$51, %edi
	jmp	.LBB0_37
.LBB0_74:                               # %if.then.i508.i.i
	movl	$55, %edi
	jmp	.LBB0_37
.LBB0_79:                               # %if.then.i512.i.i
	movl	$59, %edi
	jmp	.LBB0_37
.LBB0_83:                               # %if.then.i516.i.i
	movl	$63, %edi
.LBB0_37:                               # %if.then.i.i.i
	callq	_StraightTaint_log
	movq	stderr(%rip), %rcx
	movq	argv0(%rip), %rdx
	movl	$.L.str127, %esi
.LBB0_38:                               # %if.then.i.i.i
	xorl	%eax, %eax
	movq	%rcx, %rdi
	movq	%rbx, %rcx
	jmp	.LBB0_39
.LBB0_13:                               # %if.then49.i
	movl	$6, %edi
	callq	_StraightTaint_log
	movl	$.L.str74, %edi
	callq	puts
	xorl	%edi, %edi
	callq	exit
.LBB0_248:                              # %if.else1528.i
	movl	$215, %edi
	callq	_StraightTaint_log
	callq	usage
.LBB0_527:                              # %if.then1555.i
	movl	$218, %edi
	callq	_StraightTaint_log
	callq	usage
.LBB0_528:                              # %if.then.i592
	movl	$221, %edi
	callq	_StraightTaint_log
	movq	hostname(%rip), %rbp
	movl	%ebx, %edi
	callq	gai_strerror
	movq	%rax, %rcx
	movl	$2, %edi
	movl	$.L.str67, %esi
	xorl	%eax, %eax
	movq	%rbp, %rdx
	callq	syslog
	movq	stderr(%rip), %rbp
	movq	argv0(%rip), %r14
	movq	hostname(%rip), %r15
	movl	%ebx, %edi
	callq	gai_strerror
	movq	%rax, %rbx
	movl	$.L.str68, %esi
	xorl	%eax, %eax
	movq	%rbp, %rdi
	movq	%r14, %rdx
	movq	%r15, %rcx
	movq	%rbx, %r8
	callq	fprintf
	movl	$1, %edi
	callq	exit
.LBB0_262:                              # %if.then25.i
	movl	$228, %edi
	callq	_StraightTaint_log
	movq	hostname(%rip), %rdx
	movl	$2, %edi
	movl	$.L.str69, %esi
	movl	$128, %ecx
	xorl	%eax, %eax
	movq	%rbx, %r8
	jmp	.LBB0_263
.LBB0_267:                              # %if.then40.i
	movl	$232, %edi
	callq	_StraightTaint_log
	movq	hostname(%rip), %rdx
	movl	$2, %edi
	movl	$.L.str69, %esi
	movl	$128, %ecx
	xorl	%eax, %eax
	movq	%rbp, %r8
.LBB0_263:                              # %if.then25.i
	callq	syslog
	movl	$1, %edi
	callq	exit
.LBB0_271:                              # %if.then2
	movl	$235, %edi
	callq	_StraightTaint_log
	movl	$3, %edi
	movl	$.L.str, %esi
	xorl	%eax, %eax
	callq	syslog
	movq	stderr(%rip), %rcx
	movq	argv0(%rip), %rdx
	movl	$.L.str1, %esi
	jmp	.LBB0_51
.LBB0_274:                              # %if.then.i595
	movl	$238, %edi
	callq	_StraightTaint_log
	movl	$2, %edi
	movl	$.L.str7, %esi
	xorl	%eax, %eax
	movq	%rbx, %rdx
	callq	syslog
.LBB0_20:                               # %if.then.i.i
	movq	%rbx, %rdi
	jmp	.LBB0_21
.LBB0_304:                              # %if.then95.i
	movl	$262, %edi              # imm = 0x106
	callq	_StraightTaint_log
	movl	$2, %edi
	movl	$.L.str62, %esi
	xorl	%eax, %eax
	callq	syslog
	movq	stderr(%rip), %rcx
	movq	argv0(%rip), %rdx
	movl	$.L.str63, %esi
	jmp	.LBB0_51
.LBB0_306:                              # %if.then.i.i609
	movl	$264, %edi              # imm = 0x108
.LBB0_50:                               # %if.then.i484.i.i
	callq	_StraightTaint_log
	movl	$2, %edi
	movl	$.L.str64, %esi
	xorl	%eax, %eax
	callq	syslog
	movq	stderr(%rip), %rcx
	movq	argv0(%rip), %rdx
	movl	$.L.str65, %esi
.LBB0_51:                               # %if.then.i484.i.i
	xorl	%eax, %eax
	movq	%rcx, %rdi
	callq	fprintf
	movl	$1, %edi
	callq	exit
.LBB0_296:                              # %if.then13
	movl	$269, %edi              # imm = 0x10D
	callq	_StraightTaint_log
	movq	user(%rip), %rcx
	movl	$2, %edi
	movl	$.L.str2, %esi
	xorl	%eax, %eax
	movq	%rcx, %rdx
	callq	syslog
	movq	stderr(%rip), %rcx
	movq	argv0(%rip), %rdx
	movq	user(%rip), %rbp
	movl	$.L.str3, %esi
	xorl	%eax, %eax
	movq	%rcx, %rdi
	movq	%rbp, %rcx
.LBB0_39:                               # %if.then.i.i.i
	callq	fprintf
	movl	$1, %edi
	callq	exit
.LBB0_316:                              # %if.then125
	movl	$278, %edi              # imm = 0x116
	callq	_StraightTaint_log
	movl	$2, %edi
	movl	$.L.str7, %esi
	xorl	%eax, %eax
	movq	%rbx, %rdx
	callq	syslog
	movq	logfile(%rip), %rax
	movq	%rax, %rdi
	jmp	.LBB0_21
.LBB0_324:                              # %if.then157
	movl	$286, %edi              # imm = 0x11E
	callq	_StraightTaint_log
	movl	$2, %edi
	movl	$.L.str12, %esi
	xorl	%eax, %eax
	callq	syslog
	movl	$.L.str13, %edi
	jmp	.LBB0_21
.LBB0_331:                              # %if.then184
	movl	$293, %edi              # imm = 0x125
	callq	_StraightTaint_log
	movl	$2, %edi
	movl	$.L.str15, %esi
	jmp	.LBB0_488
.LBB0_529:                              # %if.then196
	movl	$297, %edi              # imm = 0x129
	callq	_StraightTaint_log
	movq	pidfile(%rip), %rcx
	movl	$2, %edi
	movl	$.L.str7, %esi
	xorl	%eax, %eax
	movq	%rcx, %rdx
	callq	syslog
	movl	$1, %edi
	callq	exit
.LBB0_337:                              # %if.then205
	movl	$300, %edi              # imm = 0x12C
	callq	_StraightTaint_log
	movl	$2, %edi
	movl	$.L.str18, %esi
	jmp	.LBB0_488
.LBB0_340:                              # %if.then214
	movl	$303, %edi              # imm = 0x12F
	callq	_StraightTaint_log
	movl	$2, %edi
	movl	$.L.str19, %esi
	xorl	%eax, %eax
	callq	syslog
	movl	$.L.str20, %edi
	jmp	.LBB0_21
.LBB0_348:                              # %if.then299
	movl	$311, %edi              # imm = 0x137
	callq	_StraightTaint_log
	movl	$2, %edi
	movl	$.L.str23, %esi
	xorl	%eax, %eax
	callq	syslog
	movl	$.L.str24, %edi
	jmp	.LBB0_21
.LBB0_351:                              # %if.then308
	movl	$314, %edi              # imm = 0x13A
	callq	_StraightTaint_log
	movl	$2, %edi
	movl	$.L.str25, %esi
	xorl	%eax, %eax
	callq	syslog
	movl	$.L.str26, %edi
.LBB0_21:                               # %if.then.i.i
	callq	perror
	movl	$1, %edi
	callq	exit
.LBB0_530:                              # %if.then334
	movl	$316, %edi              # imm = 0x13C
	callq	_StraightTaint_log
	movl	$1, %edi
	callq	exit
.LBB0_354:                              # %if.then339
	movl	$318, %edi              # imm = 0x13E
	callq	_StraightTaint_log
	movl	$2, %edi
	movl	$.L.str27, %esi
	jmp	.LBB0_488
.LBB0_356:                              # %if.then344
	movl	$320, %edi              # imm = 0x140
	callq	_StraightTaint_log
	movl	$2, %edi
	movl	$.L.str28, %esi
	jmp	.LBB0_488
.LBB0_359:                              # %if.then352
	movl	$323, %edi              # imm = 0x143
	callq	_StraightTaint_log
	movl	$2, %edi
	movl	$.L.str29, %esi
	jmp	.LBB0_488
.LBB0_361:                              # %if.then358
	movl	$325, %edi              # imm = 0x145
	callq	_StraightTaint_log
	movl	$2, %edi
	movl	$.L.str30, %esi
	jmp	.LBB0_488
.LBB0_364:                              # %if.then368
	movl	$328, %edi              # imm = 0x148
	callq	_StraightTaint_log
	movl	$2, %edi
	movl	$.L.str31, %esi
	jmp	.LBB0_488
.LBB0_366:                              # %if.then373
	movl	$330, %edi              # imm = 0x14A
	callq	_StraightTaint_log
	movl	$2, %edi
	movl	$.L.str32, %esi
	jmp	.LBB0_488
.LBB0_370:                              # %if.then383
	movl	$334, %edi              # imm = 0x14E
	callq	_StraightTaint_log
	movl	$2, %edi
	movl	$.L.str34, %esi
	jmp	.LBB0_488
.LBB0_531:                              # %if.then393
	movl	$339, %edi              # imm = 0x153
	callq	_StraightTaint_log
	movl	$2, %edi
	movl	$.L.str36, %esi
	jmp	.LBB0_488
.LBB0_383:                              # %if.end420
	movl	num_connects(%rip), %eax
	testl	%eax, %eax
	jg	.LBB0_384
.LBB0_402:                              # %while.end521
	movl	$461, %edi              # imm = 0x1CD
	callq	_StraightTaint_log
	callq	shut_down
	movl	$5, %edi
	movl	$.L.str38, %esi
	xorl	%eax, %eax
	callq	syslog
	callq	closelog
	xorl	%edi, %edi
	callq	exit
.LBB0_397:                              # %if.end441
	movl	$358, %edi              # imm = 0x166
	callq	_StraightTaint_log
	movl	$3, %edi
	movl	$.L.str37, %esi
	jmp	.LBB0_488
.LBB0_486:                              # %if.then68.i
	movl	$428, %edi              # imm = 0x1AC
	jmp	.LBB0_487
.LBB0_513:                              # %if.then186.i
	movl	$449, %edi              # imm = 0x1C1
.LBB0_487:                              # %if.then68.i
	callq	_StraightTaint_log
	movl	$2, %edi
	movl	$.L.str50, %esi
.LBB0_488:                              # %if.then68.i
	xorl	%eax, %eax
	callq	syslog
	movl	$1, %edi
	callq	exit
.Ltmp20:
	.size	main, .Ltmp20-main
	.cfi_endproc

	.align	16, 0x90
	.type	handle_term,@function
handle_term:                            # @handle_term
	.cfi_startproc
# BB#0:                                 # %entry
	pushq	%rbx
.Ltmp23:
	.cfi_def_cfa_offset 16
.Ltmp24:
	.cfi_offset %rbx, -16
	movl	%edi, %ebx
	movl	$462, %edi              # imm = 0x1CE
	callq	_StraightTaint_log
	callq	shut_down
	movl	$5, %edi
	movl	$.L.str132, %esi
	xorl	%eax, %eax
	movl	%ebx, %edx
	callq	syslog
	callq	closelog
	movl	$1, %edi
	callq	exit
.Ltmp25:
	.size	handle_term, .Ltmp25-handle_term
	.cfi_endproc

	.align	16, 0x90
	.type	handle_chld,@function
handle_chld:                            # @handle_chld
	.cfi_startproc
# BB#0:                                 # %entry
	pushq	%rbp
.Ltmp32:
	.cfi_def_cfa_offset 16
	pushq	%r15
.Ltmp33:
	.cfi_def_cfa_offset 24
	pushq	%r14
.Ltmp34:
	.cfi_def_cfa_offset 32
	pushq	%r12
.Ltmp35:
	.cfi_def_cfa_offset 40
	pushq	%rbx
.Ltmp36:
	.cfi_def_cfa_offset 48
	subq	$16, %rsp
.Ltmp37:
	.cfi_def_cfa_offset 64
.Ltmp38:
	.cfi_offset %rbx, -48
.Ltmp39:
	.cfi_offset %r12, -40
.Ltmp40:
	.cfi_offset %r14, -32
.Ltmp41:
	.cfi_offset %r15, -24
.Ltmp42:
	.cfi_offset %rbp, -16
	movl	$463, %edi              # imm = 0x1CF
	callq	_StraightTaint_log
	callq	__errno_location
	movq	%rax, %r14
	movl	(%r14), %r15d
	leaq	12(%rsp), %rsi
	movl	$-1, %edi
	movl	$1, %edx
	callq	waitpid
	movl	%eax, %ebp
	testl	%ebp, %ebp
	je	.LBB2_10
# BB#1:
	leaq	12(%rsp), %rbx
	xorl	%r12d, %r12d
	.align	16, 0x90
.LBB2_2:                                # %if.end
                                        # =>This Inner Loop Header: Depth=1
	movl	$464, %edi              # imm = 0x1D0
	callq	_StraightTaint_log
	testl	%ebp, %ebp
	jns	.LBB2_7
# BB#3:                                 # %if.then3
                                        #   in Loop: Header=BB2_2 Depth=1
	movl	$465, %edi              # imm = 0x1D1
	callq	_StraightTaint_log
	movl	(%r14), %eax
	cmpl	$4, %eax
	je	.LBB2_9
# BB#4:                                 # %if.then3
                                        #   in Loop: Header=BB2_2 Depth=1
	cmpl	$11, %eax
	je	.LBB2_9
	jmp	.LBB2_5
	.align	16, 0x90
.LBB2_7:                                # %if.end14
                                        #   in Loop: Header=BB2_2 Depth=1
	movl	$467, %edi              # imm = 0x1D3
	callq	_StraightTaint_log
	movq	hs(%rip), %rbp
	testq	%rbp, %rbp
	je	.LBB2_9
# BB#8:                                 # %if.then16
                                        #   in Loop: Header=BB2_2 Depth=1
	movl	$468, %edi              # imm = 0x1D4
	callq	_StraightTaint_log
	movl	36(%rbp), %eax
	leal	-1(%rax), %ecx
	testl	%eax, %eax
	cmovlel	%r12d, %ecx
	movl	%ecx, 36(%rbp)
.LBB2_9:                                # %for.cond.backedge
                                        #   in Loop: Header=BB2_2 Depth=1
	movl	$469, %edi              # imm = 0x1D5
	callq	_StraightTaint_log
	movl	$-1, %edi
	movl	$1, %edx
	movq	%rbx, %rsi
	callq	waitpid
	movl	%eax, %ebp
	testl	%ebp, %ebp
	jne	.LBB2_2
	jmp	.LBB2_10
.LBB2_5:                                # %if.then3
	cmpl	$10, %eax
	je	.LBB2_10
# BB#6:                                 # %if.then12
	movl	$466, %edi              # imm = 0x1D2
	callq	_StraightTaint_log
	movl	$3, %edi
	movl	$.L.str131, %esi
	xorl	%eax, %eax
	callq	syslog
.LBB2_10:                               # %for.end
	movl	$470, %edi              # imm = 0x1D6
	callq	_StraightTaint_log
	movl	%r15d, (%r14)
	addq	$16, %rsp
	popq	%rbx
	popq	%r12
	popq	%r14
	popq	%r15
	popq	%rbp
	ret
.Ltmp43:
	.size	handle_chld, .Ltmp43-handle_chld
	.cfi_endproc

	.align	16, 0x90
	.type	handle_hup,@function
handle_hup:                             # @handle_hup
	.cfi_startproc
# BB#0:                                 # %entry
	pushq	%rax
.Ltmp45:
	.cfi_def_cfa_offset 16
	movl	$471, %edi              # imm = 0x1D7
	callq	_StraightTaint_log
	callq	__errno_location
	movl	(%rax), %ecx
	movl	$1, got_hup(%rip)
	movl	%ecx, (%rax)
	popq	%rax
	ret
.Ltmp46:
	.size	handle_hup, .Ltmp46-handle_hup
	.cfi_endproc

	.align	16, 0x90
	.type	handle_usr1,@function
handle_usr1:                            # @handle_usr1
	.cfi_startproc
# BB#0:                                 # %entry
	pushq	%rax
.Ltmp48:
	.cfi_def_cfa_offset 16
	movl	$472, %edi              # imm = 0x1D8
	callq	_StraightTaint_log
	cmpl	$0, num_connects(%rip)
	je	.LBB4_2
# BB#1:                                 # %if.end
	movl	$474, %edi              # imm = 0x1DA
	callq	_StraightTaint_log
	movl	$1, got_usr1(%rip)
	popq	%rax
	ret
.LBB4_2:                                # %if.then
	movl	$473, %edi              # imm = 0x1D9
	callq	_StraightTaint_log
	callq	shut_down
	movl	$5, %edi
	movl	$.L.str38, %esi
	xorl	%eax, %eax
	callq	syslog
	callq	closelog
	xorl	%edi, %edi
	callq	exit
.Ltmp49:
	.size	handle_usr1, .Ltmp49-handle_usr1
	.cfi_endproc

	.align	16, 0x90
	.type	handle_usr2,@function
handle_usr2:                            # @handle_usr2
	.cfi_startproc
# BB#0:                                 # %entry
	pushq	%rbp
.Ltmp53:
	.cfi_def_cfa_offset 16
	pushq	%rbx
.Ltmp54:
	.cfi_def_cfa_offset 24
	pushq	%rax
.Ltmp55:
	.cfi_def_cfa_offset 32
.Ltmp56:
	.cfi_offset %rbx, -24
.Ltmp57:
	.cfi_offset %rbp, -16
	movl	$475, %edi              # imm = 0x1DB
	callq	_StraightTaint_log
	callq	__errno_location
	movq	%rax, %rbx
	movl	(%rbx), %ebp
	xorl	%edi, %edi
	callq	logstats
	movl	%ebp, (%rbx)
	addq	$8, %rsp
	popq	%rbx
	popq	%rbp
	ret
.Ltmp58:
	.size	handle_usr2, .Ltmp58-handle_usr2
	.cfi_endproc

	.align	16, 0x90
	.type	handle_alrm,@function
handle_alrm:                            # @handle_alrm
	.cfi_startproc
# BB#0:                                 # %entry
	pushq	%rbp
.Ltmp62:
	.cfi_def_cfa_offset 16
	pushq	%rbx
.Ltmp63:
	.cfi_def_cfa_offset 24
	pushq	%rax
.Ltmp64:
	.cfi_def_cfa_offset 32
.Ltmp65:
	.cfi_offset %rbx, -24
.Ltmp66:
	.cfi_offset %rbp, -16
	movl	$476, %edi              # imm = 0x1DC
	callq	_StraightTaint_log
	callq	__errno_location
	movq	%rax, %rbx
	movl	(%rbx), %ebp
	cmpl	$0, watchdog_flag(%rip)
	je	.LBB6_2
# BB#1:                                 # %if.end
	movl	$478, %edi              # imm = 0x1DE
	callq	_StraightTaint_log
	movl	$0, watchdog_flag(%rip)
	movl	$360, %edi              # imm = 0x168
	callq	alarm
	movl	%ebp, (%rbx)
	addq	$8, %rsp
	popq	%rbx
	popq	%rbp
	ret
.LBB6_2:                                # %if.then
	movl	$477, %edi              # imm = 0x1DD
	callq	_StraightTaint_log
	movl	$.L.str130, %edi
	callq	chdir
	callq	abort
.Ltmp67:
	.size	handle_alrm, .Ltmp67-handle_alrm
	.cfi_endproc

	.align	16, 0x90
	.type	occasional,@function
occasional:                             # @occasional
	.cfi_startproc
# BB#0:                                 # %entry
	pushq	%rbx
.Ltmp70:
	.cfi_def_cfa_offset 16
.Ltmp71:
	.cfi_offset %rbx, -16
	movq	%rsi, %rbx
	movl	$479, %edi              # imm = 0x1DF
	callq	_StraightTaint_log
	movq	%rbx, %rdi
	callq	mmc_cleanup
	callq	tmr_cleanup
	movl	$1, watchdog_flag(%rip)
	popq	%rbx
	ret
.Ltmp72:
	.size	occasional, .Ltmp72-occasional
	.cfi_endproc

	.align	16, 0x90
	.type	idle,@function
idle:                                   # @idle
	.cfi_startproc
# BB#0:                                 # %entry
	pushq	%rbp
.Ltmp79:
	.cfi_def_cfa_offset 16
	pushq	%r15
.Ltmp80:
	.cfi_def_cfa_offset 24
	pushq	%r14
.Ltmp81:
	.cfi_def_cfa_offset 32
	pushq	%r12
.Ltmp82:
	.cfi_def_cfa_offset 40
	pushq	%rbx
.Ltmp83:
	.cfi_def_cfa_offset 48
.Ltmp84:
	.cfi_offset %rbx, -48
.Ltmp85:
	.cfi_offset %r12, -40
.Ltmp86:
	.cfi_offset %r14, -32
.Ltmp87:
	.cfi_offset %r15, -24
.Ltmp88:
	.cfi_offset %rbp, -16
	movq	%rsi, %r14
	movl	$480, %edi              # imm = 0x1E0
	callq	_StraightTaint_log
	cmpl	$0, max_connects(%rip)
	jle	.LBB8_10
# BB#1:                                 # %for.body.lr.ph
	movl	$481, %edi              # imm = 0x1E1
	callq	_StraightTaint_log
	xorl	%ebx, %ebx
	xorl	%ebp, %ebp
	.align	16, 0x90
.LBB8_2:                                # %for.body
                                        # =>This Inner Loop Header: Depth=1
	movl	$482, %edi              # imm = 0x1E2
	callq	_StraightTaint_log
	movq	connects(%rip), %r12
	leaq	(%r12,%rbx), %r15
	movl	(%r12,%rbx), %eax
	leal	-2(%rax), %ecx
	cmpl	$2, %ecx
	jae	.LBB8_3
# BB#6:                                 # %sw.bb3
                                        #   in Loop: Header=BB8_2 Depth=1
	movl	$485, %edi              # imm = 0x1E5
	callq	_StraightTaint_log
	movq	(%r14), %rax
	subq	88(%r12,%rbx), %rax
	cmpq	$300, %rax              # imm = 0x12C
	jl	.LBB8_9
# BB#7:                                 # %if.then8
                                        #   in Loop: Header=BB8_2 Depth=1
	movl	$486, %edi              # imm = 0x1E6
	callq	_StraightTaint_log
	movq	8(%r12,%rbx), %rdi
	addq	$16, %rdi
	callq	httpd_ntoa
	movq	%rax, %rcx
	movl	$6, %edi
	movl	$.L.str43, %esi
	xorl	%eax, %eax
	movq	%rcx, %rdx
	callq	syslog
	jmp	.LBB8_8
	.align	16, 0x90
.LBB8_3:                                # %for.body
                                        #   in Loop: Header=BB8_2 Depth=1
	cmpl	$1, %eax
	jne	.LBB8_9
# BB#4:                                 # %sw.bb
                                        #   in Loop: Header=BB8_2 Depth=1
	movl	$483, %edi              # imm = 0x1E3
	callq	_StraightTaint_log
	movq	(%r14), %rax
	subq	88(%r12,%rbx), %rax
	cmpq	$60, %rax
	jl	.LBB8_9
# BB#5:                                 # %if.then
                                        #   in Loop: Header=BB8_2 Depth=1
	movl	$484, %edi              # imm = 0x1E4
	callq	_StraightTaint_log
	movq	8(%r12,%rbx), %rdi
	addq	$16, %rdi
	callq	httpd_ntoa
	movq	%rax, %rcx
	movl	$6, %edi
	movl	$.L.str41, %esi
	xorl	%eax, %eax
	movq	%rcx, %rdx
	callq	syslog
	movq	8(%r12,%rbx), %rdi
	movq	httpd_err408title(%rip), %rdx
	movq	httpd_err408form(%rip), %r8
	movl	$408, %esi              # imm = 0x198
	movl	$.L.str42, %ecx
	movl	$.L.str42, %r9d
	callq	httpd_send_err
	movq	8(%r12,%rbx), %rdi
	callq	httpd_write_response
	.align	16, 0x90
.LBB8_8:                                # %for.inc
                                        #   in Loop: Header=BB8_2 Depth=1
	movq	%r15, %rdi
	movq	%r14, %rsi
	callq	clear_connection
.LBB8_9:                                # %for.inc
                                        #   in Loop: Header=BB8_2 Depth=1
	movl	$487, %edi              # imm = 0x1E7
	callq	_StraightTaint_log
	incl	%ebp
	addq	$144, %rbx
	cmpl	max_connects(%rip), %ebp
	jl	.LBB8_2
.LBB8_10:                               # %for.end
	movl	$488, %edi              # imm = 0x1E8
	callq	_StraightTaint_log
	popq	%rbx
	popq	%r12
	popq	%r14
	popq	%r15
	popq	%rbp
	ret
.Ltmp89:
	.size	idle, .Ltmp89-idle
	.cfi_endproc

	.align	16, 0x90
	.type	update_throttles,@function
update_throttles:                       # @update_throttles
	.cfi_startproc
# BB#0:                                 # %entry
	pushq	%rbp
.Ltmp97:
	.cfi_def_cfa_offset 16
	pushq	%r15
.Ltmp98:
	.cfi_def_cfa_offset 24
	pushq	%r14
.Ltmp99:
	.cfi_def_cfa_offset 32
	pushq	%r13
.Ltmp100:
	.cfi_def_cfa_offset 40
	pushq	%r12
.Ltmp101:
	.cfi_def_cfa_offset 48
	pushq	%rbx
.Ltmp102:
	.cfi_def_cfa_offset 56
	subq	$56, %rsp
.Ltmp103:
	.cfi_def_cfa_offset 112
.Ltmp104:
	.cfi_offset %rbx, -56
.Ltmp105:
	.cfi_offset %r12, -48
.Ltmp106:
	.cfi_offset %r13, -40
.Ltmp107:
	.cfi_offset %r14, -32
.Ltmp108:
	.cfi_offset %r15, -24
.Ltmp109:
	.cfi_offset %rbp, -16
	movl	$489, %edi              # imm = 0x1E9
	callq	_StraightTaint_log
	cmpl	$0, numthrottles(%rip)
	movl	$40, %r13d
	jle	.LBB9_6
# BB#1:
	xorl	%r12d, %r12d
	.align	16, 0x90
.LBB9_2:                                # %for.body
                                        # =>This Inner Loop Header: Depth=1
	movl	$492, %edi              # imm = 0x1EC
	callq	_StraightTaint_log
	movq	throttles(%rip), %rbp
	movq	-16(%rbp,%r13), %rax
	movq	-8(%rbp,%r13), %rcx
	movq	%rcx, %rdx
	shrq	$63, %rdx
	addq	%rcx, %rdx
	sarq	%rdx
	leaq	(%rdx,%rax,2), %rax
	movabsq	$6148914691236517206, %rcx # imm = 0x5555555555555556
	imulq	%rcx
	movq	%rdx, %rbx
	shrq	$63, %rbx
	addq	%rdx, %rbx
	movq	%rbx, -16(%rbp,%r13)
	movq	$0, -8(%rbp,%r13)
	movq	-32(%rbp,%r13), %r14
	cmpq	%r14, %rbx
	jle	.LBB9_18
# BB#3:                                 # %land.lhs.true
                                        #   in Loop: Header=BB9_2 Depth=1
	movl	$493, %edi              # imm = 0x1ED
	callq	_StraightTaint_log
	movl	(%rbp,%r13), %r15d
	testl	%r15d, %r15d
	je	.LBB9_18
# BB#4:                                 # %if.then
                                        #   in Loop: Header=BB9_2 Depth=1
	movl	$494, %edi              # imm = 0x1EE
	callq	_StraightTaint_log
	leaq	(%r14,%r14), %rax
	cmpq	%rax, %rbx
	movq	-40(%rbp,%r13), %rbp
	jle	.LBB9_16
# BB#5:                                 # %if.then27
                                        #   in Loop: Header=BB9_2 Depth=1
	movl	$495, %edi              # imm = 0x1EF
	callq	_StraightTaint_log
	movl	%r15d, (%rsp)
	movl	$5, %edi
	movl	$.L.str46, %esi
	jmp	.LBB9_17
.LBB9_16:                               # %if.else
                                        #   in Loop: Header=BB9_2 Depth=1
	movl	$496, %edi              # imm = 0x1F0
	callq	_StraightTaint_log
	movl	%r15d, (%rsp)
	movl	$6, %edi
	movl	$.L.str47, %esi
.LBB9_17:                               # %if.end51
                                        #   in Loop: Header=BB9_2 Depth=1
	xorl	%eax, %eax
	movl	%r12d, %edx
	movq	%rbp, %rcx
	movq	%rbx, %r8
	movq	%r14, %r9
	callq	syslog
.LBB9_18:                               # %if.end51
                                        #   in Loop: Header=BB9_2 Depth=1
	movl	$497, %edi              # imm = 0x1F1
	callq	_StraightTaint_log
	movq	throttles(%rip), %rbp
	movq	-24(%rbp,%r13), %r14
	movq	-16(%rbp,%r13), %rbx
	cmpq	%r14, %rbx
	jge	.LBB9_21
# BB#19:                                # %land.lhs.true58
                                        #   in Loop: Header=BB9_2 Depth=1
	movl	$498, %edi              # imm = 0x1F2
	callq	_StraightTaint_log
	movl	(%rbp,%r13), %r15d
	testl	%r15d, %r15d
	je	.LBB9_21
# BB#20:                                # %if.then63
                                        #   in Loop: Header=BB9_2 Depth=1
	movl	$499, %edi              # imm = 0x1F3
	callq	_StraightTaint_log
	movq	-40(%rbp,%r13), %rcx
	movl	%r15d, (%rsp)
	movl	$5, %edi
	movl	$.L.str48, %esi
	xorl	%eax, %eax
	movl	%r12d, %edx
	movq	%rbx, %r8
	movq	%r14, %r9
	callq	syslog
.LBB9_21:                               # %for.inc
                                        #   in Loop: Header=BB9_2 Depth=1
	movl	$500, %edi              # imm = 0x1F4
	callq	_StraightTaint_log
	incl	%r12d
	addq	$48, %r13
	cmpl	numthrottles(%rip), %r12d
	jl	.LBB9_2
.LBB9_6:                                # %for.cond77.preheader
	movl	$490, %edi              # imm = 0x1EA
	callq	_StraightTaint_log
	movl	max_connects(%rip), %eax
	movl	%eax, 20(%rsp)          # 4-byte Spill
	testl	%eax, %eax
	jle	.LBB9_15
# BB#7:                                 # %for.body79.lr.ph
	movl	$491, %edi              # imm = 0x1EB
	callq	_StraightTaint_log
	movq	connects(%rip), %rax
	movq	%rax, 32(%rsp)          # 8-byte Spill
	movq	throttles(%rip), %rbp
	leaq	16(%rax), %rax
	movq	%rax, 24(%rsp)          # 8-byte Spill
	xorl	%ebx, %ebx
	.align	16, 0x90
.LBB9_8:                                # %for.body79
                                        # =>This Loop Header: Depth=1
                                        #     Child Loop BB9_11 Depth 2
	movq	%rbx, 40(%rsp)          # 8-byte Spill
	movl	$501, %edi              # imm = 0x1F5
	callq	_StraightTaint_log
	leaq	(%rbx,%rbx,8), %r15
	shlq	$4, %r15
	movq	32(%rsp), %rax          # 8-byte Reload
	movl	(%rax,%r15), %eax
	andl	$-2, %eax
	cmpl	$2, %eax
	jne	.LBB9_14
# BB#9:                                 # %if.then85
                                        #   in Loop: Header=BB9_8 Depth=1
	movl	$502, %edi              # imm = 0x1F6
	callq	_StraightTaint_log
	movq	32(%rsp), %rax          # 8-byte Reload
	movq	$-1, 64(%rax,%r15)
	movl	56(%rax,%r15), %r14d
	testl	%r14d, %r14d
	jle	.LBB9_14
# BB#10:                                #   in Loop: Header=BB9_8 Depth=1
	movq	$-1, %rbx
	movq	32(%rsp), %rax          # 8-byte Reload
	leaq	64(%rax,%r15), %rax
	movq	%rax, 48(%rsp)          # 8-byte Spill
	xorl	%r12d, %r12d
	movq	24(%rsp), %r13          # 8-byte Reload
	.align	16, 0x90
.LBB9_11:                               # %for.body89
                                        #   Parent Loop BB9_8 Depth=1
                                        # =>  This Inner Loop Header: Depth=2
	movl	$503, %edi              # imm = 0x1F7
	callq	_StraightTaint_log
	movslq	(%r13), %rax
	leaq	(%rax,%rax,2), %rcx
	shlq	$4, %rcx
	movq	8(%rbp,%rcx), %rax
	movslq	40(%rbp,%rcx), %rcx
	cqto
	idivq	%rcx
	movq	%rax, %r15
	cmpq	$-1, %rbx
	je	.LBB9_13
# BB#12:                                # %if.else104
                                        #   in Loop: Header=BB9_11 Depth=2
	movl	$504, %edi              # imm = 0x1F8
	callq	_StraightTaint_log
	cmpq	%r15, %rbx
	cmovleq	%rbx, %r15
.LBB9_13:                               # %for.inc111
                                        #   in Loop: Header=BB9_11 Depth=2
	movl	$505, %edi              # imm = 0x1F9
	callq	_StraightTaint_log
	movq	48(%rsp), %rax          # 8-byte Reload
	movq	%r15, (%rax)
	incl	%r12d
	addq	$4, %r13
	cmpl	%r14d, %r12d
	movq	%r15, %rbx
	jl	.LBB9_11
.LBB9_14:                               # %for.inc115
                                        #   in Loop: Header=BB9_8 Depth=1
	movl	$506, %edi              # imm = 0x1FA
	callq	_StraightTaint_log
	movq	40(%rsp), %rbx          # 8-byte Reload
	incq	%rbx
	addq	$144, 24(%rsp)          # 8-byte Folded Spill
	cmpl	20(%rsp), %ebx          # 4-byte Folded Reload
	jl	.LBB9_8
.LBB9_15:                               # %for.end117
	movl	$507, %edi              # imm = 0x1FB
	callq	_StraightTaint_log
	addq	$56, %rsp
	popq	%rbx
	popq	%r12
	popq	%r13
	popq	%r14
	popq	%r15
	popq	%rbp
	ret
.Ltmp110:
	.size	update_throttles, .Ltmp110-update_throttles
	.cfi_endproc

	.align	16, 0x90
	.type	show_stats,@function
show_stats:                             # @show_stats
	.cfi_startproc
# BB#0:                                 # %entry
	pushq	%rbx
.Ltmp113:
	.cfi_def_cfa_offset 16
.Ltmp114:
	.cfi_offset %rbx, -16
	movq	%rsi, %rbx
	movl	$508, %edi              # imm = 0x1FC
	callq	_StraightTaint_log
	movq	%rbx, %rdi
	popq	%rbx
	jmp	logstats                # TAILCALL
.Ltmp115:
	.size	show_stats, .Ltmp115-show_stats
	.cfi_endproc

	.section	.rodata.cst16,"aM",@progbits,16
	.align	16
.LCPI11_0:
	.zero	16
	.text
	.align	16, 0x90
	.type	handle_newconnect,@function
handle_newconnect:                      # @handle_newconnect
	.cfi_startproc
# BB#0:                                 # %entry
	pushq	%rbp
.Ltmp123:
	.cfi_def_cfa_offset 16
	pushq	%r15
.Ltmp124:
	.cfi_def_cfa_offset 24
	pushq	%r14
.Ltmp125:
	.cfi_def_cfa_offset 32
	pushq	%r13
.Ltmp126:
	.cfi_def_cfa_offset 40
	pushq	%r12
.Ltmp127:
	.cfi_def_cfa_offset 48
	pushq	%rbx
.Ltmp128:
	.cfi_def_cfa_offset 56
	pushq	%rax
.Ltmp129:
	.cfi_def_cfa_offset 64
.Ltmp130:
	.cfi_offset %rbx, -56
.Ltmp131:
	.cfi_offset %r12, -48
.Ltmp132:
	.cfi_offset %r13, -40
.Ltmp133:
	.cfi_offset %r14, -32
.Ltmp134:
	.cfi_offset %r15, -24
.Ltmp135:
	.cfi_offset %rbp, -16
	movl	%esi, %r15d
	movq	%rdi, %r14
	movl	$509, %edi              # imm = 0x1FD
	callq	_StraightTaint_log
	movl	num_connects(%rip), %eax
	cmpl	max_connects(%rip), %eax
	jge	.LBB11_16
# BB#1:                                 # %if.end.lr.ph
	movl	$510, %edi              # imm = 0x1FE
	callq	_StraightTaint_log
.LBB11_2:                               # %if.end
                                        # =>This Inner Loop Header: Depth=1
	movl	$512, %edi              # imm = 0x200
	callq	_StraightTaint_log
	movslq	first_free_connect(%rip), %rbx
	cmpq	$-1, %rbx
	je	.LBB11_4
# BB#3:                                 # %lor.lhs.false
                                        #   in Loop: Header=BB11_2 Depth=1
	movl	$513, %edi              # imm = 0x201
	callq	_StraightTaint_log
	movq	connects(%rip), %r12
	leaq	(%rbx,%rbx,8), %rbp
	shlq	$4, %rbp
	cmpl	$0, (%r12,%rbp)
	jne	.LBB11_4
# BB#6:                                 # %if.end4
                                        #   in Loop: Header=BB11_2 Depth=1
	movl	$515, %edi              # imm = 0x203
	callq	_StraightTaint_log
	leaq	8(%r12,%rbp), %r13
	movq	8(%r12,%rbp), %rbx
	testq	%rbx, %rbx
	jne	.LBB11_10
# BB#7:                                 # %if.then8
                                        #   in Loop: Header=BB11_2 Depth=1
	movl	$516, %edi              # imm = 0x204
	callq	_StraightTaint_log
	movl	$720, %edi              # imm = 0x2D0
	callq	malloc
	movq	%rax, %rbx
	testq	%rbx, %rbx
	movq	%rbx, (%r13)
	je	.LBB11_8
# BB#9:                                 # %if.end13
                                        #   in Loop: Header=BB11_2 Depth=1
	movl	$518, %edi              # imm = 0x206
	callq	_StraightTaint_log
	movl	$0, (%rbx)
	incl	httpd_conn_count(%rip)
.LBB11_10:                              # %if.end15
                                        #   in Loop: Header=BB11_2 Depth=1
	movl	$519, %edi              # imm = 0x207
	callq	_StraightTaint_log
	movq	hs(%rip), %rdi
	movl	%r15d, %esi
	movq	%rbx, %rdx
	callq	httpd_get_conn
	movl	$1, %ebx
	cmpl	$2, %eax
	je	.LBB11_17
# BB#11:                                # %if.end15
                                        #   in Loop: Header=BB11_2 Depth=1
	testl	%eax, %eax
	je	.LBB11_12
# BB#13:                                # %sw.epilog
                                        #   in Loop: Header=BB11_2 Depth=1
	leaq	(%r12,%rbp), %rbx
	movl	$521, %edi              # imm = 0x209
	callq	_StraightTaint_log
	movl	$1, (%rbx)
	movl	4(%r12,%rbp), %eax
	movl	%eax, first_free_connect(%rip)
	movl	$-1, 4(%r12,%rbp)
	incl	num_connects(%rip)
	movq	(%r14), %rax
	movq	%rax, 88(%r12,%rbp)
	movq	$0, 136(%r12,%rbp)
	movl	$0, 56(%r12,%rbp)
	xorps	%xmm0, %xmm0
	movups	%xmm0, 96(%r12,%rbp)
	movq	(%r13), %rax
	movl	704(%rax), %edi
	callq	httpd_set_ndelay
	movq	(%r13), %rax
	movl	704(%rax), %edi
	xorl	%edx, %edx
	movq	%rbx, %rsi
	callq	fdwatch_add_fd
	incq	stats_connections(%rip)
	movl	num_connects(%rip), %ebx
	cmpl	stats_simultaneous(%rip), %ebx
	jle	.LBB11_15
# BB#14:                                # %if.then27
                                        #   in Loop: Header=BB11_2 Depth=1
	movl	$522, %edi              # imm = 0x20A
	callq	_StraightTaint_log
	movl	%ebx, stats_simultaneous(%rip)
.LBB11_15:                              # %for.cond.backedge
                                        #   in Loop: Header=BB11_2 Depth=1
	movl	$523, %edi              # imm = 0x20B
	callq	_StraightTaint_log
	cmpl	max_connects(%rip), %ebx
	jl	.LBB11_2
.LBB11_16:                              # %if.then
	movl	$511, %edi              # imm = 0x1FF
	callq	_StraightTaint_log
	xorl	%ebx, %ebx
	movl	$4, %edi
	movl	$.L.str53, %esi
	xorl	%eax, %eax
	callq	syslog
	movq	%r14, %rdi
	callq	tmr_run
.LBB11_17:                              # %return
	movl	$524, %edi              # imm = 0x20C
	callq	_StraightTaint_log
	movl	%ebx, %eax
	addq	$8, %rsp
	popq	%rbx
	popq	%r12
	popq	%r13
	popq	%r14
	popq	%r15
	popq	%rbp
	ret
.LBB11_12:                              # %sw.bb
	movl	$520, %edi              # imm = 0x208
	callq	_StraightTaint_log
	movq	%r14, %rdi
	callq	tmr_run
	xorl	%ebx, %ebx
	jmp	.LBB11_17
.LBB11_4:                               # %if.then3
	movl	$514, %edi              # imm = 0x202
	callq	_StraightTaint_log
	movl	$2, %edi
	movl	$.L.str54, %esi
	jmp	.LBB11_5
.LBB11_8:                               # %if.then12
	movl	$517, %edi              # imm = 0x205
	callq	_StraightTaint_log
	movl	$2, %edi
	movl	$.L.str55, %esi
.LBB11_5:                               # %if.then3
	xorl	%eax, %eax
	callq	syslog
	movl	$1, %edi
	callq	exit
.Ltmp136:
	.size	handle_newconnect, .Ltmp136-handle_newconnect
	.cfi_endproc

	.align	16, 0x90
	.type	clear_connection,@function
clear_connection:                       # @clear_connection
	.cfi_startproc
# BB#0:                                 # %entry
	pushq	%r15
.Ltmp141:
	.cfi_def_cfa_offset 16
	pushq	%r14
.Ltmp142:
	.cfi_def_cfa_offset 24
	pushq	%rbx
.Ltmp143:
	.cfi_def_cfa_offset 32
.Ltmp144:
	.cfi_offset %rbx, -32
.Ltmp145:
	.cfi_offset %r14, -24
.Ltmp146:
	.cfi_offset %r15, -16
	movq	%rsi, %r14
	movq	%rdi, %r15
	movl	$525, %edi              # imm = 0x20D
	callq	_StraightTaint_log
	movq	96(%r15), %rbx
	testq	%rbx, %rbx
	je	.LBB12_2
# BB#1:                                 # %if.then
	movl	$526, %edi              # imm = 0x20E
	callq	_StraightTaint_log
	movq	%rbx, %rdi
	callq	tmr_cancel
	movq	$0, 96(%r15)
.LBB12_2:                               # %if.end
	movl	$527, %edi              # imm = 0x20F
	callq	_StraightTaint_log
	cmpl	$4, (%r15)
	jne	.LBB12_6
# BB#3:                                 # %if.end6.thread
	movl	$528, %edi              # imm = 0x210
	callq	_StraightTaint_log
	movq	104(%r15), %rdi
	callq	tmr_cancel
	movq	$0, 104(%r15)
	movq	8(%r15), %rax
	movl	$0, 556(%rax)
	jmp	.LBB12_4
.LBB12_6:                               # %if.end6
	movl	$529, %edi              # imm = 0x211
	callq	_StraightTaint_log
	movq	8(%r15), %rbx
	cmpl	$0, 556(%rbx)
	je	.LBB12_4
# BB#7:                                 # %if.then9
	movl	$530, %edi              # imm = 0x212
	callq	_StraightTaint_log
	cmpl	$3, (%r15)
	je	.LBB12_9
# BB#8:                                 # %if.then12
	movl	$531, %edi              # imm = 0x213
	callq	_StraightTaint_log
	movl	704(%rbx), %edi
	callq	fdwatch_del_fd
	movq	8(%r15), %rbx
.LBB12_9:                               # %if.end14
	movl	$532, %edi              # imm = 0x214
	callq	_StraightTaint_log
	movl	$4, (%r15)
	movl	704(%rbx), %edi
	movl	$1, %esi
	callq	shutdown
	movq	8(%r15), %rax
	movl	704(%rax), %edi
	xorl	%edx, %edx
	movq	%r15, %rsi
	callq	fdwatch_add_fd
	cmpq	$0, 104(%r15)
	je	.LBB12_11
# BB#10:                                # %if.then22
	movl	$533, %edi              # imm = 0x215
	callq	_StraightTaint_log
	movl	$3, %edi
	movl	$.L.str44, %esi
	xorl	%eax, %eax
	callq	syslog
.LBB12_11:                              # %if.end23
	movl	$534, %edi              # imm = 0x216
	callq	_StraightTaint_log
	movl	$linger_clear_connection, %esi
	movl	$500, %ecx              # imm = 0x1F4
	xorl	%r8d, %r8d
	movq	%r14, %rdi
	movq	%r15, %rdx
	callq	tmr_create
	testq	%rax, %rax
	movq	%rax, 104(%r15)
	jne	.LBB12_5
# BB#12:                                # %if.then28
	movl	$535, %edi              # imm = 0x217
	callq	_StraightTaint_log
	movl	$2, %edi
	movl	$.L.str45, %esi
	xorl	%eax, %eax
	callq	syslog
	movl	$1, %edi
	callq	exit
.LBB12_4:                               # %if.else
	movl	$536, %edi              # imm = 0x218
	callq	_StraightTaint_log
	movq	%r15, %rdi
	movq	%r14, %rsi
	callq	really_clear_connection
.LBB12_5:                               # %if.end30
	movl	$537, %edi              # imm = 0x219
	callq	_StraightTaint_log
	popq	%rbx
	popq	%r14
	popq	%r15
	ret
.Ltmp147:
	.size	clear_connection, .Ltmp147-clear_connection
	.cfi_endproc

	.align	16, 0x90
	.type	shut_down,@function
shut_down:                              # @shut_down
	.cfi_startproc
# BB#0:                                 # %entry
	pushq	%rbp
.Ltmp153:
	.cfi_def_cfa_offset 16
	pushq	%r15
.Ltmp154:
	.cfi_def_cfa_offset 24
	pushq	%r14
.Ltmp155:
	.cfi_def_cfa_offset 32
	pushq	%rbx
.Ltmp156:
	.cfi_def_cfa_offset 40
	subq	$24, %rsp
.Ltmp157:
	.cfi_def_cfa_offset 64
.Ltmp158:
	.cfi_offset %rbx, -40
.Ltmp159:
	.cfi_offset %r14, -32
.Ltmp160:
	.cfi_offset %r15, -24
.Ltmp161:
	.cfi_offset %rbp, -16
	movl	$538, %edi              # imm = 0x21A
	callq	_StraightTaint_log
	xorl	%r15d, %r15d
	leaq	8(%rsp), %rbp
	xorl	%esi, %esi
	movq	%rbp, %rdi
	callq	gettimeofday
	movq	%rbp, %rdi
	callq	logstats
	cmpl	$0, max_connects(%rip)
	movl	$8, %ebx
	jle	.LBB13_7
# BB#1:
	leaq	8(%rsp), %r14
	.align	16, 0x90
.LBB13_2:                               # %for.body
                                        # =>This Inner Loop Header: Depth=1
	movl	$539, %edi              # imm = 0x21B
	callq	_StraightTaint_log
	movq	connects(%rip), %rbp
	cmpl	$0, -8(%rbp,%rbx)
	je	.LBB13_4
# BB#3:                                 # %if.then
                                        #   in Loop: Header=BB13_2 Depth=1
	movl	$540, %edi              # imm = 0x21C
	callq	_StraightTaint_log
	movq	(%rbp,%rbx), %rdi
	movq	%r14, %rsi
	callq	httpd_close_conn
	movq	connects(%rip), %rbp
.LBB13_4:                               # %if.end
                                        #   in Loop: Header=BB13_2 Depth=1
	movl	$541, %edi              # imm = 0x21D
	callq	_StraightTaint_log
	movq	(%rbp,%rbx), %rbp
	testq	%rbp, %rbp
	je	.LBB13_6
# BB#5:                                 # %if.then8
                                        #   in Loop: Header=BB13_2 Depth=1
	movl	$542, %edi              # imm = 0x21E
	callq	_StraightTaint_log
	movq	%rbp, %rdi
	callq	httpd_destroy_conn
	movq	connects(%rip), %rax
	movq	(%rax,%rbx), %rdi
	callq	free
	decl	httpd_conn_count(%rip)
	movq	connects(%rip), %rax
	movq	$0, (%rax,%rbx)
.LBB13_6:                               # %for.inc
                                        #   in Loop: Header=BB13_2 Depth=1
	movl	$543, %edi              # imm = 0x21F
	callq	_StraightTaint_log
	incl	%r15d
	addq	$144, %rbx
	cmpl	max_connects(%rip), %r15d
	jl	.LBB13_2
.LBB13_7:                               # %for.end
	movl	$544, %edi              # imm = 0x220
	callq	_StraightTaint_log
	movq	hs(%rip), %rbx
	testq	%rbx, %rbx
	je	.LBB13_13
# BB#8:                                 # %if.then20
	movl	$545, %edi              # imm = 0x221
	callq	_StraightTaint_log
	movq	$0, hs(%rip)
	movl	72(%rbx), %ebp
	cmpl	$-1, %ebp
	je	.LBB13_10
# BB#9:                                 # %if.then22
	movl	$546, %edi              # imm = 0x222
	callq	_StraightTaint_log
	movl	%ebp, %edi
	callq	fdwatch_del_fd
.LBB13_10:                              # %if.end24
	movl	$547, %edi              # imm = 0x223
	callq	_StraightTaint_log
	movl	76(%rbx), %ebp
	cmpl	$-1, %ebp
	je	.LBB13_12
# BB#11:                                # %if.then26
	movl	$548, %edi              # imm = 0x224
	callq	_StraightTaint_log
	movl	%ebp, %edi
	callq	fdwatch_del_fd
.LBB13_12:                              # %if.end28
	movl	$549, %edi              # imm = 0x225
	callq	_StraightTaint_log
	movq	%rbx, %rdi
	callq	httpd_terminate
.LBB13_13:                              # %if.end29
	movl	$550, %edi              # imm = 0x226
	callq	_StraightTaint_log
	callq	mmc_destroy
	callq	tmr_destroy
	movq	connects(%rip), %rdi
	callq	free
	movq	throttles(%rip), %rbx
	testq	%rbx, %rbx
	je	.LBB13_15
# BB#14:                                # %if.then31
	movl	$551, %edi              # imm = 0x227
	callq	_StraightTaint_log
	movq	%rbx, %rdi
	callq	free
.LBB13_15:                              # %if.end32
	movl	$552, %edi              # imm = 0x228
	callq	_StraightTaint_log
	addq	$24, %rsp
	popq	%rbx
	popq	%r14
	popq	%r15
	popq	%rbp
	ret
.Ltmp162:
	.size	shut_down, .Ltmp162-shut_down
	.cfi_endproc

	.align	16, 0x90
	.type	logstats,@function
logstats:                               # @logstats
	.cfi_startproc
# BB#0:                                 # %entry
	pushq	%rbx
.Ltmp165:
	.cfi_def_cfa_offset 16
	subq	$16, %rsp
.Ltmp166:
	.cfi_def_cfa_offset 32
.Ltmp167:
	.cfi_offset %rbx, -16
	movq	%rdi, %rbx
	movl	$553, %edi              # imm = 0x229
	callq	_StraightTaint_log
	testq	%rbx, %rbx
	jne	.LBB14_2
# BB#1:                                 # %if.then
	movl	$554, %edi              # imm = 0x22A
	callq	_StraightTaint_log
	leaq	(%rsp), %rbx
	xorl	%esi, %esi
	movq	%rbx, %rdi
	callq	gettimeofday
.LBB14_2:                               # %if.end
	movl	$555, %edi              # imm = 0x22B
	callq	_StraightTaint_log
	movq	(%rbx), %rax
	movq	%rax, %rdx
	subq	start_time(%rip), %rdx
	movq	%rax, %rcx
	subq	stats_time(%rip), %rcx
	movl	$1, %ebx
	cmovneq	%rcx, %rbx
	movq	%rax, stats_time(%rip)
	movl	$6, %edi
	movl	$.L.str39, %esi
	xorl	%eax, %eax
	movq	%rbx, %rcx
	callq	syslog
	testq	%rbx, %rbx
	jle	.LBB14_4
# BB#3:                                 # %if.then.i
	movl	$556, %edi              # imm = 0x22C
	callq	_StraightTaint_log
	movq	stats_connections(%rip), %rdx
	cvtsi2ssq	%rdx, %xmm0
	cvtsi2ssq	%rbx, %xmm1
	divss	%xmm1, %xmm0
	cvtss2sd	%xmm0, %xmm0
	movl	stats_simultaneous(%rip), %ecx
	movq	stats_bytes(%rip), %r8
	cvtsi2ssq	%r8, %xmm2
	divss	%xmm1, %xmm2
	xorps	%xmm1, %xmm1
	cvtss2sd	%xmm2, %xmm1
	movl	httpd_conn_count(%rip), %r9d
	movl	$6, %edi
	movl	$.L.str40, %esi
	movb	$2, %al
	callq	syslog
.LBB14_4:                               # %thttpd_logstats.exit
	movl	$557, %edi              # imm = 0x22D
	callq	_StraightTaint_log
	movq	$0, stats_connections(%rip)
	movq	$0, stats_bytes(%rip)
	movl	$0, stats_simultaneous(%rip)
	movq	%rbx, %rdi
	callq	httpd_logstats
	movq	%rbx, %rdi
	callq	mmc_logstats
	movq	%rbx, %rdi
	callq	fdwatch_logstats
	movq	%rbx, %rdi
	addq	$16, %rsp
	popq	%rbx
	jmp	tmr_logstats            # TAILCALL
.Ltmp168:
	.size	logstats, .Ltmp168-logstats
	.cfi_endproc

	.align	16, 0x90
	.type	linger_clear_connection,@function
linger_clear_connection:                # @linger_clear_connection
	.cfi_startproc
# BB#0:                                 # %entry
	pushq	%r14
.Ltmp172:
	.cfi_def_cfa_offset 16
	pushq	%rbx
.Ltmp173:
	.cfi_def_cfa_offset 24
	pushq	%rax
.Ltmp174:
	.cfi_def_cfa_offset 32
.Ltmp175:
	.cfi_offset %rbx, -24
.Ltmp176:
	.cfi_offset %r14, -16
	movq	%rsi, %r14
	movq	%rdi, %rbx
	movl	$558, %edi              # imm = 0x22E
	callq	_StraightTaint_log
	movq	$0, 104(%rbx)
	movq	%rbx, %rdi
	movq	%r14, %rsi
	addq	$8, %rsp
	popq	%rbx
	popq	%r14
	jmp	really_clear_connection # TAILCALL
.Ltmp177:
	.size	linger_clear_connection, .Ltmp177-linger_clear_connection
	.cfi_endproc

	.align	16, 0x90
	.type	really_clear_connection,@function
really_clear_connection:                # @really_clear_connection
	.cfi_startproc
# BB#0:                                 # %entry
	pushq	%rbp
.Ltmp184:
	.cfi_def_cfa_offset 16
	pushq	%r15
.Ltmp185:
	.cfi_def_cfa_offset 24
	pushq	%r14
.Ltmp186:
	.cfi_def_cfa_offset 32
	pushq	%r12
.Ltmp187:
	.cfi_def_cfa_offset 40
	pushq	%rbx
.Ltmp188:
	.cfi_def_cfa_offset 48
.Ltmp189:
	.cfi_offset %rbx, -48
.Ltmp190:
	.cfi_offset %r12, -40
.Ltmp191:
	.cfi_offset %r14, -32
.Ltmp192:
	.cfi_offset %r15, -24
.Ltmp193:
	.cfi_offset %rbp, -16
	movq	%rsi, %r14
	movq	%rdi, %r12
	movl	$559, %edi              # imm = 0x22F
	callq	_StraightTaint_log
	movq	8(%r12), %r15
	movq	200(%r15), %rax
	addq	%rax, stats_bytes(%rip)
	cmpl	$3, (%r12)
	je	.LBB16_2
# BB#1:                                 # %if.then
	movl	$560, %edi              # imm = 0x230
	callq	_StraightTaint_log
	movl	704(%r15), %edi
	callq	fdwatch_del_fd
	movq	8(%r12), %r15
.LBB16_2:                               # %if.end
	movl	$561, %edi              # imm = 0x231
	callq	_StraightTaint_log
	movq	%r15, %rdi
	movq	%r14, %rsi
	callq	httpd_close_conn
	movl	56(%r12), %ebp
	testl	%ebp, %ebp
	jle	.LBB16_5
# BB#3:                                 # %for.body.lr.ph.i
	movl	$562, %edi              # imm = 0x232
	callq	_StraightTaint_log
	movq	throttles(%rip), %r14
	leaq	16(%r12), %rbx
	.align	16, 0x90
.LBB16_4:                               # %for.body.i
                                        # =>This Inner Loop Header: Depth=1
	movl	$563, %edi              # imm = 0x233
	callq	_StraightTaint_log
	movslq	(%rbx), %rax
	leaq	(%rax,%rax,2), %rax
	shlq	$4, %rax
	decl	40(%r14,%rax)
	addq	$4, %rbx
	decl	%ebp
	jne	.LBB16_4
.LBB16_5:                               # %clear_throttles.exit
	movl	$564, %edi              # imm = 0x234
	callq	_StraightTaint_log
	movq	104(%r12), %r14
	testq	%r14, %r14
	je	.LBB16_7
# BB#6:                                 # %if.then4
	movl	$565, %edi              # imm = 0x235
	callq	_StraightTaint_log
	movq	%r14, %rdi
	callq	tmr_cancel
	movq	$0, 104(%r12)
.LBB16_7:                               # %if.end7
	movl	$566, %edi              # imm = 0x236
	callq	_StraightTaint_log
	movl	$0, (%r12)
	movl	first_free_connect(%rip), %eax
	movl	%eax, 4(%r12)
	subq	connects(%rip), %r12
	shrq	$4, %r12
	imull	$954437177, %r12d, %eax # imm = 0x38E38E39
	movl	%eax, first_free_connect(%rip)
	decl	num_connects(%rip)
	popq	%rbx
	popq	%r12
	popq	%r14
	popq	%r15
	popq	%rbp
	ret
.Ltmp194:
	.size	really_clear_connection, .Ltmp194-really_clear_connection
	.cfi_endproc

	.align	16, 0x90
	.type	wakeup_connection,@function
wakeup_connection:                      # @wakeup_connection
	.cfi_startproc
# BB#0:                                 # %entry
	pushq	%rbx
.Ltmp197:
	.cfi_def_cfa_offset 16
.Ltmp198:
	.cfi_offset %rbx, -16
	movq	%rdi, %rbx
	movl	$567, %edi              # imm = 0x237
	callq	_StraightTaint_log
	movq	$0, 96(%rbx)
	cmpl	$3, (%rbx)
	jne	.LBB17_2
# BB#1:                                 # %if.then
	movl	$568, %edi              # imm = 0x238
	callq	_StraightTaint_log
	movl	$2, (%rbx)
	movq	8(%rbx), %rax
	movl	704(%rax), %edi
	movl	$1, %edx
	movq	%rbx, %rsi
	callq	fdwatch_add_fd
.LBB17_2:                               # %if.end
	movl	$569, %edi              # imm = 0x239
	callq	_StraightTaint_log
	popq	%rbx
	ret
.Ltmp199:
	.size	wakeup_connection, .Ltmp199-wakeup_connection
	.cfi_endproc

	.align	16, 0x90
	.type	usage,@function
usage:                                  # @usage
	.cfi_startproc
# BB#0:                                 # %entry
	pushq	%rax
.Ltmp201:
	.cfi_def_cfa_offset 16
	movl	$570, %edi              # imm = 0x23A
	callq	_StraightTaint_log
	movq	stderr(%rip), %rdi
	movq	argv0(%rip), %rdx
	movl	$.L.str97, %esi
	xorl	%eax, %eax
	callq	fprintf
	movl	$1, %edi
	callq	exit
.Ltmp202:
	.size	usage, .Ltmp202-usage
	.cfi_endproc

	.globl	httpd_initialize
	.align	16, 0x90
	.type	httpd_initialize,@function
httpd_initialize:                       # @httpd_initialize
	.cfi_startproc
# BB#0:                                 # %entry
	pushq	%rbp
.Ltmp210:
	.cfi_def_cfa_offset 16
	pushq	%r15
.Ltmp211:
	.cfi_def_cfa_offset 24
	pushq	%r14
.Ltmp212:
	.cfi_def_cfa_offset 32
	pushq	%r13
.Ltmp213:
	.cfi_def_cfa_offset 40
	pushq	%r12
.Ltmp214:
	.cfi_def_cfa_offset 48
	pushq	%rbx
.Ltmp215:
	.cfi_def_cfa_offset 56
	subq	$24, %rsp
.Ltmp216:
	.cfi_def_cfa_offset 80
.Ltmp217:
	.cfi_offset %rbx, -56
.Ltmp218:
	.cfi_offset %r12, -48
.Ltmp219:
	.cfi_offset %r13, -40
.Ltmp220:
	.cfi_offset %r14, -32
.Ltmp221:
	.cfi_offset %r15, -24
.Ltmp222:
	.cfi_offset %rbp, -16
	movl	%r9d, %r14d
	movq	%r8, %r13
	movl	%ecx, %r15d
	movq	%rdx, 16(%rsp)          # 8-byte Spill
	movq	%rsi, %rbp
	movq	%rdi, %r12
	movl	$571, %edi              # imm = 0x23B
	callq	_StraightTaint_log
	movl	$136, %edi
	callq	malloc
	movq	%rax, %rbx
	testq	%rbx, %rbx
	je	.LBB19_1
# BB#3:                                 # %if.end
	movl	$573, %edi              # imm = 0x23D
	callq	_StraightTaint_log
	testq	%r12, %r12
	je	.LBB19_7
# BB#4:                                 # %if.then2
	movq	%rbp, 8(%rsp)           # 8-byte Spill
	movl	$574, %edi              # imm = 0x23E
	callq	_StraightTaint_log
	movq	%r12, %rdi
	callq	__strdup
	movq	%rax, %rbp
	testq	%rbp, %rbp
	movq	%rbp, (%rbx)
	je	.LBB19_5
# BB#6:                                 # %if.end7
	movl	$576, %edi              # imm = 0x240
	callq	_StraightTaint_log
	movq	%rbp, 8(%rbx)
	jmp	.LBB19_12
.LBB19_1:                               # %if.then
	movl	$572, %edi              # imm = 0x23C
	callq	_StraightTaint_log
	xorl	%ebx, %ebx
	movl	$2, %edi
	movl	$.L.str5, %esi
	jmp	.LBB19_2
.LBB19_7:                               # %if.else
	movq	%rbp, 8(%rsp)           # 8-byte Spill
	movl	$577, %edi              # imm = 0x241
	callq	_StraightTaint_log
	xorps	%xmm0, %xmm0
	movups	%xmm0, (%rbx)
	movl	$httpd_initialize.ghnbuf, %edi
	movl	$256, %esi              # imm = 0x100
	callq	gethostname
	testl	%eax, %eax
	js	.LBB19_8
# BB#9:                                 # %if.end14
	movl	$579, %edi              # imm = 0x243
	callq	_StraightTaint_log
	cmpq	$0, 8(%rbx)
	jne	.LBB19_12
# BB#10:                                # %if.end14
	movb	httpd_initialize.ghnbuf(%rip), %al
	testb	%al, %al
	je	.LBB19_12
# BB#11:                                # %if.then20
	movl	$580, %edi              # imm = 0x244
	callq	_StraightTaint_log
	movq	$httpd_initialize.ghnbuf, 8(%rbx)
	jmp	.LBB19_12
.LBB19_5:                               # %if.then6
	movl	$575, %edi              # imm = 0x23F
	callq	_StraightTaint_log
	xorl	%ebx, %ebx
	movl	$2, %edi
	movl	$.L.str133, %esi
	jmp	.LBB19_2
.LBB19_8:                               # %if.end14.thread
	movl	$578, %edi              # imm = 0x242
	callq	_StraightTaint_log
	movb	$0, httpd_initialize.ghnbuf(%rip)
.LBB19_12:                              # %if.end24
	movl	$581, %edi              # imm = 0x245
	callq	_StraightTaint_log
	movw	%r15w, 16(%rbx)
	testq	%r13, %r13
	je	.LBB19_13
# BB#14:                                # %if.else30
	movl	$583, %edi              # imm = 0x247
	callq	_StraightTaint_log
	movzbl	(%r13), %eax
	cmpl	$47, %eax
	jne	.LBB19_16
# BB#15:
	incq	%r13
.LBB19_16:                              # %select.end
	movq	%r13, %rdi
	callq	__strdup
	movq	%rax, %rbp
	testq	%rbp, %rbp
	movq	%rbp, 24(%rbx)
	je	.LBB19_46
# BB#17:                                # %while.cond.preheader
	movl	$584, %edi              # imm = 0x248
	callq	_StraightTaint_log
	movl	$.L.str335, %esi
	movq	%rbp, %rdi
	jmp	.LBB19_19
	.align	16, 0x90
.LBB19_18:                              # %while.body
                                        #   in Loop: Header=BB19_19 Depth=1
	movl	$586, %edi              # imm = 0x24A
	callq	_StraightTaint_log
	leaq	1(%rbp), %rdi
	addq	$2, %rbp
	movq	%rbp, %rsi
	callq	strcpy
	movq	24(%rbx), %rdi
	movl	$.L.str335, %esi
.LBB19_19:                              # %while.body
                                        # =>This Inner Loop Header: Depth=1
	callq	strstr
	movq	%rax, %rbp
	testq	%rbp, %rbp
	jne	.LBB19_18
	jmp	.LBB19_20
.LBB19_13:                              # %if.then28
	movl	$582, %edi              # imm = 0x246
	callq	_StraightTaint_log
	movq	$0, 24(%rbx)
.LBB19_20:                              # %if.end49
	movl	$587, %edi              # imm = 0x24B
	callq	_StraightTaint_log
	movl	%r14d, 32(%rbx)
	movl	$0, 36(%rbx)
	movq	80(%rsp), %rdi
	callq	__strdup
	movq	%rax, 40(%rbx)
	movq	88(%rsp), %rdi
	callq	__strdup
	movq	%rax, 48(%rbx)
	movl	96(%rsp), %eax
	movl	%eax, 56(%rbx)
	movq	104(%rsp), %rdi
	callq	__strdup
	testq	%rax, %rax
	movq	%rax, 64(%rbx)
	je	.LBB19_21
# BB#22:                                # %if.end62
	movl	$589, %edi              # imm = 0x24D
	callq	_StraightTaint_log
	movq	152(%rsp), %r14
	testq	%r14, %r14
	movq	160(%rsp), %rbp
	je	.LBB19_23
# BB#28:                                # %if.else67
	movl	$591, %edi              # imm = 0x24F
	callq	_StraightTaint_log
	movq	%r14, %rdi
	callq	__strdup
	testq	%rax, %rax
	movq	%rax, 112(%rbx)
	movq	8(%rsp), %r15           # 8-byte Reload
	jne	.LBB19_24
# BB#29:                                # %if.then73
	movl	$592, %edi              # imm = 0x250
	callq	_StraightTaint_log
	xorl	%ebx, %ebx
	movl	$2, %edi
	movl	$.L.str537, %esi
	jmp	.LBB19_2
.LBB19_21:                              # %if.then61
	movl	$588, %edi              # imm = 0x24C
	callq	_StraightTaint_log
	xorl	%ebx, %ebx
	movl	$2, %edi
	movl	$.L.str436, %esi
	jmp	.LBB19_2
.LBB19_46:                              # %if.then41
	movl	$585, %edi              # imm = 0x249
	callq	_StraightTaint_log
	xorl	%ebx, %ebx
	movl	$2, %edi
	movl	$.L.str234, %esi
	jmp	.LBB19_2
.LBB19_23:                              # %if.then65
	movl	$590, %edi              # imm = 0x24E
	callq	_StraightTaint_log
	movq	$0, 112(%rbx)
	movq	8(%rsp), %r15           # 8-byte Reload
.LBB19_24:                              # %if.end75
	movl	$593, %edi              # imm = 0x251
	callq	_StraightTaint_log
	testq	%rbp, %rbp
	movq	16(%rsp), %r12          # 8-byte Reload
	je	.LBB19_25
# BB#30:                                # %if.else80
	movl	$595, %edi              # imm = 0x253
	callq	_StraightTaint_log
	movq	%rbp, %rdi
	callq	__strdup
	testq	%rax, %rax
	movq	%rax, 120(%rbx)
	jne	.LBB19_26
# BB#31:                                # %if.then86
	movl	$596, %edi              # imm = 0x254
	callq	_StraightTaint_log
	xorl	%ebx, %ebx
	movl	$2, %edi
	movl	$.L.str638, %esi
.LBB19_2:                               # %return
	xorl	%eax, %eax
	callq	syslog
.LBB19_45:                              # %return
	movl	$610, %edi              # imm = 0x262
	callq	_StraightTaint_log
	movq	%rbx, %rax
	addq	$24, %rsp
	popq	%rbx
	popq	%r12
	popq	%r13
	popq	%r14
	popq	%r15
	popq	%rbp
	ret
.LBB19_25:                              # %if.then78
	movl	$594, %edi              # imm = 0x252
	callq	_StraightTaint_log
	movq	$0, 120(%rbx)
.LBB19_26:                              # %httpd_set_logfp.exit
	movl	$597, %edi              # imm = 0x255
	callq	_StraightTaint_log
	movl	112(%rsp), %eax
	movl	%eax, 80(%rbx)
	movq	120(%rsp), %rax
	movq	%rax, 88(%rbx)
	movl	128(%rsp), %eax
	movl	%eax, 96(%rbx)
	movl	136(%rsp), %eax
	movl	%eax, 100(%rbx)
	movl	144(%rsp), %eax
	movl	%eax, 104(%rbx)
	movl	168(%rsp), %eax
	movl	%eax, 128(%rbx)
	testq	%r12, %r12
	je	.LBB19_27
# BB#32:                                # %if.else98
	movl	$599, %edi              # imm = 0x257
	callq	_StraightTaint_log
	movq	%r12, %rdi
	callq	initialize_listen_socket
	movl	%eax, 76(%rbx)
	jmp	.LBB19_33
.LBB19_27:                              # %if.then97
	movl	$598, %edi              # imm = 0x256
	callq	_StraightTaint_log
	movl	$-1, 76(%rbx)
.LBB19_33:                              # %if.end101
	movl	$600, %edi              # imm = 0x258
	callq	_StraightTaint_log
	testq	%r15, %r15
	je	.LBB19_34
# BB#35:                                # %if.end108
	movl	$602, %edi              # imm = 0x25A
	callq	_StraightTaint_log
	movq	%r15, %rdi
	callq	initialize_listen_socket
	leaq	72(%rbx), %r14
	cmpl	$-1, %eax
	movl	%eax, 72(%rbx)
	jne	.LBB19_38
	jmp	.LBB19_36
.LBB19_34:                              # %if.end108.thread
	movl	$601, %edi              # imm = 0x259
	callq	_StraightTaint_log
	leaq	72(%rbx), %r14
	movl	$-1, 72(%rbx)
.LBB19_36:                              # %land.lhs.true
	movl	$603, %edi              # imm = 0x25B
	callq	_StraightTaint_log
	cmpl	$-1, 76(%rbx)
	je	.LBB19_37
.LBB19_38:                              # %if.end116
	movl	$605, %edi              # imm = 0x25D
	callq	_StraightTaint_log
	movl	$enc_tab, %edi
	movl	$3, %esi
	movl	$32, %edx
	movl	$ext_compare, %ecx
	callq	qsort
	movl	$typ_tab, %edi
	movl	$190, %esi
	movl	$32, %edx
	movl	$ext_compare, %ecx
	callq	qsort
	movq	enc_tab(%rip), %rdi
	callq	strlen
	movq	%rax, enc_tab+8(%rip)
	movq	enc_tab+16(%rip), %rdi
	callq	strlen
	movq	%rax, enc_tab+24(%rip)
	movq	enc_tab+32(%rip), %rdi
	callq	strlen
	movq	%rax, enc_tab+40(%rip)
	movq	enc_tab+48(%rip), %rdi
	callq	strlen
	movq	%rax, enc_tab+56(%rip)
	movq	enc_tab+64(%rip), %rdi
	callq	strlen
	movq	%rax, enc_tab+72(%rip)
	movq	enc_tab+80(%rip), %rdi
	callq	strlen
	movq	%rax, enc_tab+88(%rip)
	movq	$-6080, %rbp            # imm = 0xFFFFFFFFFFFFE840
	.align	16, 0x90
.LBB19_39:                              # %for.body10.i
                                        # =>This Inner Loop Header: Depth=1
	movl	$606, %edi              # imm = 0x25E
	callq	_StraightTaint_log
	movq	typ_tab+6080(%rbp), %rdi
	callq	strlen
	movq	%rax, typ_tab+6088(%rbp)
	movq	typ_tab+6096(%rbp), %rdi
	callq	strlen
	movq	%rax, typ_tab+6104(%rbp)
	addq	$32, %rbp
	jne	.LBB19_39
# BB#40:                                # %init_mime.exit
	movl	$607, %edi              # imm = 0x25F
	callq	_StraightTaint_log
	cmpq	$0, (%rbx)
	movq	%r15, %rbp
	je	.LBB19_41
# BB#42:                                # %if.else123
	movl	$609, %edi              # imm = 0x261
	callq	_StraightTaint_log
	cmpl	$-1, (%r14)
	jne	.LBB19_44
# BB#43:                                # %select.mid25
	movq	%r12, %rbp
.LBB19_44:                              # %select.end24
	movq	%rbp, %rdi
	callq	httpd_ntoa
	movzwl	16(%rbx), %r8d
	movl	$5, %edi
	movl	$.L.str941, %esi
	movl	$.L.str840, %edx
	movl	$httpd_ntoa.str, %ecx
	xorl	%eax, %eax
	callq	syslog
	jmp	.LBB19_45
.LBB19_41:                              # %if.then120
	movl	$608, %edi              # imm = 0x260
	callq	_StraightTaint_log
	movzwl	16(%rbx), %ecx
	movl	$5, %edi
	movl	$.L.str739, %esi
	movl	$.L.str840, %edx
	xorl	%eax, %eax
	callq	syslog
	jmp	.LBB19_45
.LBB19_37:                              # %if.then115
	movl	$604, %edi              # imm = 0x25C
	callq	_StraightTaint_log
	movq	%rbx, %rdi
	callq	free_httpd_server
	xorl	%ebx, %ebx
	jmp	.LBB19_45
.Ltmp223:
	.size	httpd_initialize, .Ltmp223-httpd_initialize
	.cfi_endproc

	.globl	httpd_set_logfp
	.align	16, 0x90
	.type	httpd_set_logfp,@function
httpd_set_logfp:                        # @httpd_set_logfp
	.cfi_startproc
# BB#0:                                 # %entry
	pushq	%r15
.Ltmp228:
	.cfi_def_cfa_offset 16
	pushq	%r14
.Ltmp229:
	.cfi_def_cfa_offset 24
	pushq	%rbx
.Ltmp230:
	.cfi_def_cfa_offset 32
.Ltmp231:
	.cfi_offset %rbx, -32
.Ltmp232:
	.cfi_offset %r14, -24
.Ltmp233:
	.cfi_offset %r15, -16
	movq	%rsi, %r14
	movq	%rdi, %r15
	movl	$611, %edi              # imm = 0x263
	callq	_StraightTaint_log
	movq	88(%r15), %rbx
	testq	%rbx, %rbx
	je	.LBB20_2
# BB#1:                                 # %if.then
	movl	$612, %edi              # imm = 0x264
	callq	_StraightTaint_log
	movq	%rbx, %rdi
	callq	fclose
.LBB20_2:                               # %if.end
	movl	$613, %edi              # imm = 0x265
	callq	_StraightTaint_log
	movq	%r14, 88(%r15)
	popq	%rbx
	popq	%r14
	popq	%r15
	ret
.Ltmp234:
	.size	httpd_set_logfp, .Ltmp234-httpd_set_logfp
	.cfi_endproc

	.globl	httpd_ntoa
	.align	16, 0x90
	.type	httpd_ntoa,@function
httpd_ntoa:                             # @httpd_ntoa
	.cfi_startproc
# BB#0:                                 # %entry
	pushq	%rbp
.Ltmp238:
	.cfi_def_cfa_offset 16
	pushq	%rbx
.Ltmp239:
	.cfi_def_cfa_offset 24
	pushq	%rax
.Ltmp240:
	.cfi_def_cfa_offset 32
.Ltmp241:
	.cfi_offset %rbx, -24
.Ltmp242:
	.cfi_offset %rbp, -16
	movq	%rdi, %rbx
	movl	$614, %edi              # imm = 0x266
	callq	_StraightTaint_log
	movzwl	(%rbx), %eax
	movl	$16, %ebp
	cmpl	$2, %eax
	je	.LBB21_4
# BB#1:                                 # %entry
	cmpl	$10, %eax
	jne	.LBB21_3
# BB#2:                                 # %sw.bb1.i
	movl	$615, %edi              # imm = 0x267
	callq	_StraightTaint_log
	movl	$28, %ebp
	jmp	.LBB21_4
.LBB21_3:                               # %sw.default.i
	movl	$616, %edi              # imm = 0x268
	callq	_StraightTaint_log
	xorl	%ebp, %ebp
.LBB21_4:                               # %sockaddr_len.exit
	movl	$617, %edi              # imm = 0x269
	callq	_StraightTaint_log
	movl	$1, (%rsp)
	movl	$httpd_ntoa.str, %edx
	movl	$200, %ecx
	xorl	%r8d, %r8d
	xorl	%r9d, %r9d
	movq	%rbx, %rdi
	movl	%ebp, %esi
	callq	getnameinfo
	testl	%eax, %eax
	je	.LBB21_6
# BB#5:                                 # %if.then
	movl	$618, %edi              # imm = 0x26A
	callq	_StraightTaint_log
	movb	$63, httpd_ntoa.str(%rip)
	movb	$0, httpd_ntoa.str+1(%rip)
	jmp	.LBB21_11
.LBB21_6:                               # %if.else
	movl	$619, %edi              # imm = 0x26B
	callq	_StraightTaint_log
	cmpl	$0, 8(%rbx)
	jne	.LBB21_11
# BB#7:                                 # %land.lhs.true
	movl	$620, %edi              # imm = 0x26C
	callq	_StraightTaint_log
	cmpl	$0, 12(%rbx)
	jne	.LBB21_11
# BB#8:                                 # %land.rhs
	movl	$621, %edi              # imm = 0x26D
	callq	_StraightTaint_log
	cmpl	$-65536, 16(%rbx)       # imm = 0xFFFFFFFFFFFF0000
	jne	.LBB21_11
# BB#9:                                 # %land.lhs.true18
	movl	$622, %edi              # imm = 0x26E
	callq	_StraightTaint_log
	movl	$httpd_ntoa.str, %edi
	movl	$.L.str5698, %esi
	movl	$7, %edx
	callq	strncmp
	testl	%eax, %eax
	jne	.LBB21_11
# BB#10:                                # %if.then22
	movl	$623, %edi              # imm = 0x26F
	callq	_StraightTaint_log
	movl	$httpd_ntoa.str, %edi
	movl	$httpd_ntoa.str+7, %esi
	callq	strcpy
.LBB21_11:                              # %if.end24
	movl	$624, %edi              # imm = 0x270
	callq	_StraightTaint_log
	movl	$httpd_ntoa.str, %eax
	addq	$8, %rsp
	popq	%rbx
	popq	%rbp
	ret
.Ltmp243:
	.size	httpd_ntoa, .Ltmp243-httpd_ntoa
	.cfi_endproc

	.globl	httpd_terminate
	.align	16, 0x90
	.type	httpd_terminate,@function
httpd_terminate:                        # @httpd_terminate
	.cfi_startproc
# BB#0:                                 # %entry
	pushq	%rbp
.Ltmp247:
	.cfi_def_cfa_offset 16
	pushq	%rbx
.Ltmp248:
	.cfi_def_cfa_offset 24
	pushq	%rax
.Ltmp249:
	.cfi_def_cfa_offset 32
.Ltmp250:
	.cfi_offset %rbx, -24
.Ltmp251:
	.cfi_offset %rbp, -16
	movq	%rdi, %rbx
	movl	$625, %edi              # imm = 0x271
	callq	_StraightTaint_log
	movl	72(%rbx), %ebp
	cmpl	$-1, %ebp
	je	.LBB22_2
# BB#1:                                 # %if.then.i
	movl	$626, %edi              # imm = 0x272
	callq	_StraightTaint_log
	movl	%ebp, %edi
	callq	close
	movl	$-1, 72(%rbx)
.LBB22_2:                               # %if.end.i
	movl	$627, %edi              # imm = 0x273
	callq	_StraightTaint_log
	movl	76(%rbx), %ebp
	cmpl	$-1, %ebp
	je	.LBB22_4
# BB#3:                                 # %if.then4.i
	movl	$628, %edi              # imm = 0x274
	callq	_StraightTaint_log
	movl	%ebp, %edi
	callq	close
	movl	$-1, 76(%rbx)
.LBB22_4:                               # %httpd_unlisten.exit
	movl	$629, %edi              # imm = 0x275
	callq	_StraightTaint_log
	movq	88(%rbx), %rbp
	testq	%rbp, %rbp
	je	.LBB22_6
# BB#5:                                 # %if.then
	movl	$630, %edi              # imm = 0x276
	callq	_StraightTaint_log
	movq	%rbp, %rdi
	callq	fclose
.LBB22_6:                               # %if.end
	movl	$631, %edi              # imm = 0x277
	callq	_StraightTaint_log
	movq	%rbx, %rdi
	addq	$8, %rsp
	popq	%rbx
	popq	%rbp
	jmp	free_httpd_server       # TAILCALL
.Ltmp252:
	.size	httpd_terminate, .Ltmp252-httpd_terminate
	.cfi_endproc

	.globl	httpd_unlisten
	.align	16, 0x90
	.type	httpd_unlisten,@function
httpd_unlisten:                         # @httpd_unlisten
	.cfi_startproc
# BB#0:                                 # %entry
	pushq	%rbp
.Ltmp256:
	.cfi_def_cfa_offset 16
	pushq	%rbx
.Ltmp257:
	.cfi_def_cfa_offset 24
	pushq	%rax
.Ltmp258:
	.cfi_def_cfa_offset 32
.Ltmp259:
	.cfi_offset %rbx, -24
.Ltmp260:
	.cfi_offset %rbp, -16
	movq	%rdi, %rbx
	movl	$632, %edi              # imm = 0x278
	callq	_StraightTaint_log
	movl	72(%rbx), %ebp
	cmpl	$-1, %ebp
	je	.LBB23_2
# BB#1:                                 # %if.then
	movl	$633, %edi              # imm = 0x279
	callq	_StraightTaint_log
	movl	%ebp, %edi
	callq	close
	movl	$-1, 72(%rbx)
.LBB23_2:                               # %if.end
	movl	$634, %edi              # imm = 0x27A
	callq	_StraightTaint_log
	movl	76(%rbx), %ebp
	cmpl	$-1, %ebp
	je	.LBB23_4
# BB#3:                                 # %if.then4
	movl	$635, %edi              # imm = 0x27B
	callq	_StraightTaint_log
	movl	%ebp, %edi
	callq	close
	movl	$-1, 76(%rbx)
.LBB23_4:                               # %if.end8
	movl	$636, %edi              # imm = 0x27C
	callq	_StraightTaint_log
	addq	$8, %rsp
	popq	%rbx
	popq	%rbp
	ret
.Ltmp261:
	.size	httpd_unlisten, .Ltmp261-httpd_unlisten
	.cfi_endproc

	.globl	httpd_write_response
	.align	16, 0x90
	.type	httpd_write_response,@function
httpd_write_response:                   # @httpd_write_response
	.cfi_startproc
# BB#0:                                 # %entry
	pushq	%rbp
.Ltmp269:
	.cfi_def_cfa_offset 16
	pushq	%r15
.Ltmp270:
	.cfi_def_cfa_offset 24
	pushq	%r14
.Ltmp271:
	.cfi_def_cfa_offset 32
	pushq	%r13
.Ltmp272:
	.cfi_def_cfa_offset 40
	pushq	%r12
.Ltmp273:
	.cfi_def_cfa_offset 48
	pushq	%rbx
.Ltmp274:
	.cfi_def_cfa_offset 56
	subq	$24, %rsp
.Ltmp275:
	.cfi_def_cfa_offset 80
.Ltmp276:
	.cfi_offset %rbx, -56
.Ltmp277:
	.cfi_offset %r12, -48
.Ltmp278:
	.cfi_offset %r13, -40
.Ltmp279:
	.cfi_offset %r14, -32
.Ltmp280:
	.cfi_offset %r15, -24
.Ltmp281:
	.cfi_offset %rbp, -16
	movq	%rdi, %rbp
	movl	$637, %edi              # imm = 0x27D
	callq	_StraightTaint_log
	movzbl	sub_process(%rip), %eax
	cmpl	$1, %eax
	jne	.LBB24_4
# BB#1:                                 # %if.then
	movl	$638, %edi              # imm = 0x27E
	callq	_StraightTaint_log
	movl	704(%rbp), %r15d
	movl	$3, %esi
	xorl	%edx, %edx
	xorl	%eax, %eax
	movl	%r15d, %edi
	callq	fcntl
	movl	%eax, %ebx
	cmpl	$-1, %ebx
	je	.LBB24_4
# BB#2:                                 # %if.then.i
	movl	$639, %edi              # imm = 0x27F
	callq	_StraightTaint_log
	movl	%ebx, %r14d
	andl	$-2049, %r14d           # imm = 0xFFFFFFFFFFFFF7FF
	cmpl	%ebx, %r14d
	je	.LBB24_4
# BB#3:                                 # %if.then2.i
	movl	$640, %edi              # imm = 0x280
	callq	_StraightTaint_log
	movl	$4, %esi
	xorl	%eax, %eax
	movl	%r15d, %edi
	movl	%r14d, %edx
	callq	fcntl
.LBB24_4:                               # %if.end
	movl	$641, %edi              # imm = 0x281
	callq	_StraightTaint_log
	movq	472(%rbp), %rax
	movq	%rax, 16(%rsp)          # 8-byte Spill
	testq	%rax, %rax
	je	.LBB24_14
# BB#5:                                 # %if.then1
	movl	$642, %edi              # imm = 0x282
	callq	_StraightTaint_log
	movl	704(%rbp), %r15d
	movq	368(%rbp), %rax
	movq	%rax, 8(%rsp)           # 8-byte Spill
	movq	%rbp, (%rsp)            # 8-byte Spill
	xorl	%r13d, %r13d
	xorl	%r14d, %r14d
.LBB24_7:                               # %while.body.lr.ph.i
                                        # =>This Loop Header: Depth=1
                                        #     Child Loop BB24_9 Depth 2
	movl	$644, %edi              # imm = 0x284
	callq	_StraightTaint_log
	movq	8(%rsp), %rax           # 8-byte Reload
	leaq	(%rax,%r13), %r12
	movq	16(%rsp), %rbp          # 8-byte Reload
	subq	%r13, %rbp
	movl	%r15d, %edi
	movq	%r12, %rsi
	movq	%rbp, %rdx
	callq	write
	movq	%rax, %rbx
	testl	%ebx, %ebx
	jns	.LBB24_12
# BB#8:                                 # %land.lhs.true.i.lr.ph
                                        #   in Loop: Header=BB24_7 Depth=1
	movl	$645, %edi              # imm = 0x285
	callq	_StraightTaint_log
	callq	__errno_location
	movq	%rax, %r13
	.align	16, 0x90
.LBB24_9:                               # %land.lhs.true.i
                                        #   Parent Loop BB24_7 Depth=1
                                        # =>  This Inner Loop Header: Depth=2
	movl	$646, %edi              # imm = 0x286
	callq	_StraightTaint_log
	movl	(%r13), %eax
	cmpl	$4, %eax
	je	.LBB24_11
# BB#10:                                # %land.lhs.true.i
                                        #   in Loop: Header=BB24_9 Depth=2
	cmpl	$11, %eax
	jne	.LBB24_13
.LBB24_11:                              # %if.then.i13
                                        #   in Loop: Header=BB24_9 Depth=2
	movl	$647, %edi              # imm = 0x287
	callq	_StraightTaint_log
	movl	$1, %edi
	callq	sleep
	movl	%r15d, %edi
	movq	%r12, %rsi
	movq	%rbp, %rdx
	callq	write
	movq	%rax, %rbx
	testl	%ebx, %ebx
	js	.LBB24_9
.LBB24_12:                              # %if.end16.i
                                        #   in Loop: Header=BB24_7 Depth=1
	movl	$648, %edi              # imm = 0x288
	callq	_StraightTaint_log
	testl	%ebx, %ebx
	je	.LBB24_13
# BB#6:                                 # %while.cond.outer.i
                                        #   in Loop: Header=BB24_7 Depth=1
	addl	%r14d, %ebx
	movl	$643, %edi              # imm = 0x283
	callq	_StraightTaint_log
	movslq	%ebx, %r13
	cmpq	16(%rsp), %r13          # 8-byte Folded Reload
	movl	%ebx, %r14d
	jb	.LBB24_7
.LBB24_13:                              # %httpd_write_fully.exit
	movl	$649, %edi              # imm = 0x289
	callq	_StraightTaint_log
	movq	(%rsp), %rax            # 8-byte Reload
	movq	$0, 472(%rax)
.LBB24_14:                              # %if.end5
	movl	$650, %edi              # imm = 0x28A
	callq	_StraightTaint_log
	addq	$24, %rsp
	popq	%rbx
	popq	%r12
	popq	%r13
	popq	%r14
	popq	%r15
	popq	%rbp
	ret
.Ltmp282:
	.size	httpd_write_response, .Ltmp282-httpd_write_response
	.cfi_endproc

	.globl	httpd_clear_ndelay
	.align	16, 0x90
	.type	httpd_clear_ndelay,@function
httpd_clear_ndelay:                     # @httpd_clear_ndelay
	.cfi_startproc
# BB#0:                                 # %entry
	pushq	%rbp
.Ltmp287:
	.cfi_def_cfa_offset 16
	pushq	%r14
.Ltmp288:
	.cfi_def_cfa_offset 24
	pushq	%rbx
.Ltmp289:
	.cfi_def_cfa_offset 32
.Ltmp290:
	.cfi_offset %rbx, -32
.Ltmp291:
	.cfi_offset %r14, -24
.Ltmp292:
	.cfi_offset %rbp, -16
	movl	%edi, %r14d
	movl	$651, %edi              # imm = 0x28B
	callq	_StraightTaint_log
	movl	$3, %esi
	xorl	%edx, %edx
	xorl	%eax, %eax
	movl	%r14d, %edi
	callq	fcntl
	movl	%eax, %ebx
	cmpl	$-1, %ebx
	je	.LBB25_3
# BB#1:                                 # %if.then
	movl	$652, %edi              # imm = 0x28C
	callq	_StraightTaint_log
	movl	%ebx, %ebp
	andl	$-2049, %ebp            # imm = 0xFFFFFFFFFFFFF7FF
	cmpl	%ebx, %ebp
	je	.LBB25_3
# BB#2:                                 # %if.then2
	movl	$653, %edi              # imm = 0x28D
	callq	_StraightTaint_log
	movl	$4, %esi
	xorl	%eax, %eax
	movl	%r14d, %edi
	movl	%ebp, %edx
	callq	fcntl
.LBB25_3:                               # %if.end4
	movl	$654, %edi              # imm = 0x28E
	callq	_StraightTaint_log
	popq	%rbx
	popq	%r14
	popq	%rbp
	ret
.Ltmp293:
	.size	httpd_clear_ndelay, .Ltmp293-httpd_clear_ndelay
	.cfi_endproc

	.globl	httpd_write_fully
	.align	16, 0x90
	.type	httpd_write_fully,@function
httpd_write_fully:                      # @httpd_write_fully
	.cfi_startproc
# BB#0:                                 # %entry
	pushq	%rbp
.Ltmp301:
	.cfi_def_cfa_offset 16
	pushq	%r15
.Ltmp302:
	.cfi_def_cfa_offset 24
	pushq	%r14
.Ltmp303:
	.cfi_def_cfa_offset 32
	pushq	%r13
.Ltmp304:
	.cfi_def_cfa_offset 40
	pushq	%r12
.Ltmp305:
	.cfi_def_cfa_offset 48
	pushq	%rbx
.Ltmp306:
	.cfi_def_cfa_offset 56
	subq	$24, %rsp
.Ltmp307:
	.cfi_def_cfa_offset 80
.Ltmp308:
	.cfi_offset %rbx, -56
.Ltmp309:
	.cfi_offset %r12, -48
.Ltmp310:
	.cfi_offset %r13, -40
.Ltmp311:
	.cfi_offset %r14, -32
.Ltmp312:
	.cfi_offset %r15, -24
.Ltmp313:
	.cfi_offset %rbp, -16
	movq	%rdx, %rbx
	movq	%rbx, 16(%rsp)          # 8-byte Spill
	movq	%rsi, 8(%rsp)           # 8-byte Spill
	movl	%edi, %r12d
	movl	$655, %edi              # imm = 0x28F
	callq	_StraightTaint_log
	xorl	%r15d, %r15d
	testq	%rbx, %rbx
	je	.LBB26_1
# BB#2:
	xorl	%r14d, %r14d
.LBB26_4:                               # %while.body.lr.ph
                                        # =>This Loop Header: Depth=1
                                        #     Child Loop BB26_5 Depth 2
	movl	$657, %edi              # imm = 0x291
	callq	_StraightTaint_log
	movq	8(%rsp), %rax           # 8-byte Reload
	leaq	(%rax,%r15), %r13
	movq	16(%rsp), %rbp          # 8-byte Reload
	subq	%r15, %rbp
	jmp	.LBB26_5
	.align	16, 0x90
.LBB26_8:                               # %if.then
                                        #   in Loop: Header=BB26_5 Depth=2
	movl	$660, %edi              # imm = 0x294
	callq	_StraightTaint_log
	movl	$1, %edi
	callq	sleep
.LBB26_5:                               # %while.body
                                        #   Parent Loop BB26_4 Depth=1
                                        # =>  This Inner Loop Header: Depth=2
	movl	$658, %edi              # imm = 0x292
	callq	_StraightTaint_log
	movl	%r12d, %edi
	movq	%r13, %rsi
	movq	%rbp, %rdx
	callq	write
	movq	%rax, %rbx
	testl	%ebx, %ebx
	jns	.LBB26_9
# BB#6:                                 # %land.lhs.true
                                        #   in Loop: Header=BB26_5 Depth=2
	movl	$659, %edi              # imm = 0x293
	callq	_StraightTaint_log
	callq	__errno_location
	movl	(%rax), %eax
	cmpl	$4, %eax
	je	.LBB26_8
# BB#7:                                 # %land.lhs.true
                                        #   in Loop: Header=BB26_5 Depth=2
	cmpl	$11, %eax
	je	.LBB26_8
	jmp	.LBB26_11
	.align	16, 0x90
.LBB26_9:                               # %if.end16
                                        #   in Loop: Header=BB26_4 Depth=1
	movl	$661, %edi              # imm = 0x295
	callq	_StraightTaint_log
	testl	%ebx, %ebx
	je	.LBB26_10
# BB#3:                                 # %while.cond.outer
                                        #   in Loop: Header=BB26_4 Depth=1
	addl	%r14d, %ebx
	movl	$656, %edi              # imm = 0x290
	callq	_StraightTaint_log
	movslq	%ebx, %r15
	cmpq	16(%rsp), %r15          # 8-byte Folded Reload
	movl	%ebx, %r14d
	jb	.LBB26_4
	jmp	.LBB26_11
.LBB26_1:
	xorl	%ebx, %ebx
.LBB26_11:                              # %return
	movl	$662, %edi              # imm = 0x296
	callq	_StraightTaint_log
	movl	%ebx, %eax
	addq	$24, %rsp
	popq	%rbx
	popq	%r12
	popq	%r13
	popq	%r14
	popq	%r15
	popq	%rbp
	ret
.LBB26_10:
	movl	%r14d, %ebx
	jmp	.LBB26_11
.Ltmp314:
	.size	httpd_write_fully, .Ltmp314-httpd_write_fully
	.cfi_endproc

	.globl	httpd_set_ndelay
	.align	16, 0x90
	.type	httpd_set_ndelay,@function
httpd_set_ndelay:                       # @httpd_set_ndelay
	.cfi_startproc
# BB#0:                                 # %entry
	pushq	%rbp
.Ltmp319:
	.cfi_def_cfa_offset 16
	pushq	%r14
.Ltmp320:
	.cfi_def_cfa_offset 24
	pushq	%rbx
.Ltmp321:
	.cfi_def_cfa_offset 32
.Ltmp322:
	.cfi_offset %rbx, -32
.Ltmp323:
	.cfi_offset %r14, -24
.Ltmp324:
	.cfi_offset %rbp, -16
	movl	%edi, %r14d
	movl	$663, %edi              # imm = 0x297
	callq	_StraightTaint_log
	movl	$3, %esi
	xorl	%edx, %edx
	xorl	%eax, %eax
	movl	%r14d, %edi
	callq	fcntl
	movl	%eax, %ebx
	cmpl	$-1, %ebx
	je	.LBB27_3
# BB#1:                                 # %if.then
	movl	$664, %edi              # imm = 0x298
	callq	_StraightTaint_log
	movl	%ebx, %ebp
	orl	$2048, %ebp             # imm = 0x800
	cmpl	%ebx, %ebp
	je	.LBB27_3
# BB#2:                                 # %if.then2
	movl	$665, %edi              # imm = 0x299
	callq	_StraightTaint_log
	movl	$4, %esi
	xorl	%eax, %eax
	movl	%r14d, %edi
	movl	%ebp, %edx
	callq	fcntl
.LBB27_3:                               # %if.end4
	movl	$666, %edi              # imm = 0x29A
	callq	_StraightTaint_log
	popq	%rbx
	popq	%r14
	popq	%rbp
	ret
.Ltmp325:
	.size	httpd_set_ndelay, .Ltmp325-httpd_set_ndelay
	.cfi_endproc

	.globl	httpd_realloc_str
	.align	16, 0x90
	.type	httpd_realloc_str,@function
httpd_realloc_str:                      # @httpd_realloc_str
	.cfi_startproc
# BB#0:                                 # %entry
	pushq	%r15
.Ltmp331:
	.cfi_def_cfa_offset 16
	pushq	%r14
.Ltmp332:
	.cfi_def_cfa_offset 24
	pushq	%r12
.Ltmp333:
	.cfi_def_cfa_offset 32
	pushq	%rbx
.Ltmp334:
	.cfi_def_cfa_offset 40
	pushq	%rax
.Ltmp335:
	.cfi_def_cfa_offset 48
.Ltmp336:
	.cfi_offset %rbx, -40
.Ltmp337:
	.cfi_offset %r12, -32
.Ltmp338:
	.cfi_offset %r14, -24
.Ltmp339:
	.cfi_offset %r15, -16
	movq	%rdx, %r12
	movq	%rsi, %r15
	movq	%rdi, %r14
	movl	$667, %edi              # imm = 0x29B
	callq	_StraightTaint_log
	movq	(%r15), %rbx
	testq	%rbx, %rbx
	je	.LBB28_1
# BB#2:                                 # %if.else
	movl	$669, %edi              # imm = 0x29D
	callq	_StraightTaint_log
	cmpq	%r12, %rbx
	jae	.LBB28_5
# BB#3:                                 # %if.then6
	movl	$670, %edi              # imm = 0x29E
	callq	_StraightTaint_log
	subq	%rbx, str_alloc_size(%rip)
	movq	(%r15), %rax
	addq	%rax, %rax
	leaq	(%r12,%r12,4), %rsi
	shrq	$2, %rsi
	cmpq	%rsi, %rax
	cmovaq	%rax, %rsi
	movq	%rsi, (%r15)
	movq	(%r14), %rdi
	incq	%rsi
	callq	realloc
	movq	%rax, %r12
	movq	%r12, (%r14)
	movq	str_alloc_size(%rip), %rbx
	addq	(%r15), %rbx
	jmp	.LBB28_4
.LBB28_1:                               # %if.then
	movl	$668, %edi              # imm = 0x29C
	callq	_StraightTaint_log
	addq	$100, %r12
	cmpq	$200, %r12
	movl	$200, %ebx
	cmovaeq	%r12, %rbx
	movq	%rbx, (%r15)
	leaq	1(%rbx), %rdi
	callq	malloc
	movq	%rax, %r12
	movq	%r12, (%r14)
	incl	str_alloc_count(%rip)
	addq	str_alloc_size(%rip), %rbx
.LBB28_4:                               # %if.end22
	movl	$671, %edi              # imm = 0x29F
	callq	_StraightTaint_log
	movq	%rbx, str_alloc_size(%rip)
	testq	%r12, %r12
	je	.LBB28_6
.LBB28_5:                               # %if.end25
	movl	$673, %edi              # imm = 0x2A1
	callq	_StraightTaint_log
	addq	$8, %rsp
	popq	%rbx
	popq	%r12
	popq	%r14
	popq	%r15
	ret
.LBB28_6:                               # %if.then24
	movl	$672, %edi              # imm = 0x2A0
	callq	_StraightTaint_log
	movq	(%r15), %rcx
	movl	$3, %edi
	movl	$.L.str1659, %esi
	xorl	%eax, %eax
	movq	%rcx, %rdx
	callq	syslog
	movl	$1, %edi
	callq	exit
.Ltmp340:
	.size	httpd_realloc_str, .Ltmp340-httpd_realloc_str
	.cfi_endproc

	.globl	httpd_send_err
	.align	16, 0x90
	.type	httpd_send_err,@function
httpd_send_err:                         # @httpd_send_err
	.cfi_startproc
# BB#0:                                 # %entry
	pushq	%rbp
.Ltmp348:
	.cfi_def_cfa_offset 16
	pushq	%r15
.Ltmp349:
	.cfi_def_cfa_offset 24
	pushq	%r14
.Ltmp350:
	.cfi_def_cfa_offset 32
	pushq	%r13
.Ltmp351:
	.cfi_def_cfa_offset 40
	pushq	%r12
.Ltmp352:
	.cfi_def_cfa_offset 48
	pushq	%rbx
.Ltmp353:
	.cfi_def_cfa_offset 56
	subq	$1016, %rsp             # imm = 0x3F8
.Ltmp354:
	.cfi_def_cfa_offset 1072
.Ltmp355:
	.cfi_offset %rbx, -56
.Ltmp356:
	.cfi_offset %r12, -48
.Ltmp357:
	.cfi_offset %r13, -40
.Ltmp358:
	.cfi_offset %r14, -32
.Ltmp359:
	.cfi_offset %r15, -24
.Ltmp360:
	.cfi_offset %rbp, -16
	movq	%r9, 8(%rsp)            # 8-byte Spill
	movq	%r8, (%rsp)             # 8-byte Spill
	movq	%rcx, %r12
	movq	%rdx, %r13
	movl	%esi, %r15d
	movq	%rdi, %rbx
	movl	$674, %edi              # imm = 0x2A2
	callq	_StraightTaint_log
	movq	8(%rbx), %rax
	cmpl	$0, 100(%rax)
	je	.LBB29_3
# BB#1:                                 # %land.lhs.true
	movl	$675, %edi              # imm = 0x2A3
	callq	_StraightTaint_log
	movq	344(%rbx), %r14
	cmpb	$0, (%r14)
	je	.LBB29_3
# BB#2:                                 # %if.then
	movl	$676, %edi              # imm = 0x2A4
	callq	_StraightTaint_log
	leaq	16(%rsp), %rbp
	movl	$1000, %esi             # imm = 0x3E8
	movl	$.L.str1760, %edx
	movl	$.L.str1861, %r8d
	xorl	%eax, %eax
	movq	%r14, %rcx
	movq	%rbp, %rdi
	movl	%r15d, %r9d
	callq	my_snprintf
	movq	%rbx, %rdi
	movl	%r15d, %esi
	movq	%r13, %rdx
	movq	%r12, %rcx
	movq	%rbp, %r8
	callq	send_err_file
	testl	%eax, %eax
	jne	.LBB29_5
.LBB29_3:                               # %if.end7
	movl	$677, %edi              # imm = 0x2A5
	callq	_StraightTaint_log
	leaq	16(%rsp), %rbp
	movl	$1000, %esi             # imm = 0x3E8
	movl	$.L.str1962, %edx
	movl	$.L.str1861, %ecx
	xorl	%eax, %eax
	movq	%rbp, %rdi
	movl	%r15d, %r8d
	callq	my_snprintf
	movq	%rbx, %rdi
	movl	%r15d, %esi
	movq	%r13, %rdx
	movq	%r12, %rcx
	movq	%rbp, %r8
	callq	send_err_file
	testl	%eax, %eax
	jne	.LBB29_5
# BB#4:                                 # %if.end14
	movl	$678, %edi              # imm = 0x2A6
	callq	_StraightTaint_log
	movq	%rbx, %rdi
	movl	%r15d, %esi
	movq	%r13, %rdx
	movq	%r12, %rcx
	movq	(%rsp), %r8             # 8-byte Reload
	movq	8(%rsp), %r9            # 8-byte Reload
	callq	send_response
.LBB29_5:                               # %cleanup
	movl	$679, %edi              # imm = 0x2A7
	callq	_StraightTaint_log
	addq	$1016, %rsp             # imm = 0x3F8
	popq	%rbx
	popq	%r12
	popq	%r13
	popq	%r14
	popq	%r15
	popq	%rbp
	ret
.Ltmp361:
	.size	httpd_send_err, .Ltmp361-httpd_send_err
	.cfi_endproc

	.globl	httpd_method_str
	.align	16, 0x90
	.type	httpd_method_str,@function
httpd_method_str:                       # @httpd_method_str
	.cfi_startproc
# BB#0:                                 # %entry
	pushq	%rbp
.Ltmp365:
	.cfi_def_cfa_offset 16
	pushq	%rbx
.Ltmp366:
	.cfi_def_cfa_offset 24
	pushq	%rax
.Ltmp367:
	.cfi_def_cfa_offset 32
.Ltmp368:
	.cfi_offset %rbx, -24
.Ltmp369:
	.cfi_offset %rbp, -16
	movl	%edi, %ebp
	movl	$680, %edi              # imm = 0x2A8
	callq	_StraightTaint_log
	cmpl	$1, %ebp
	movl	$.L.str2063, %ebx
	je	.LBB30_6
# BB#1:                                 # %entry
	cmpl	$3, %ebp
	jne	.LBB30_2
# BB#4:                                 # %sw.bb2
	movl	$682, %edi              # imm = 0x2AA
	callq	_StraightTaint_log
	movl	$.L.str2265, %ebx
	jmp	.LBB30_6
.LBB30_2:                               # %entry
	cmpl	$2, %ebp
	jne	.LBB30_5
# BB#3:                                 # %sw.bb1
	movl	$681, %edi              # imm = 0x2A9
	callq	_StraightTaint_log
	movl	$.L.str2164, %ebx
	jmp	.LBB30_6
.LBB30_5:                               # %sw.default
	movl	$683, %edi              # imm = 0x2AB
	callq	_StraightTaint_log
	movl	$.L.str2366, %ebx
.LBB30_6:                               # %return
	movl	$684, %edi              # imm = 0x2AC
	callq	_StraightTaint_log
	movq	%rbx, %rax
	addq	$8, %rsp
	popq	%rbx
	popq	%rbp
	ret
.Ltmp370:
	.size	httpd_method_str, .Ltmp370-httpd_method_str
	.cfi_endproc

	.globl	httpd_get_conn
	.align	16, 0x90
	.type	httpd_get_conn,@function
httpd_get_conn:                         # @httpd_get_conn
	.cfi_startproc
# BB#0:                                 # %entry
	pushq	%rbp
.Ltmp378:
	.cfi_def_cfa_offset 16
	pushq	%r15
.Ltmp379:
	.cfi_def_cfa_offset 24
	pushq	%r14
.Ltmp380:
	.cfi_def_cfa_offset 32
	pushq	%r13
.Ltmp381:
	.cfi_def_cfa_offset 40
	pushq	%r12
.Ltmp382:
	.cfi_def_cfa_offset 48
	pushq	%rbx
.Ltmp383:
	.cfi_def_cfa_offset 56
	subq	$200, %rsp
.Ltmp384:
	.cfi_def_cfa_offset 256
.Ltmp385:
	.cfi_offset %rbx, -56
.Ltmp386:
	.cfi_offset %r12, -48
.Ltmp387:
	.cfi_offset %r13, -40
.Ltmp388:
	.cfi_offset %r14, -32
.Ltmp389:
	.cfi_offset %r15, -24
.Ltmp390:
	.cfi_offset %rbp, -16
	movq	%rdx, %rbx
	movl	%esi, %ebp
	movq	%rdi, %r14
	movl	$685, %edi              # imm = 0x2AD
	callq	_StraightTaint_log
	cmpl	$0, (%rbx)
	jne	.LBB31_2
# BB#1:                                 # %if.then
	movl	$686, %edi              # imm = 0x2AE
	callq	_StraightTaint_log
	leaq	152(%rbx), %rsi
	movq	$0, 152(%rbx)
	leaq	144(%rbx), %rdi
	movl	$500, %edx              # imm = 0x1F4
	callq	httpd_realloc_str
	leaq	464(%rbx), %rax
	movq	%rax, 56(%rsp)          # 8-byte Spill
	leaq	456(%rbx), %rax
	movq	%rax, 48(%rsp)          # 8-byte Spill
	leaq	448(%rbx), %rax
	movq	%rax, 40(%rsp)          # 8-byte Spill
	leaq	440(%rbx), %rax
	movq	%rax, 32(%rsp)          # 8-byte Spill
	leaq	432(%rbx), %rax
	movq	%rax, 24(%rsp)          # 8-byte Spill
	leaq	424(%rbx), %rax
	movq	%rax, 16(%rsp)          # 8-byte Spill
	leaq	416(%rbx), %rax
	movq	%rax, 8(%rsp)           # 8-byte Spill
	leaq	408(%rbx), %rax
	movq	%rax, (%rsp)            # 8-byte Spill
	leaq	400(%rbx), %r12
	movq	%r14, %r15
	leaq	392(%rbx), %r14
	leaq	384(%rbx), %r13
	leaq	376(%rbx), %rsi
	leaq	216(%rbx), %rdi
	xorps	%xmm0, %xmm0
	movups	%xmm0, 456(%rbx)
	movups	%xmm0, 440(%rbx)
	movups	%xmm0, 424(%rbx)
	movups	%xmm0, 408(%rbx)
	movups	%xmm0, 392(%rbx)
	movups	%xmm0, 376(%rbx)
	movl	$1, %edx
	callq	httpd_realloc_str
	leaq	232(%rbx), %rdi
	movl	$1, %edx
	movq	%r13, %rsi
	callq	httpd_realloc_str
	leaq	240(%rbx), %rdi
	xorl	%edx, %edx
	movq	%r14, %rsi
	movq	%r15, %r14
	callq	httpd_realloc_str
	leaq	248(%rbx), %rdi
	xorl	%edx, %edx
	movq	%r12, %rsi
	callq	httpd_realloc_str
	leaq	256(%rbx), %rdi
	xorl	%edx, %edx
	movq	(%rsp), %rsi            # 8-byte Reload
	callq	httpd_realloc_str
	leaq	264(%rbx), %rdi
	xorl	%edx, %edx
	movq	8(%rsp), %rsi           # 8-byte Reload
	callq	httpd_realloc_str
	leaq	288(%rbx), %rdi
	xorl	%edx, %edx
	movq	16(%rsp), %rsi          # 8-byte Reload
	callq	httpd_realloc_str
	leaq	296(%rbx), %rdi
	xorl	%edx, %edx
	movq	24(%rsp), %rsi          # 8-byte Reload
	callq	httpd_realloc_str
	leaq	328(%rbx), %rdi
	xorl	%edx, %edx
	movq	32(%rsp), %rsi          # 8-byte Reload
	callq	httpd_realloc_str
	leaq	344(%rbx), %rdi
	xorl	%edx, %edx
	movq	40(%rsp), %rsi          # 8-byte Reload
	callq	httpd_realloc_str
	leaq	360(%rbx), %rdi
	xorl	%edx, %edx
	movq	48(%rsp), %rsi          # 8-byte Reload
	callq	httpd_realloc_str
	leaq	368(%rbx), %rdi
	xorl	%edx, %edx
	movq	56(%rsp), %rsi          # 8-byte Reload
	callq	httpd_realloc_str
	movl	$1, (%rbx)
.LBB31_2:                               # %if.end
	movl	$687, %edi              # imm = 0x2AF
	callq	_StraightTaint_log
	movl	$128, 68(%rsp)
	movl	$20149999, %edi         # imm = 0x13376EF
	xorl	%esi, %esi
	callq	kill
	leaq	72(%rsp), %rsi
	leaq	68(%rsp), %rdx
	movl	%ebp, %edi
	callq	accept
	movl	%eax, %ebp
	testl	%ebp, %ebp
	movl	%ebp, 704(%rbx)
	js	.LBB31_3
# BB#5:                                 # %if.end22
	movl	$690, %edi              # imm = 0x2B2
	callq	_StraightTaint_log
	movzwl	72(%rsp), %eax
	orl	$8, %eax
	cmpl	$10, %eax
	jne	.LBB31_6
# BB#7:                                 # %if.end29
	movl	$692, %edi              # imm = 0x2B4
	callq	_StraightTaint_log
	movl	$1, %r15d
	movl	$2, %esi
	movl	$1, %edx
	xorl	%eax, %eax
	movl	%ebp, %edi
	callq	fcntl
	movq	%r14, 8(%rbx)
	xorps	%xmm0, %xmm0
	movups	%xmm0, 128(%rbx)
	movups	%xmm0, 112(%rbx)
	movups	%xmm0, 96(%rbx)
	movups	%xmm0, 80(%rbx)
	movups	%xmm0, 64(%rbx)
	movups	%xmm0, 48(%rbx)
	movups	%xmm0, 32(%rbx)
	movups	%xmm0, 16(%rbx)
	movl	$16, %r14d
	movzwl	72(%rsp), %eax
	cmpl	$2, %eax
	je	.LBB31_11
# BB#8:                                 # %if.end29
	cmpl	$10, %eax
	jne	.LBB31_10
# BB#9:                                 # %sw.bb1.i
	movl	$693, %edi              # imm = 0x2B5
	callq	_StraightTaint_log
	movl	$28, %r14d
	jmp	.LBB31_11
.LBB31_3:                               # %if.then17
	movl	$688, %edi              # imm = 0x2B0
	callq	_StraightTaint_log
	callq	__errno_location
	cmpl	$11, (%rax)
	movl	$2, %r15d
	je	.LBB31_12
# BB#4:                                 # %if.end21
	movl	$689, %edi              # imm = 0x2B1
	callq	_StraightTaint_log
	xorl	%r15d, %r15d
	movl	$3, %edi
	movl	$.L.str2467, %esi
	xorl	%eax, %eax
	callq	syslog
	jmp	.LBB31_12
.LBB31_6:                               # %if.then25
	movl	$691, %edi              # imm = 0x2B3
	callq	_StraightTaint_log
	xorl	%r15d, %r15d
	movl	$3, %edi
	movl	$.L.str2568, %esi
	xorl	%eax, %eax
	callq	syslog
	movl	704(%rbx), %edi
	callq	close
	movl	$-1, 704(%rbx)
	jmp	.LBB31_12
.LBB31_10:                              # %sw.default.i151
	movl	$694, %edi              # imm = 0x2B6
	callq	_StraightTaint_log
	xorl	%r14d, %r14d
.LBB31_11:                              # %sockaddr_len.exit
	leaq	16(%rbx), %rbp
	movl	$695, %edi              # imm = 0x2B7
	callq	_StraightTaint_log
	leaq	72(%rsp), %rsi
	movq	%rbp, %rdi
	movq	%r14, %rdx
	callq	memcpy
	xorps	%xmm0, %xmm0
	movups	%xmm0, 172(%rbx)
	movups	%xmm0, 160(%rbx)
	movups	%xmm0, 192(%rbx)
	movq	$.L.str2669, 208(%rbx)
	movq	216(%rbx), %rax
	movb	$0, (%rax)
	movq	$.L.str2366, 224(%rbx)
	movq	232(%rbx), %rax
	movb	$0, (%rax)
	movq	240(%rbx), %rax
	movb	$0, (%rax)
	movq	248(%rbx), %rax
	movb	$0, (%rax)
	movq	256(%rbx), %rax
	movb	$0, (%rax)
	movq	264(%rbx), %rax
	movb	$0, (%rax)
	movq	$.L.str2669, 272(%rbx)
	movq	$.L.str2669, 280(%rbx)
	movq	288(%rbx), %rax
	movb	$0, (%rax)
	movq	296(%rbx), %rax
	movb	$0, (%rax)
	movq	$.L.str2669, 304(%rbx)
	movq	$.L.str2669, 312(%rbx)
	movq	$.L.str2669, 320(%rbx)
	movq	328(%rbx), %rax
	movb	$0, (%rax)
	movq	$.L.str2669, 336(%rbx)
	movq	344(%rbx), %rax
	movb	$0, (%rax)
	movq	$.L.str2669, 352(%rbx)
	movq	360(%rbx), %rax
	movb	$0, (%rax)
	movq	368(%rbx), %rax
	movb	$0, (%rax)
	movq	$0, 472(%rbx)
	movq	$-1, 496(%rbx)
	movq	$-1, 488(%rbx)
	movq	$-1, 480(%rbx)
	movq	$.L.str2669, 504(%rbx)
	movq	$0, 512(%rbx)
	movl	$1, 520(%rbx)
	movups	%xmm0, 524(%rbx)
	movl	$0, 540(%rbx)
	movq	$-1, 544(%rbx)
	movl	$0, 552(%rbx)
	movl	$0, 556(%rbx)
	movq	$0, 712(%rbx)
.LBB31_12:                              # %cleanup
	movl	$696, %edi              # imm = 0x2B8
	callq	_StraightTaint_log
	movl	%r15d, %eax
	addq	$200, %rsp
	popq	%rbx
	popq	%r12
	popq	%r13
	popq	%r14
	popq	%r15
	popq	%rbp
	ret
.Ltmp391:
	.size	httpd_get_conn, .Ltmp391-httpd_get_conn
	.cfi_endproc

	.globl	httpd_got_request
	.align	16, 0x90
	.type	httpd_got_request,@function
httpd_got_request:                      # @httpd_got_request
	.cfi_startproc
# BB#0:                                 # %entry
	pushq	%rbp
.Ltmp399:
	.cfi_def_cfa_offset 16
	pushq	%r15
.Ltmp400:
	.cfi_def_cfa_offset 24
	pushq	%r14
.Ltmp401:
	.cfi_def_cfa_offset 32
	pushq	%r13
.Ltmp402:
	.cfi_def_cfa_offset 40
	pushq	%r12
.Ltmp403:
	.cfi_def_cfa_offset 48
	pushq	%rbx
.Ltmp404:
	.cfi_def_cfa_offset 56
	pushq	%rax
.Ltmp405:
	.cfi_def_cfa_offset 64
.Ltmp406:
	.cfi_offset %rbx, -56
.Ltmp407:
	.cfi_offset %r12, -48
.Ltmp408:
	.cfi_offset %r13, -40
.Ltmp409:
	.cfi_offset %r14, -32
.Ltmp410:
	.cfi_offset %r15, -24
.Ltmp411:
	.cfi_offset %rbp, -16
	movq	%rdi, %r15
	movl	$697, %edi              # imm = 0x2B9
	callq	_StraightTaint_log
	movq	160(%r15), %r14
	movq	168(%r15), %rbx
	cmpq	%r14, %rbx
	jae	.LBB32_70
# BB#1:                                 # %for.body.lr.ph
	movl	$698, %edi              # imm = 0x2BA
	callq	_StraightTaint_log
	movq	144(%r15), %rax
	movq	%rax, (%rsp)            # 8-byte Spill
	movl	176(%r15), %r13d
	.align	16, 0x90
.LBB32_2:                               # %for.body
                                        # =>This Inner Loop Header: Depth=1
	movl	$699, %edi              # imm = 0x2BB
	callq	_StraightTaint_log
	movl	%r13d, %eax
	cmpl	$11, %r13d
	ja	.LBB32_69
# BB#3:                                 # %for.body
                                        #   in Loop: Header=BB32_2 Depth=1
	movq	(%rsp), %rcx            # 8-byte Reload
	movsbl	(%rcx,%rbx), %r12d
	movl	$2, %ebp
	jmpq	*.LJTI32_0(,%rax,8)
.LBB32_4:                               # %sw.bb
                                        #   in Loop: Header=BB32_2 Depth=1
	movl	$700, %edi              # imm = 0x2BC
	callq	_StraightTaint_log
	xorl	%r13d, %r13d
	cmpl	$31, %r12d
	jg	.LBB32_10
# BB#5:                                 # %sw.bb
                                        #   in Loop: Header=BB32_2 Depth=1
	cmpl	$9, %r12d
	je	.LBB32_11
# BB#6:                                 # %sw.bb
                                        #   in Loop: Header=BB32_2 Depth=1
	cmpl	$10, %r12d
	je	.LBB32_8
# BB#7:                                 # %sw.bb
                                        #   in Loop: Header=BB32_2 Depth=1
	cmpl	$13, %r12d
	jne	.LBB32_69
	jmp	.LBB32_8
.LBB32_12:                              # %sw.bb6
                                        #   in Loop: Header=BB32_2 Depth=1
	movl	$703, %edi              # imm = 0x2BF
	callq	_StraightTaint_log
	movl	$1, %r13d
	cmpl	$31, %r12d
	jg	.LBB32_17
# BB#13:                                # %sw.bb6
                                        #   in Loop: Header=BB32_2 Depth=1
	cmpl	$9, %r12d
	je	.LBB32_69
# BB#14:                                # %sw.bb6
                                        #   in Loop: Header=BB32_2 Depth=1
	cmpl	$10, %r12d
	je	.LBB32_16
# BB#15:                                # %sw.bb6
                                        #   in Loop: Header=BB32_2 Depth=1
	cmpl	$13, %r12d
	jne	.LBB32_18
	jmp	.LBB32_16
.LBB32_19:                              # %sw.bb13
                                        #   in Loop: Header=BB32_2 Depth=1
	movl	$706, %edi              # imm = 0x2C2
	callq	_StraightTaint_log
	movl	$2, %r13d
	cmpl	$31, %r12d
	jg	.LBB32_23
# BB#20:                                # %sw.bb13
                                        #   in Loop: Header=BB32_2 Depth=1
	cmpl	$9, %r12d
	je	.LBB32_24
# BB#21:                                # %sw.bb13
                                        #   in Loop: Header=BB32_2 Depth=1
	movl	$1, %ebp
	cmpl	$10, %r12d
	je	.LBB32_71
# BB#22:                                # %sw.bb13
                                        #   in Loop: Header=BB32_2 Depth=1
	cmpl	$13, %r12d
	jne	.LBB32_69
	jmp	.LBB32_71
.LBB32_25:                              # %sw.bb19
                                        #   in Loop: Header=BB32_2 Depth=1
	movl	$708, %edi              # imm = 0x2C4
	callq	_StraightTaint_log
	movl	$3, %r13d
	cmpl	$31, %r12d
	jg	.LBB32_30
# BB#26:                                # %sw.bb19
                                        #   in Loop: Header=BB32_2 Depth=1
	cmpl	$9, %r12d
	je	.LBB32_69
# BB#27:                                # %sw.bb19
                                        #   in Loop: Header=BB32_2 Depth=1
	cmpl	$10, %r12d
	je	.LBB32_29
# BB#28:                                # %sw.bb19
                                        #   in Loop: Header=BB32_2 Depth=1
	cmpl	$13, %r12d
	jne	.LBB32_31
	jmp	.LBB32_29
.LBB32_32:                              # %sw.bb27
                                        #   in Loop: Header=BB32_2 Depth=1
	movl	$711, %edi              # imm = 0x2C7
	callq	_StraightTaint_log
	movl	$4, %r13d
	cmpl	$31, %r12d
	jg	.LBB32_38
# BB#33:                                # %sw.bb27
                                        #   in Loop: Header=BB32_2 Depth=1
	cmpl	$9, %r12d
	je	.LBB32_39
# BB#34:                                # %sw.bb27
                                        #   in Loop: Header=BB32_2 Depth=1
	cmpl	$10, %r12d
	jne	.LBB32_35
# BB#40:                                # %sw.bb31
                                        #   in Loop: Header=BB32_2 Depth=1
	movl	$713, %edi              # imm = 0x2C9
	jmp	.LBB32_41
.LBB32_42:                              # %sw.bb36
                                        #   in Loop: Header=BB32_2 Depth=1
	movl	$715, %edi              # imm = 0x2CB
	callq	_StraightTaint_log
	movl	$5, %r13d
	cmpl	$31, %r12d
	jg	.LBB32_47
# BB#43:                                # %sw.bb36
                                        #   in Loop: Header=BB32_2 Depth=1
	cmpl	$9, %r12d
	je	.LBB32_69
# BB#44:                                # %sw.bb36
                                        #   in Loop: Header=BB32_2 Depth=1
	cmpl	$10, %r12d
	jne	.LBB32_45
# BB#72:                                # %sw.bb39
                                        #   in Loop: Header=BB32_2 Depth=1
	movl	$716, %edi              # imm = 0x2CC
	jmp	.LBB32_41
.LBB32_49:                              # %sw.bb46
                                        #   in Loop: Header=BB32_2 Depth=1
	movl	$719, %edi              # imm = 0x2CF
	callq	_StraightTaint_log
	cmpl	$13, %r12d
	jne	.LBB32_50
# BB#52:                                # %sw.bb50
                                        #   in Loop: Header=BB32_2 Depth=1
	movl	$721, %edi              # imm = 0x2D1
	jmp	.LBB32_37
.LBB32_53:                              # %sw.bb53
                                        #   in Loop: Header=BB32_2 Depth=1
	movl	$722, %edi              # imm = 0x2D2
	callq	_StraightTaint_log
	cmpl	$10, %r12d
	movl	$1, %ebp
	je	.LBB32_71
# BB#54:                                # %sw.bb53
                                        #   in Loop: Header=BB32_2 Depth=1
	cmpl	$13, %r12d
	jne	.LBB32_56
# BB#55:                                # %sw.bb56
                                        #   in Loop: Header=BB32_2 Depth=1
	movl	$723, %edi              # imm = 0x2D3
	jmp	.LBB32_37
.LBB32_57:                              # %sw.bb61
                                        #   in Loop: Header=BB32_2 Depth=1
	movl	$725, %edi              # imm = 0x2D5
	callq	_StraightTaint_log
	cmpl	$13, %r12d
	movl	$1, %ebp
	je	.LBB32_71
# BB#58:                                # %sw.bb61
                                        #   in Loop: Header=BB32_2 Depth=1
	cmpl	$10, %r12d
	jne	.LBB32_60
# BB#59:                                # %sw.bb63
                                        #   in Loop: Header=BB32_2 Depth=1
	movl	$726, %edi              # imm = 0x2D6
	callq	_StraightTaint_log
	movl	$9, 176(%r15)
	movl	$9, %r13d
	jmp	.LBB32_69
.LBB32_61:                              # %sw.bb69
                                        #   in Loop: Header=BB32_2 Depth=1
	movl	$728, %edi              # imm = 0x2D8
	callq	_StraightTaint_log
	cmpl	$10, %r12d
	movl	$1, %ebp
	je	.LBB32_71
# BB#62:                                # %sw.bb69
                                        #   in Loop: Header=BB32_2 Depth=1
	cmpl	$13, %r12d
	jne	.LBB32_64
# BB#63:                                # %sw.bb72
                                        #   in Loop: Header=BB32_2 Depth=1
	movl	$729, %edi              # imm = 0x2D9
	callq	_StraightTaint_log
	movl	$10, 176(%r15)
	movl	$10, %r13d
	jmp	.LBB32_69
.LBB32_65:                              # %sw.bb77
                                        #   in Loop: Header=BB32_2 Depth=1
	movl	$731, %edi              # imm = 0x2DB
	callq	_StraightTaint_log
	cmpl	$10, %r12d
	movl	$1, %ebp
	je	.LBB32_71
# BB#66:                                # %sw.bb77
                                        #   in Loop: Header=BB32_2 Depth=1
	cmpl	$13, %r12d
	je	.LBB32_71
# BB#67:                                # %sw.default80
                                        #   in Loop: Header=BB32_2 Depth=1
	movl	$732, %edi              # imm = 0x2DC
	jmp	.LBB32_68
.LBB32_10:                              # %sw.bb
                                        #   in Loop: Header=BB32_2 Depth=1
	cmpl	$32, %r12d
	jne	.LBB32_69
.LBB32_11:                              # %sw.bb2
                                        #   in Loop: Header=BB32_2 Depth=1
	movl	$701, %edi              # imm = 0x2BD
	callq	_StraightTaint_log
	movl	$1, 176(%r15)
	movl	$1, %r13d
	jmp	.LBB32_69
.LBB32_17:                              # %sw.bb6
                                        #   in Loop: Header=BB32_2 Depth=1
	cmpl	$32, %r12d
	je	.LBB32_69
.LBB32_18:                              # %sw.default
                                        #   in Loop: Header=BB32_2 Depth=1
	movl	$705, %edi              # imm = 0x2C1
	callq	_StraightTaint_log
	movl	$2, 176(%r15)
	movl	$2, %r13d
	jmp	.LBB32_69
.LBB32_23:                              # %sw.bb13
                                        #   in Loop: Header=BB32_2 Depth=1
	cmpl	$32, %r12d
	jne	.LBB32_69
.LBB32_24:                              # %sw.bb15
                                        #   in Loop: Header=BB32_2 Depth=1
	movl	$707, %edi              # imm = 0x2C3
	callq	_StraightTaint_log
	movl	$3, 176(%r15)
	movl	$3, %r13d
	jmp	.LBB32_69
.LBB32_30:                              # %sw.bb19
                                        #   in Loop: Header=BB32_2 Depth=1
	cmpl	$32, %r12d
	je	.LBB32_69
.LBB32_31:                              # %sw.default24
                                        #   in Loop: Header=BB32_2 Depth=1
	movl	$710, %edi              # imm = 0x2C6
	callq	_StraightTaint_log
	movl	$4, 176(%r15)
	movl	$4, %r13d
	jmp	.LBB32_69
.LBB32_38:                              # %sw.bb27
                                        #   in Loop: Header=BB32_2 Depth=1
	cmpl	$32, %r12d
	jne	.LBB32_69
.LBB32_39:                              # %sw.bb29
                                        #   in Loop: Header=BB32_2 Depth=1
	movl	$712, %edi              # imm = 0x2C8
	callq	_StraightTaint_log
	movl	$5, 176(%r15)
	movl	$5, %r13d
	jmp	.LBB32_69
.LBB32_47:                              # %sw.bb36
                                        #   in Loop: Header=BB32_2 Depth=1
	cmpl	$32, %r12d
	je	.LBB32_69
	jmp	.LBB32_48
.LBB32_50:                              # %sw.bb46
                                        #   in Loop: Header=BB32_2 Depth=1
	movl	$6, %r13d
	cmpl	$10, %r12d
	jne	.LBB32_69
# BB#51:                                # %sw.bb48
                                        #   in Loop: Header=BB32_2 Depth=1
	movl	$720, %edi              # imm = 0x2D0
.LBB32_41:                              # %for.inc
                                        #   in Loop: Header=BB32_2 Depth=1
	callq	_StraightTaint_log
	movl	$7, 176(%r15)
	movl	$7, %r13d
	jmp	.LBB32_69
.LBB32_56:                              # %sw.default58
                                        #   in Loop: Header=BB32_2 Depth=1
	movl	$724, %edi              # imm = 0x2D4
	jmp	.LBB32_68
.LBB32_60:                              # %sw.default66
                                        #   in Loop: Header=BB32_2 Depth=1
	movl	$727, %edi              # imm = 0x2D7
	jmp	.LBB32_68
.LBB32_64:                              # %sw.default74
                                        #   in Loop: Header=BB32_2 Depth=1
	movl	$730, %edi              # imm = 0x2DA
.LBB32_68:                              # %for.inc
                                        #   in Loop: Header=BB32_2 Depth=1
	callq	_StraightTaint_log
	movl	$6, 176(%r15)
	movl	$6, %r13d
	jmp	.LBB32_69
.LBB32_35:                              # %sw.bb27
                                        #   in Loop: Header=BB32_2 Depth=1
	cmpl	$13, %r12d
	jne	.LBB32_69
# BB#36:                                # %sw.bb33
                                        #   in Loop: Header=BB32_2 Depth=1
	movl	$714, %edi              # imm = 0x2CA
	jmp	.LBB32_37
.LBB32_45:                              # %sw.bb36
                                        #   in Loop: Header=BB32_2 Depth=1
	cmpl	$13, %r12d
	jne	.LBB32_48
# BB#46:                                # %sw.bb41
                                        #   in Loop: Header=BB32_2 Depth=1
	movl	$717, %edi              # imm = 0x2CD
.LBB32_37:                              # %for.inc
                                        #   in Loop: Header=BB32_2 Depth=1
	callq	_StraightTaint_log
	movl	$8, 176(%r15)
	movl	$8, %r13d
	.align	16, 0x90
.LBB32_69:                              # %for.inc
                                        #   in Loop: Header=BB32_2 Depth=1
	movl	$733, %edi              # imm = 0x2DD
	callq	_StraightTaint_log
	incq	%rbx
	cmpq	%r14, %rbx
	movq	%rbx, 168(%r15)
	jb	.LBB32_2
.LBB32_70:
	xorl	%ebp, %ebp
.LBB32_71:                              # %return
	movl	$734, %edi              # imm = 0x2DE
	callq	_StraightTaint_log
	movl	%ebp, %eax
	addq	$8, %rsp
	popq	%rbx
	popq	%r12
	popq	%r13
	popq	%r14
	popq	%r15
	popq	%rbp
	ret
.LBB32_48:                              # %sw.default43
	movl	$718, %edi              # imm = 0x2CE
	jmp	.LBB32_9
.LBB32_8:                               # %sw.bb4
	movl	$702, %edi              # imm = 0x2BE
	jmp	.LBB32_9
.LBB32_16:                              # %sw.bb9
	movl	$704, %edi              # imm = 0x2C0
	jmp	.LBB32_9
.LBB32_29:                              # %sw.bb22
	movl	$709, %edi              # imm = 0x2C5
.LBB32_9:                               # %return
	callq	_StraightTaint_log
	movl	$11, 176(%r15)
	jmp	.LBB32_71
.Ltmp412:
	.size	httpd_got_request, .Ltmp412-httpd_got_request
	.cfi_endproc
	.section	.rodata,"a",@progbits
	.align	8
.LJTI32_0:
	.quad	.LBB32_4
	.quad	.LBB32_12
	.quad	.LBB32_19
	.quad	.LBB32_25
	.quad	.LBB32_32
	.quad	.LBB32_42
	.quad	.LBB32_49
	.quad	.LBB32_53
	.quad	.LBB32_57
	.quad	.LBB32_61
	.quad	.LBB32_65
	.quad	.LBB32_71

	.text
	.globl	httpd_parse_request
	.align	16, 0x90
	.type	httpd_parse_request,@function
httpd_parse_request:                    # @httpd_parse_request
	.cfi_startproc
# BB#0:                                 # %entry
	pushq	%rbp
.Ltmp420:
	.cfi_def_cfa_offset 16
	pushq	%r15
.Ltmp421:
	.cfi_def_cfa_offset 24
	pushq	%r14
.Ltmp422:
	.cfi_def_cfa_offset 32
	pushq	%r13
.Ltmp423:
	.cfi_def_cfa_offset 40
	pushq	%r12
.Ltmp424:
	.cfi_def_cfa_offset 48
	pushq	%rbx
.Ltmp425:
	.cfi_def_cfa_offset 56
	subq	$200, %rsp
.Ltmp426:
	.cfi_def_cfa_offset 256
.Ltmp427:
	.cfi_offset %rbx, -56
.Ltmp428:
	.cfi_offset %r12, -48
.Ltmp429:
	.cfi_offset %r13, -40
.Ltmp430:
	.cfi_offset %r14, -32
.Ltmp431:
	.cfi_offset %r15, -24
.Ltmp432:
	.cfi_offset %rbp, -16
	movq	%rdi, %r13
	movl	$735, %edi              # imm = 0x2DF
	callq	_StraightTaint_log
	movq	$0, 168(%r13)
	movq	160(%r13), %r15
	xorl	%r14d, %r14d
	testq	%r15, %r15
	je	.LBB33_10
# BB#1:                                 # %for.body.lr.ph.i
	movl	$736, %edi              # imm = 0x2E0
	callq	_StraightTaint_log
	movq	144(%r13), %r12
	xorl	%r14d, %r14d
	xorl	%ebx, %ebx
.LBB33_2:                               # %for.body.i
                                        # =>This Inner Loop Header: Depth=1
	movl	$737, %edi              # imm = 0x2E1
	callq	_StraightTaint_log
	movzbl	(%r12,%rbx), %ebp
	cmpl	$10, %ebp
	je	.LBB33_4
# BB#3:                                 # %for.body.i
                                        #   in Loop: Header=BB33_2 Depth=1
	movzbl	%bpl, %eax
	cmpl	$13, %eax
	je	.LBB33_4
# BB#9:                                 # %for.inc.i
                                        #   in Loop: Header=BB33_2 Depth=1
	movl	$743, %edi              # imm = 0x2E7
	callq	_StraightTaint_log
	incq	%rbx
	cmpq	%r15, %rbx
	movq	%rbx, 168(%r13)
	jb	.LBB33_2
	jmp	.LBB33_10
.LBB33_4:                               # %if.then.i
	movl	$738, %edi              # imm = 0x2E2
	callq	_StraightTaint_log
	movb	$0, (%r12,%rbx)
	movq	168(%r13), %rbx
	incq	%rbx
	movq	%rbx, 168(%r13)
	movzbl	%bpl, %eax
	cmpl	$13, %eax
	jne	.LBB33_8
# BB#5:                                 # %land.lhs.true.i
	movl	$739, %edi              # imm = 0x2E3
	callq	_StraightTaint_log
	cmpq	160(%r13), %rbx
	jae	.LBB33_8
# BB#6:                                 # %land.lhs.true21.i
	movl	$740, %edi              # imm = 0x2E4
	callq	_StraightTaint_log
	movq	144(%r13), %rbp
	movzbl	(%rbp,%rbx), %eax
	cmpl	$10, %eax
	jne	.LBB33_8
# BB#7:                                 # %if.then28.i
	movl	$741, %edi              # imm = 0x2E5
	callq	_StraightTaint_log
	movb	$0, (%rbp,%rbx)
	incq	168(%r13)
.LBB33_8:                               # %if.end.i
	movl	$742, %edi              # imm = 0x2E6
	callq	_StraightTaint_log
	movq	144(%r13), %r14
.LBB33_10:                              # %bufgets.exit
	movl	$744, %edi              # imm = 0x2E8
	callq	_StraightTaint_log
	movl	$.L.str2770, %esi
	movq	%r14, %rdi
	callq	strpbrk
	movq	%rax, %rbp
	testq	%rbp, %rbp
	je	.LBB33_11
# BB#13:                                # %if.end
	movq	%r13, %r15
	movl	$746, %edi              # imm = 0x2EA
	callq	_StraightTaint_log
	leaq	1(%rbp), %rdi
	movb	$0, (%rbp)
	movl	$.L.str2770, %esi
	callq	strspn
	movq	%rax, 48(%rsp)          # 8-byte Spill
	leaq	1(%rax,%rbp), %r12
	movl	$.L.str2770, %esi
	movq	%r12, %rdi
	callq	strpbrk
	movq	%rax, %r13
	testq	%r13, %r13
	je	.LBB33_14
# BB#15:                                # %if.else
	movl	$748, %edi              # imm = 0x2EC
	callq	_StraightTaint_log
	leaq	1(%r13), %rdi
	movb	$0, (%r13)
	movl	$.L.str2770, %esi
	callq	strspn
	leaq	1(%rax,%r13), %rbx
	cmpb	$0, 1(%rax,%r13)
	je	.LBB33_16
# BB#17:                                # %cond.false235
	movl	$749, %edi              # imm = 0x2ED
	callq	_StraightTaint_log
	movl	$.L.str2770, %esi
	movq	%rbx, %rdi
	callq	strpbrk
	movq	%rax, %r13
	testq	%r13, %r13
	je	.LBB33_19
# BB#18:                                # %if.then251
	movl	$750, %edi              # imm = 0x2EE
	callq	_StraightTaint_log
	movb	$0, (%r13)
.LBB33_19:                              # %if.end252
	movl	$751, %edi              # imm = 0x2EF
	callq	_StraightTaint_log
	movl	$.L.str2972, %esi
	movq	%rbx, %rdi
	callq	strcasecmp
	testl	%eax, %eax
	je	.LBB33_20
# BB#21:                                # %if.then256
	movl	$752, %edi              # imm = 0x2F0
	callq	_StraightTaint_log
	movq	%r15, %r13
	movl	$1, 524(%r13)
	jmp	.LBB33_22
.LBB33_11:                              # %if.then
	movl	$745, %edi              # imm = 0x2E9
	jmp	.LBB33_12
.LBB33_14:                              # %if.then142
	movl	$747, %edi              # imm = 0x2EB
	callq	_StraightTaint_log
	movq	%r15, %r13
	movl	$0, 520(%r13)
	movl	$.L.str2871, %ebx
	jmp	.LBB33_22
.LBB33_16:
	movq	%r15, %r13
	jmp	.LBB33_22
.LBB33_20:
	movq	%r15, %r13
.LBB33_22:                              # %if.end259
	movl	$753, %edi              # imm = 0x2F1
	callq	_StraightTaint_log
	movq	%rbx, 224(%r13)
	movl	$.L.str3073, %esi
	movl	$7, %edx
	movq	%r12, %rdi
	callq	strncasecmp
	testl	%eax, %eax
	je	.LBB33_23
# BB#30:                                # %if.end286
	movl	$762, %edi              # imm = 0x2FA
	callq	_StraightTaint_log
	movzbl	(%r12), %eax
	cmpl	$47, %eax
	je	.LBB33_33
# BB#31:                                # %if.then290
	movl	$763, %edi              # imm = 0x2FB
	jmp	.LBB33_12
.LBB33_23:                              # %if.then264
	movl	$754, %edi              # imm = 0x2F2
	callq	_StraightTaint_log
	cmpl	$0, 524(%r13)
	je	.LBB33_24
# BB#25:                                # %if.end267
	movl	$756, %edi              # imm = 0x2F4
	callq	_StraightTaint_log
	movq	48(%rsp), %rax          # 8-byte Reload
	leaq	8(%rax,%rbp), %rbx
	movl	$47, %esi
	movq	%rbx, %rdi
	callq	strchr
	movq	%rax, %r12
	testq	%r12, %r12
	je	.LBB33_26
# BB#27:                                # %if.end273
	movl	$758, %edi              # imm = 0x2F6
	callq	_StraightTaint_log
	movb	$0, (%r12)
	movl	$47, %esi
	movq	%rbx, %rdi
	callq	strchr
	testq	%rax, %rax
	jne	.LBB33_29
# BB#28:                                # %lor.lhs.false
	movl	$759, %edi              # imm = 0x2F7
	callq	_StraightTaint_log
	movzbl	(%rbx), %eax
	cmpl	$46, %eax
	jne	.LBB33_32
.LBB33_29:                              # %if.then280
	movl	$760, %edi              # imm = 0x2F8
	jmp	.LBB33_12
.LBB33_24:                              # %if.then266
	movl	$755, %edi              # imm = 0x2F3
	jmp	.LBB33_12
.LBB33_26:                              # %if.then272
	movl	$757, %edi              # imm = 0x2F5
	jmp	.LBB33_12
.LBB33_32:                              # %if.end286.thread
	movl	$761, %edi              # imm = 0x2F9
	callq	_StraightTaint_log
	leaq	328(%r13), %rbp
	leaq	440(%r13), %r15
	movq	%rbx, %rdi
	callq	strlen
	movq	%rbp, %rdi
	movq	%r15, %rsi
	movq	%rax, %rdx
	callq	httpd_realloc_str
	movq	328(%r13), %rdi
	movq	%rbx, %rsi
	callq	strcpy
	movb	$47, (%r12)
.LBB33_33:                              # %if.end291
	movl	$764, %edi              # imm = 0x2FC
	callq	_StraightTaint_log
	movl	$.L.str2063, %esi
	movq	%r14, %rdi
	callq	strcasecmp
	testl	%eax, %eax
	je	.LBB33_34
# BB#35:                                # %if.else297
	movl	$766, %edi              # imm = 0x2FE
	callq	_StraightTaint_log
	movl	$.L.str2164, %esi
	movq	%r14, %rdi
	callq	strcasecmp
	testl	%eax, %eax
	je	.LBB33_36
# BB#37:                                # %if.else304
	movl	$768, %edi              # imm = 0x300
	callq	_StraightTaint_log
	movl	$.L.str2265, %esi
	movq	%r14, %rdi
	callq	strcasecmp
	testl	%eax, %eax
	je	.LBB33_38
# BB#222:                               # %if.else311
	movl	$770, %edi              # imm = 0x302
	callq	_StraightTaint_log
	movl	$501, %esi              # imm = 0x1F5
	movl	$.L.str523, %edx
	movl	$.L.str2669, %ecx
	movl	$.L.str522, %r8d
	movq	%r13, %rdi
	movq	%r14, %r9
	jmp	.LBB33_220
.LBB33_34:                              # %if.then296
	movl	$765, %edi              # imm = 0x2FD
	callq	_StraightTaint_log
	movl	$1, 180(%r13)
	jmp	.LBB33_39
.LBB33_36:                              # %if.then302
	movl	$767, %edi              # imm = 0x2FF
	callq	_StraightTaint_log
	movl	$2, 180(%r13)
	jmp	.LBB33_39
.LBB33_38:                              # %if.then309
	movl	$769, %edi              # imm = 0x301
	callq	_StraightTaint_log
	movl	$3, 180(%r13)
.LBB33_39:                              # %if.end314
	movl	$771, %edi              # imm = 0x303
	callq	_StraightTaint_log
	movq	%r12, 208(%r13)
	leaq	216(%r13), %rbx
	leaq	376(%r13), %rbp
	movq	%r12, %rdi
	callq	strlen
	movq	%rbx, %rdi
	movq	%rbp, %rsi
	movq	%rax, %rdx
	callq	httpd_realloc_str
	movq	208(%r13), %rsi
	movq	216(%r13), %rdi
	callq	strdecode
	leaq	232(%r13), %r14
	leaq	384(%r13), %rbx
	movq	216(%r13), %rdi
	callq	strlen
	movq	%r14, %rdi
	movq	%rbx, %rsi
	movq	%rax, %rdx
	callq	httpd_realloc_str
	movq	216(%r13), %rsi
	movq	232(%r13), %rdi
	incq	%rsi
	callq	strcpy
	movq	232(%r13), %rbx
	cmpb	$0, (%rbx)
	jne	.LBB33_41
# BB#40:                                # %if.then330
	movl	$772, %edi              # imm = 0x304
	callq	_StraightTaint_log
	movw	$46, (%rbx)
.LBB33_41:                              # %if.end333
	movl	$773, %edi              # imm = 0x305
	callq	_StraightTaint_log
	movq	208(%r13), %rdi
	movl	$63, %esi
	callq	strchr
	movq	%rax, %rbx
	testq	%rbx, %rbx
	je	.LBB33_44
# BB#42:                                # %if.then338
	movl	$774, %edi              # imm = 0x306
	callq	_StraightTaint_log
	incq	%rbx
	leaq	264(%r13), %rbp
	leaq	416(%r13), %r15
	movq	%rbx, %rdi
	callq	strlen
	movq	%rbp, %rdi
	movq	%r15, %rsi
	movq	%rax, %rdx
	callq	httpd_realloc_str
	movq	264(%r13), %rdi
	movq	%rbx, %rsi
	callq	strcpy
	movq	232(%r13), %rdi
	movl	$63, %esi
	callq	strchr
	movq	%rax, %rbx
	testq	%rbx, %rbx
	je	.LBB33_44
# BB#43:                                # %if.then347
	movl	$775, %edi              # imm = 0x307
	callq	_StraightTaint_log
	movb	$0, (%rbx)
.LBB33_44:                              # %if.end349
	movl	$776, %edi              # imm = 0x308
	callq	_StraightTaint_log
	movq	(%r14), %r12
	jmp	.LBB33_45
	.align	16, 0x90
.LBB33_56:                              # %for.end.i
                                        #   in Loop: Header=BB33_45 Depth=1
	movl	$781, %edi              # imm = 0x30D
	callq	_StraightTaint_log
	incq	%rbx
	movq	%rbx, %rdi
	movq	%rbp, %rsi
	callq	strcpy
.LBB33_45:                              # %if.end349
                                        # =>This Loop Header: Depth=1
                                        #     Child Loop BB33_55 Depth 2
	movl	$.L.str498, %esi
	movq	%r12, %rdi
	callq	strstr
	movq	%rax, %rbx
	testq	%rbx, %rbx
	je	.LBB33_46
# BB#54:                                # %while.body.i
                                        #   in Loop: Header=BB33_45 Depth=1
	movl	$779, %edi              # imm = 0x30B
	callq	_StraightTaint_log
	leaq	1(%rbx), %rbp
	.align	16, 0x90
.LBB33_55:                              # %for.cond.i
                                        #   Parent Loop BB33_45 Depth=1
                                        # =>  This Inner Loop Header: Depth=2
	movl	$780, %edi              # imm = 0x30C
	callq	_StraightTaint_log
	movzbl	1(%rbp), %eax
	incq	%rbp
	cmpl	$47, %eax
	je	.LBB33_55
	jmp	.LBB33_56
.LBB33_46:                              # %while.cond5.preheader.i
	movl	$777, %edi              # imm = 0x309
	callq	_StraightTaint_log
	movl	$.L.str75, %esi
	movl	$2, %edx
	movq	%r12, %rdi
	callq	strncmp
	testl	%eax, %eax
	jne	.LBB33_49
# BB#47:                                # %while.body9.lr.ph.i
	movl	$778, %edi              # imm = 0x30A
	callq	_StraightTaint_log
	leaq	2(%r12), %rbx
	.align	16, 0x90
.LBB33_48:                              # %while.body9.i
                                        # =>This Inner Loop Header: Depth=1
	movl	$783, %edi              # imm = 0x30F
	callq	_StraightTaint_log
	movq	%r12, %rdi
	movq	%rbx, %rsi
	callq	strcpy
	movl	$.L.str75, %esi
	movl	$2, %edx
	movq	%r12, %rdi
	callq	strncmp
	testl	%eax, %eax
	je	.LBB33_48
.LBB33_49:                              # %while.cond13.preheader.i
	movl	$782, %edi              # imm = 0x30E
	callq	_StraightTaint_log
	jmp	.LBB33_50
	.align	16, 0x90
.LBB33_223:                             # %while.body17.i
                                        #   in Loop: Header=BB33_50 Depth=1
	movl	$785, %edi              # imm = 0x311
	callq	_StraightTaint_log
	leaq	2(%rbx), %rsi
	movq	%rbx, %rdi
	callq	strcpy
.LBB33_50:                              # %while.cond13.preheader.i
                                        # =>This Inner Loop Header: Depth=1
	movl	$.L.str511, %esi
	movq	%r12, %rdi
	callq	strstr
	movq	%rax, %rbx
	testq	%rbx, %rbx
	jne	.LBB33_223
# BB#51:                                # %while.cond22.preheader.i
	movl	$784, %edi              # imm = 0x310
	callq	_StraightTaint_log
	leaq	3(%r12), %r15
	jmp	.LBB33_52
	.align	16, 0x90
.LBB33_53:                              # %while.body26.i
                                        #   in Loop: Header=BB33_52 Depth=1
	movl	$787, %edi              # imm = 0x313
	callq	_StraightTaint_log
	movq	%r12, %rdi
	movq	%r15, %rsi
	callq	strcpy
.LBB33_52:                              # %while.cond22.i
                                        # =>This Loop Header: Depth=1
                                        #     Child Loop BB33_59 Depth 2
	movl	$786, %edi              # imm = 0x312
	callq	_StraightTaint_log
	movl	$.L.str512, %esi
	movl	$3, %edx
	movq	%r12, %rdi
	callq	strncmp
	testl	%eax, %eax
	je	.LBB33_53
# BB#57:                                # %while.end29.i
                                        #   in Loop: Header=BB33_52 Depth=1
	movl	$788, %edi              # imm = 0x314
	callq	_StraightTaint_log
	movl	$.L.str513, %esi
	movq	%r12, %rdi
	callq	strstr
	movq	%rax, %rbx
	testq	%rbx, %rbx
	je	.LBB33_62
# BB#58:                                # %for.cond34.i.preheader
                                        #   in Loop: Header=BB33_52 Depth=1
	leaq	-1(%rbx), %rax
	.align	16, 0x90
.LBB33_59:                              # %for.cond34.i
                                        #   Parent Loop BB33_52 Depth=1
                                        # =>  This Inner Loop Header: Depth=2
	movq	%rax, %rbp
	movl	$790, %edi              # imm = 0x316
	callq	_StraightTaint_log
	cmpq	%r12, %rbp
	jb	.LBB33_61
# BB#60:                                # %land.rhs.i
                                        #   in Loop: Header=BB33_59 Depth=2
	movl	$791, %edi              # imm = 0x317
	callq	_StraightTaint_log
	movzbl	(%rbp), %ecx
	leaq	-1(%rbp), %rax
	cmpl	$47, %ecx
	jne	.LBB33_59
.LBB33_61:                              # %for.end43.i
                                        #   in Loop: Header=BB33_52 Depth=1
	movl	$792, %edi              # imm = 0x318
	callq	_StraightTaint_log
	addq	$4, %rbx
	incq	%rbp
	movq	%rbp, %rdi
	movq	%rbx, %rsi
	callq	strcpy
	jmp	.LBB33_52
.LBB33_62:                              # %while.cond48.preheader.i
	movl	$789, %edi              # imm = 0x315
	callq	_StraightTaint_log
	movq	%r12, %rdi
	callq	strlen
	movq	%rax, %rbx
	cmpl	$4, %ebx
	jl	.LBB33_72
# BB#63:                                # %cond.true.i.preheader
	leaq	-4(%r12), %r15
.LBB33_64:                              # %cond.true.i
                                        # =>This Loop Header: Depth=1
                                        #     Child Loop BB33_69 Depth 2
	movl	$793, %edi              # imm = 0x319
	callq	_StraightTaint_log
	movslq	%ebx, %rbp
	movzbl	-3(%rbp,%r12), %eax
	cmpl	$47, %eax
	jne	.LBB33_72
# BB#65:                                # %if.then67.i
                                        #   in Loop: Header=BB33_64 Depth=1
	movl	$794, %edi              # imm = 0x31A
	callq	_StraightTaint_log
	movzbl	-2(%rbp,%r12), %eax
	cmpl	$46, %eax
	jne	.LBB33_72
# BB#66:                                # %if.then77.i
                                        #   in Loop: Header=BB33_64 Depth=1
	movl	$795, %edi              # imm = 0x31B
	callq	_StraightTaint_log
	movzbl	-1(%rbp,%r12), %eax
	cmpl	$46, %eax
	jne	.LBB33_72
# BB#67:                                # %cond.end.i
                                        #   in Loop: Header=BB33_64 Depth=1
	movl	$796, %edi              # imm = 0x31C
	callq	_StraightTaint_log
	cmpb	$0, (%r12,%rbp)
	jne	.LBB33_72
# BB#68:                                # %for.cond105.i.preheader
                                        #   in Loop: Header=BB33_64 Depth=1
	movslq	%ebx, %rbx
	addq	%r15, %rbx
	.align	16, 0x90
.LBB33_69:                              # %for.cond105.i
                                        #   Parent Loop BB33_64 Depth=1
                                        # =>  This Inner Loop Header: Depth=2
	movl	$797, %edi              # imm = 0x31D
	callq	_StraightTaint_log
	cmpq	%r12, %rbx
	jb	.LBB33_72
# BB#70:                                # %land.rhs108.i
                                        #   in Loop: Header=BB33_69 Depth=2
	movl	$798, %edi              # imm = 0x31E
	callq	_StraightTaint_log
	movzbl	(%rbx), %eax
	decq	%rbx
	cmpl	$47, %eax
	jne	.LBB33_69
# BB#71:                                # %if.end120.i
                                        #   in Loop: Header=BB33_64 Depth=1
	movl	$799, %edi              # imm = 0x31F
	callq	_StraightTaint_log
	movb	$0, 1(%rbx)
	movq	%r12, %rdi
	callq	strlen
	movq	%rax, %rbx
	cmpl	$3, %ebx
	jg	.LBB33_64
.LBB33_72:                              # %de_dotdot.exit
	movl	$800, %edi              # imm = 0x320
	callq	_StraightTaint_log
	movq	(%r14), %rbx
	movzbl	(%rbx), %eax
	cmpl	$47, %eax
	je	.LBB33_77
# BB#73:                                # %de_dotdot.exit
	movzbl	%al, %eax
	cmpl	$46, %eax
	jne	.LBB33_78
# BB#74:                                # %land.lhs.true
	movl	$801, %edi              # imm = 0x321
	callq	_StraightTaint_log
	movzbl	1(%rbx), %eax
	cmpl	$46, %eax
	jne	.LBB33_78
# BB#75:                                # %land.lhs.true367
	movl	$802, %edi              # imm = 0x322
	callq	_StraightTaint_log
	movb	2(%rbx), %al
	testb	%al, %al
	je	.LBB33_77
# BB#76:                                # %land.lhs.true367
	movzbl	%al, %eax
	cmpl	$47, %eax
	jne	.LBB33_78
.LBB33_77:                              # %if.then379
	movl	$803, %edi              # imm = 0x323
.LBB33_12:                              # %return
	callq	_StraightTaint_log
	movq	httpd_err400title(%rip), %rdx
	movq	httpd_err400form(%rip), %r8
	movl	$400, %esi              # imm = 0x190
	movl	$.L.str2669, %ecx
	movl	$.L.str2669, %r9d
.LBB33_219:                             # %return
	movq	%r13, %rdi
.LBB33_220:                             # %return
	callq	httpd_send_err
	movl	$-1, %ebx
.LBB33_221:                             # %return
	movl	$919, %edi              # imm = 0x397
	callq	_StraightTaint_log
	movl	%ebx, %eax
	addq	$200, %rsp
	popq	%rbx
	popq	%r12
	popq	%r13
	popq	%r14
	popq	%r15
	popq	%rbp
	ret
.LBB33_78:                              # %if.end380
	movq	%r14, 48(%rsp)          # 8-byte Spill
	movl	$804, %edi              # imm = 0x324
	callq	_StraightTaint_log
	cmpl	$0, 520(%r13)
	movq	%r13, %r14
	je	.LBB33_186
# BB#79:                                # %while.cond.preheader
	movl	$805, %edi              # imm = 0x325
	callq	_StraightTaint_log
	movq	160(%r14), %r12
	movq	168(%r14), %r15
	cmpq	%r12, %r15
	jae	.LBB33_186
# BB#80:                                # %for.body.lr.ph.i1720.lr.ph
	movl	$806, %edi              # imm = 0x326
	callq	_StraightTaint_log
	leaq	288(%r14), %rax
	movq	%rax, 40(%rsp)          # 8-byte Spill
	leaq	424(%r14), %rax
	movq	%rax, 32(%rsp)          # 8-byte Spill
	leaq	16(%r14), %rax
	movq	%rax, 16(%rsp)          # 8-byte Spill
	leaq	296(%r14), %rax
	movq	%rax, 24(%rsp)          # 8-byte Spill
	leaq	432(%r14), %rax
	movq	%rax, 8(%rsp)           # 8-byte Spill
	jmp	.LBB33_81
.LBB33_89:                              # %while.body
                                        #   in Loop: Header=BB33_81 Depth=1
	movl	$815, %edi              # imm = 0x32F
	callq	_StraightTaint_log
	cmpb	$0, (%rbx)
	je	.LBB33_186
# BB#90:                                # %if.end392
                                        #   in Loop: Header=BB33_81 Depth=1
	movl	$816, %edi              # imm = 0x330
	callq	_StraightTaint_log
	movl	$.L.str3275, %esi
	movl	$8, %edx
	movq	%rbx, %rdi
	callq	strncasecmp
	testl	%eax, %eax
	jne	.LBB33_96
# BB#91:                                # %if.then396
                                        #   in Loop: Header=BB33_81 Depth=1
	movl	$817, %edi              # imm = 0x331
	callq	_StraightTaint_log
	movslq	%r15d, %rax
	leaq	8(%r12,%rax), %rbx
	movq	%r14, %rbp
	jmp	.LBB33_92
	.align	16, 0x90
.LBB33_94:                              # %while.cond.i.backedge
                                        #   in Loop: Header=BB33_92 Depth=2
	incq	%rbx
.LBB33_92:                              # %while.cond.i
                                        #   Parent Loop BB33_81 Depth=1
                                        # =>  This Inner Loop Header: Depth=2
	movl	$818, %edi              # imm = 0x332
	callq	_StraightTaint_log
	movsbl	(%rbx), %eax
	cmpl	$9, %eax
	je	.LBB33_94
# BB#93:                                # %while.cond.i
                                        #   in Loop: Header=BB33_92 Depth=2
	cmpl	$32, %eax
	je	.LBB33_94
# BB#95:                                # %__strspn_c2.exit
                                        #   in Loop: Header=BB33_81 Depth=1
	movl	$819, %edi              # imm = 0x333
	callq	_StraightTaint_log
	movq	%rbx, 272(%rbp)
	jmp	.LBB33_122
.LBB33_96:                              # %if.else449
                                        #   in Loop: Header=BB33_81 Depth=1
	movl	$820, %edi              # imm = 0x334
	callq	_StraightTaint_log
	movl	$.L.str3476, %esi
	movl	$11, %edx
	movq	%rbx, %rdi
	callq	strncasecmp
	testl	%eax, %eax
	jne	.LBB33_102
# BB#97:                                # %if.then453
                                        #   in Loop: Header=BB33_81 Depth=1
	movl	$821, %edi              # imm = 0x335
	callq	_StraightTaint_log
	movslq	%r15d, %rax
	leaq	11(%r12,%rax), %rbx
	movq	%r14, %rbp
	jmp	.LBB33_98
	.align	16, 0x90
.LBB33_100:                             # %while.cond.i1752.backedge
                                        #   in Loop: Header=BB33_98 Depth=2
	incq	%rbx
.LBB33_98:                              # %while.cond.i1752
                                        #   Parent Loop BB33_81 Depth=1
                                        # =>  This Inner Loop Header: Depth=2
	movl	$822, %edi              # imm = 0x336
	callq	_StraightTaint_log
	movsbl	(%rbx), %eax
	cmpl	$9, %eax
	je	.LBB33_100
# BB#99:                                # %while.cond.i1752
                                        #   in Loop: Header=BB33_98 Depth=2
	cmpl	$32, %eax
	je	.LBB33_100
# BB#101:                               # %__strspn_c2.exit1753
                                        #   in Loop: Header=BB33_81 Depth=1
	movl	$823, %edi              # imm = 0x337
	callq	_StraightTaint_log
	movq	%rbx, 280(%rbp)
	jmp	.LBB33_122
.LBB33_102:                             # %if.else506
                                        #   in Loop: Header=BB33_81 Depth=1
	movl	$824, %edi              # imm = 0x338
	callq	_StraightTaint_log
	movl	$.L.str3577, %esi
	movl	$5, %edx
	movq	%rbx, %rdi
	callq	strncasecmp
	testl	%eax, %eax
	jne	.LBB33_112
# BB#103:                               # %if.then510
                                        #   in Loop: Header=BB33_81 Depth=1
	movl	$825, %edi              # imm = 0x339
	callq	_StraightTaint_log
	movslq	%r15d, %rax
	leaq	5(%r12,%rax), %rbx
	movq	%r14, %rbp
	jmp	.LBB33_104
	.align	16, 0x90
.LBB33_106:                             # %while.cond.i1761.backedge
                                        #   in Loop: Header=BB33_104 Depth=2
	incq	%rbx
.LBB33_104:                             # %while.cond.i1761
                                        #   Parent Loop BB33_81 Depth=1
                                        # =>  This Inner Loop Header: Depth=2
	movl	$826, %edi              # imm = 0x33A
	callq	_StraightTaint_log
	movsbl	(%rbx), %eax
	cmpl	$9, %eax
	je	.LBB33_106
# BB#105:                               # %while.cond.i1761
                                        #   in Loop: Header=BB33_104 Depth=2
	cmpl	$32, %eax
	je	.LBB33_106
# BB#107:                               # %__strspn_c2.exit1762
                                        #   in Loop: Header=BB33_81 Depth=1
	movl	$827, %edi              # imm = 0x33B
	callq	_StraightTaint_log
	movq	%rbx, 336(%rbp)
	movl	$58, %esi
	movq	%rbx, %rdi
	callq	strchr
	movq	%rax, %r15
	testq	%r15, %r15
	je	.LBB33_109
# BB#108:                               # %if.then567
                                        #   in Loop: Header=BB33_81 Depth=1
	movl	$828, %edi              # imm = 0x33C
	callq	_StraightTaint_log
	movb	$0, (%r15)
	movq	336(%rbp), %rbx
.LBB33_109:                             # %if.end568
                                        #   in Loop: Header=BB33_81 Depth=1
	movl	$829, %edi              # imm = 0x33D
	callq	_StraightTaint_log
	movl	$47, %esi
	movq	%rbx, %rdi
	callq	strchr
	testq	%rax, %rax
	jne	.LBB33_111
# BB#110:                               # %lor.lhs.false573
                                        #   in Loop: Header=BB33_81 Depth=1
	movl	$830, %edi              # imm = 0x33E
	callq	_StraightTaint_log
	movzbl	(%rbx), %eax
	cmpl	$46, %eax
	jne	.LBB33_122
	jmp	.LBB33_111
.LBB33_112:                             # %if.else581
                                        #   in Loop: Header=BB33_81 Depth=1
	movl	$832, %edi              # imm = 0x340
	callq	_StraightTaint_log
	movl	$.L.str3678, %esi
	movl	$7, %edx
	movq	%rbx, %rdi
	callq	strncasecmp
	testl	%eax, %eax
	jne	.LBB33_126
# BB#113:                               # %if.then585
                                        #   in Loop: Header=BB33_81 Depth=1
	movl	$833, %edi              # imm = 0x341
	callq	_StraightTaint_log
	movslq	%r15d, %rax
	leaq	7(%r12,%rax), %rbx
	movq	%r14, %rbp
	movq	40(%rsp), %r14          # 8-byte Reload
	jmp	.LBB33_114
	.align	16, 0x90
.LBB33_116:                             # %while.cond.i1770.backedge
                                        #   in Loop: Header=BB33_114 Depth=2
	incq	%rbx
.LBB33_114:                             # %while.cond.i1770
                                        #   Parent Loop BB33_81 Depth=1
                                        # =>  This Inner Loop Header: Depth=2
	movl	$834, %edi              # imm = 0x342
	callq	_StraightTaint_log
	movsbl	(%rbx), %eax
	cmpl	$9, %eax
	je	.LBB33_116
# BB#115:                               # %while.cond.i1770
                                        #   in Loop: Header=BB33_114 Depth=2
	cmpl	$32, %eax
	je	.LBB33_116
# BB#117:                               # %__strspn_c2.exit1771
                                        #   in Loop: Header=BB33_81 Depth=1
	movl	$835, %edi              # imm = 0x343
	callq	_StraightTaint_log
	movq	(%r14), %r15
	cmpb	$0, (%r15)
	jne	.LBB33_118
# BB#124:                               # %if.else657
                                        #   in Loop: Header=BB33_81 Depth=1
	movl	$840, %edi              # imm = 0x348
	callq	_StraightTaint_log
	movq	%rbx, %rdi
	callq	strlen
	movq	%r14, %rdi
	movq	32(%rsp), %rsi          # 8-byte Reload
	movq	%rax, %rdx
	callq	httpd_realloc_str
	jmp	.LBB33_125
.LBB33_126:                             # %if.else664
                                        #   in Loop: Header=BB33_81 Depth=1
	movl	$842, %edi              # imm = 0x34A
	callq	_StraightTaint_log
	movl	$.L.str3981, %esi
	movl	$16, %edx
	movq	%rbx, %rdi
	callq	strncasecmp
	testl	%eax, %eax
	jne	.LBB33_137
# BB#127:                               # %if.then668
                                        #   in Loop: Header=BB33_81 Depth=1
	movl	$843, %edi              # imm = 0x34B
	callq	_StraightTaint_log
	movslq	%r15d, %rax
	leaq	16(%r12,%rax), %rbx
	jmp	.LBB33_128
.LBB33_130:                             # %while.cond.i1779.backedge
