	.file	"thttpd.bc"
	.section	.rodata.cst16,"aM",@progbits,16
	.align	16
.LCPI0_0:
	.zero	16
	.text
	.globl	main
	.align	16, 0x90
	.type	main,@function
main:                                   # @main
	.cfi_startproc
# BB#0:                                 # %entry
	pushq	%rbp
.Ltmp7:
	.cfi_def_cfa_offset 16
	pushq	%r15
.Ltmp8:
	.cfi_def_cfa_offset 24
	pushq	%r14
.Ltmp9:
	.cfi_def_cfa_offset 32
	pushq	%r13
.Ltmp10:
	.cfi_def_cfa_offset 40
	pushq	%r12
.Ltmp11:
	.cfi_def_cfa_offset 48
	pushq	%rbx
.Ltmp12:
	.cfi_def_cfa_offset 56
	subq	$23688, %rsp            # imm = 0x5C88
.Ltmp13:
	.cfi_def_cfa_offset 23744
.Ltmp14:
	.cfi_offset %rbx, -56
.Ltmp15:
	.cfi_offset %r12, -48
.Ltmp16:
	.cfi_offset %r13, -40
.Ltmp17:
	.cfi_offset %r14, -32
.Ltmp18:
	.cfi_offset %r15, -24
.Ltmp19:
	.cfi_offset %rbp, -16
	movq	%rsi, 112(%rsp)         # 8-byte Spill
	movl	%edi, %ebp
	movl	%ebp, 120(%rsp)         # 4-byte Spill
	movq	(%rsi), %rbx
	movq	%rbx, argv0(%rip)
	movl	$47, %esi
	movq	%rbx, %rdi
	callq	strrchr
	testq	%rax, %rax
	leaq	1(%rax), %rdi
	cmoveq	%rbx, %rdi
	movl	$9, %esi
	movl	$24, %edx
	callq	openlog
	movb	$0, debug(%rip)
	movw	$80, port(%rip)
	movq	$0, dir(%rip)
	movq	$0, data_dir(%rip)
	movb	$0, do_chroot(%rip)
	movb	$0, no_log(%rip)
	movl	$0, no_symlink_check(%rip)
	movb	$0, do_vhost(%rip)
	movb	$0, do_global_passwd(%rip)
	movq	$0, cgi_pattern(%rip)
	movl	$0, cgi_limit(%rip)
	movq	$0, url_pattern(%rip)
	movb	$0, no_empty_referers(%rip)
	movq	$0, local_pattern(%rip)
	movq	$0, throttlefile(%rip)
	movq	$0, hostname(%rip)
	movq	$0, logfile(%rip)
	movq	$0, pidfile(%rip)
	movq	$.L.str70, user(%rip)
	movq	$.L.str71, charset(%rip)
	movq	$.L.str42, p3p(%rip)
	movl	$-1, max_age(%rip)
	movl	$1, %r12d
	cmpl	$2, %ebp
	jl	.LBB0_207
# BB#1:                                 # %land.rhs.lr.ph.i
	movl	$1, %ebp
	movabsq	$4294977024, %r14       # imm = 0x100002600
	jmp	.LBB0_2
	.align	16, 0x90
.LBB0_4:                                # %if.then.i
                                        #   in Loop: Header=BB0_2 Depth=1
	movsbl	1(%rbx), %r13d
	cmpl	$85, %r13d
	jg	.LBB0_10
# BB#5:                                 # %if.then.i
                                        #   in Loop: Header=BB0_2 Depth=1
	movzbl	%r13b, %eax
	cmpl	$67, %eax
	jne	.LBB0_140
# BB#6:                                 # %cond.end108.i
                                        #   in Loop: Header=BB0_2 Depth=1
	cmpb	$0, 2(%rbx)
	jne	.LBB0_140
# BB#7:                                 # %land.lhs.true112.i
                                        #   in Loop: Header=BB0_2 Depth=1
	leal	1(%rbp), %r12d
	cmpl	120(%rsp), %r12d        # 4-byte Folded Reload
	jge	.LBB0_140
# BB#8:                                 # %if.then115.i
                                        #   in Loop: Header=BB0_2 Depth=1
	movslq	%r12d, %rax
	movq	112(%rsp), %rcx         # 8-byte Reload
	movq	(%rcx,%rax,8), %rbx
	movl	$.L.str56, %esi
	movq	%rbx, %rdi
	callq	fopen
	movq	%rax, %rbp
	movq	%rbp, 104(%rsp)         # 8-byte Spill
	testq	%rbp, %rbp
	je	.LBB0_19
# BB#9:                                 # %while.cond.preheader.i.i
                                        #   in Loop: Header=BB0_2 Depth=1
	movl	$10000, %esi            # imm = 0x2710
	leaq	4512(%rsp), %rbx
	movq	%rbx, %rdi
	jmp	.LBB0_22
	.align	16, 0x90
.LBB0_21:                               # %while.cond.loopexit.i.i
                                        #   in Loop: Header=BB0_22 Depth=2
	movl	$10000, %esi            # imm = 0x2710
	movq	%r13, %rbx
	movq	%rbx, %rdi
	movq	104(%rsp), %rbp         # 8-byte Reload
.LBB0_22:                               # %while.cond.loopexit.i.i
                                        #   Parent Loop BB0_2 Depth=1
                                        # =>  This Loop Header: Depth=2
                                        #       Child Loop BB0_27 Depth 3
                                        #         Child Loop BB0_28 Depth 4
	movq	%rbp, %rdx
	callq	fgets
	testq	%rax, %rax
	je	.LBB0_205
# BB#23:                                # %while.body.i.i
                                        #   in Loop: Header=BB0_22 Depth=2
	movl	$35, %esi
	movq	%rbx, %rdi
	callq	strchr
	testq	%rax, %rax
	je	.LBB0_25
# BB#24:                                # %if.then6.i.i
                                        #   in Loop: Header=BB0_22 Depth=2
	movb	$0, (%rax)
.LBB0_25:                               # %cond.false35.i.i
                                        #   in Loop: Header=BB0_22 Depth=2
	movl	$.L.str98, %esi
	movq	%rbx, %rdi
	movq	%rbx, %r13
	callq	strspn
	cmpb	$0, 4512(%rsp,%rax)
	je	.LBB0_21
# BB#26:                                #   in Loop: Header=BB0_22 Depth=2
	leaq	4512(%rsp,%rax), %rbx
	.align	16, 0x90
.LBB0_27:                               # %cond.false86.i.i
                                        #   Parent Loop BB0_2 Depth=1
                                        #     Parent Loop BB0_22 Depth=2
                                        # =>    This Loop Header: Depth=3
                                        #         Child Loop BB0_28 Depth 4
	movl	$.L.str98, %esi
	movq	%rbx, %rdi
	callq	strcspn
	movq	%rax, %rbp
	addq	%rbx, %rbp
	jmp	.LBB0_28
	.align	16, 0x90
.LBB0_30:                               # %while.body115.i.i
                                        #   in Loop: Header=BB0_28 Depth=4
	movb	$0, (%rbp)
	incq	%rbp
.LBB0_28:                               # %while.cond101.i.i
                                        #   Parent Loop BB0_2 Depth=1
                                        #     Parent Loop BB0_22 Depth=2
                                        #       Parent Loop BB0_27 Depth=3
                                        # =>      This Inner Loop Header: Depth=4
	movzbl	(%rbp), %eax
	cmpq	$32, %rax
	ja	.LBB0_31
# BB#29:                                # %while.cond101.i.i
                                        #   in Loop: Header=BB0_28 Depth=4
	btq	%rax, %r14
	jb	.LBB0_30
	.align	16, 0x90
.LBB0_31:                               # %while.end.i.i
                                        #   in Loop: Header=BB0_27 Depth=3
	movl	$61, %esi
	movq	%rbx, %rdi
	callq	strchr
	testq	%rax, %rax
	movl	$0, %r15d
	je	.LBB0_33
# BB#32:                                # %if.then119.i.i
                                        #   in Loop: Header=BB0_27 Depth=3
	movb	$0, (%rax)
	incq	%rax
	movq	%rax, %r15
.LBB0_33:                               # %if.end121.i.i
                                        #   in Loop: Header=BB0_27 Depth=3
	movl	$.L.str99, %esi
	movq	%rbx, %rdi
	callq	strcasecmp
	testl	%eax, %eax
	jne	.LBB0_38
# BB#34:                                # %if.then125.i.i
                                        #   in Loop: Header=BB0_27 Depth=3
	testq	%r15, %r15
	jne	.LBB0_35
# BB#132:                               # %no_value_required.exit.i.i
                                        #   in Loop: Header=BB0_27 Depth=3
	movb	$1, debug(%rip)
	jmp	.LBB0_133
	.align	16, 0x90
.LBB0_38:                               # %if.else.i.i
                                        #   in Loop: Header=BB0_27 Depth=3
	movl	$.L.str100, %esi
	movq	%rbx, %rdi
	callq	strcasecmp
	testl	%eax, %eax
	jne	.LBB0_42
# BB#39:                                # %if.then129.i.i
                                        #   in Loop: Header=BB0_27 Depth=3
	testq	%r15, %r15
	je	.LBB0_40
# BB#41:                                # %value_required.exit.i.i
                                        #   in Loop: Header=BB0_27 Depth=3
	xorl	%esi, %esi
	movl	$10, %edx
	movq	%r15, %rdi
	callq	strtol
	movw	%ax, port(%rip)
	jmp	.LBB0_133
	.align	16, 0x90
.LBB0_42:                               # %if.else132.i.i
                                        #   in Loop: Header=BB0_27 Depth=3
	movl	$.L.str101, %esi
	movq	%rbx, %rdi
	callq	strcasecmp
	testl	%eax, %eax
	jne	.LBB0_48
# BB#43:                                # %if.then136.i.i
                                        #   in Loop: Header=BB0_27 Depth=3
	testq	%r15, %r15
	je	.LBB0_40
# BB#44:                                # %value_required.exit481.i.i
                                        #   in Loop: Header=BB0_27 Depth=3
	movq	%r15, %rdi
	callq	__strdup
	testq	%rax, %rax
	je	.LBB0_45
# BB#47:                                # %e_strdup.exit.i.i
                                        #   in Loop: Header=BB0_27 Depth=3
	movq	%rax, dir(%rip)
	jmp	.LBB0_133
.LBB0_48:                               # %if.else138.i.i
                                        #   in Loop: Header=BB0_27 Depth=3
	movl	$.L.str20, %esi
	movq	%rbx, %rdi
	callq	strcasecmp
	testl	%eax, %eax
	jne	.LBB0_51
# BB#49:                                # %if.then142.i.i
                                        #   in Loop: Header=BB0_27 Depth=3
	testq	%r15, %r15
	jne	.LBB0_35
# BB#50:                                # %no_value_required.exit488.i.i
                                        #   in Loop: Header=BB0_27 Depth=3
	movb	$1, do_chroot(%rip)
	movl	$1, no_symlink_check(%rip)
	jmp	.LBB0_133
.LBB0_51:                               # %if.else143.i.i
                                        #   in Loop: Header=BB0_27 Depth=3
	movl	$.L.str102, %esi
	movq	%rbx, %rdi
	callq	strcasecmp
	testl	%eax, %eax
	jne	.LBB0_54
# BB#52:                                # %if.then147.i.i
                                        #   in Loop: Header=BB0_27 Depth=3
	testq	%r15, %r15
	jne	.LBB0_35
# BB#53:                                # %no_value_required.exit492.i.i
                                        #   in Loop: Header=BB0_27 Depth=3
	movb	$0, do_chroot(%rip)
	movl	$0, no_symlink_check(%rip)
	jmp	.LBB0_133
.LBB0_54:                               # %if.else148.i.i
                                        #   in Loop: Header=BB0_27 Depth=3
	movl	$.L.str103, %esi
	movq	%rbx, %rdi
	callq	strcasecmp
	testl	%eax, %eax
	jne	.LBB0_58
# BB#55:                                # %if.then152.i.i
                                        #   in Loop: Header=BB0_27 Depth=3
	testq	%r15, %r15
	je	.LBB0_40
# BB#56:                                # %value_required.exit496.i.i
                                        #   in Loop: Header=BB0_27 Depth=3
	movq	%r15, %rdi
	callq	__strdup
	testq	%rax, %rax
	je	.LBB0_45
# BB#57:                                # %e_strdup.exit501.i.i
                                        #   in Loop: Header=BB0_27 Depth=3
	movq	%rax, data_dir(%rip)
	jmp	.LBB0_133
.LBB0_58:                               # %if.else154.i.i
                                        #   in Loop: Header=BB0_27 Depth=3
	movl	$.L.str104, %esi
	movq	%rbx, %rdi
	callq	strcasecmp
	testl	%eax, %eax
	jne	.LBB0_61
# BB#59:                                # %if.then158.i.i
                                        #   in Loop: Header=BB0_27 Depth=3
	testq	%r15, %r15
	jne	.LBB0_35
# BB#60:                                # %no_value_required.exit505.i.i
                                        #   in Loop: Header=BB0_27 Depth=3
	movl	$0, no_symlink_check(%rip)
	jmp	.LBB0_133
.LBB0_61:                               # %if.else159.i.i
                                        #   in Loop: Header=BB0_27 Depth=3
	movl	$.L.str105, %esi
	movq	%rbx, %rdi
	callq	strcasecmp
	testl	%eax, %eax
	jne	.LBB0_64
# BB#62:                                # %if.then163.i.i
                                        #   in Loop: Header=BB0_27 Depth=3
	testq	%r15, %r15
	jne	.LBB0_35
# BB#63:                                # %no_value_required.exit509.i.i
                                        #   in Loop: Header=BB0_27 Depth=3
	movl	$1, no_symlink_check(%rip)
	jmp	.LBB0_133
.LBB0_64:                               # %if.else164.i.i
                                        #   in Loop: Header=BB0_27 Depth=3
	movl	$.L.str106, %esi
	movq	%rbx, %rdi
	callq	strcasecmp
	testl	%eax, %eax
	jne	.LBB0_67
# BB#65:                                # %if.then168.i.i
                                        #   in Loop: Header=BB0_27 Depth=3
	testq	%r15, %r15
	jne	.LBB0_35
# BB#66:                                # %no_value_required.exit513.i.i
                                        #   in Loop: Header=BB0_27 Depth=3
	movl	$0, no_symlink_check(%rip)
	jmp	.LBB0_133
.LBB0_67:                               # %if.else169.i.i
                                        #   in Loop: Header=BB0_27 Depth=3
	movl	$.L.str107, %esi
	movq	%rbx, %rdi
	callq	strcasecmp
	testl	%eax, %eax
	jne	.LBB0_70
# BB#68:                                # %if.then173.i.i
                                        #   in Loop: Header=BB0_27 Depth=3
	testq	%r15, %r15
	jne	.LBB0_35
# BB#69:                                # %no_value_required.exit517.i.i
                                        #   in Loop: Header=BB0_27 Depth=3
	movl	$1, no_symlink_check(%rip)
	jmp	.LBB0_133
.LBB0_70:                               # %if.else174.i.i
                                        #   in Loop: Header=BB0_27 Depth=3
	movl	$.L.str108, %esi
	movq	%rbx, %rdi
	callq	strcasecmp
	testl	%eax, %eax
	jne	.LBB0_74
# BB#71:                                # %if.then178.i.i
                                        #   in Loop: Header=BB0_27 Depth=3
	testq	%r15, %r15
	je	.LBB0_40
# BB#72:                                # %value_required.exit521.i.i
                                        #   in Loop: Header=BB0_27 Depth=3
	movq	%r15, %rdi
	callq	__strdup
	testq	%rax, %rax
	je	.LBB0_45
# BB#73:                                # %e_strdup.exit526.i.i
                                        #   in Loop: Header=BB0_27 Depth=3
	movq	%rax, user(%rip)
	jmp	.LBB0_133
.LBB0_74:                               # %if.else180.i.i
                                        #   in Loop: Header=BB0_27 Depth=3
	movl	$.L.str109, %esi
	movq	%rbx, %rdi
	callq	strcasecmp
	testl	%eax, %eax
	jne	.LBB0_78
# BB#75:                                # %if.then184.i.i
                                        #   in Loop: Header=BB0_27 Depth=3
	testq	%r15, %r15
	je	.LBB0_40
# BB#76:                                # %value_required.exit530.i.i
                                        #   in Loop: Header=BB0_27 Depth=3
	movq	%r15, %rdi
	callq	__strdup
	testq	%rax, %rax
	je	.LBB0_45
# BB#77:                                # %e_strdup.exit535.i.i
                                        #   in Loop: Header=BB0_27 Depth=3
	movq	%rax, cgi_pattern(%rip)
	jmp	.LBB0_133
.LBB0_78:                               # %if.else186.i.i
                                        #   in Loop: Header=BB0_27 Depth=3
	movl	$.L.str110, %esi
	movq	%rbx, %rdi
	callq	strcasecmp
	testl	%eax, %eax
	jne	.LBB0_81
# BB#79:                                # %if.then190.i.i
                                        #   in Loop: Header=BB0_27 Depth=3
	testq	%r15, %r15
	je	.LBB0_40
# BB#80:                                # %value_required.exit539.i.i
                                        #   in Loop: Header=BB0_27 Depth=3
	xorl	%esi, %esi
	movl	$10, %edx
	movq	%r15, %rdi
	callq	strtol
	movl	%eax, cgi_limit(%rip)
	jmp	.LBB0_133
.LBB0_81:                               # %if.else192.i.i
                                        #   in Loop: Header=BB0_27 Depth=3
	movl	$.L.str111, %esi
	movq	%rbx, %rdi
	callq	strcasecmp
	testl	%eax, %eax
	jne	.LBB0_85
# BB#82:                                # %if.then196.i.i
                                        #   in Loop: Header=BB0_27 Depth=3
	testq	%r15, %r15
	je	.LBB0_40
# BB#83:                                # %value_required.exit545.i.i
                                        #   in Loop: Header=BB0_27 Depth=3
	movq	%r15, %rdi
	callq	__strdup
	testq	%rax, %rax
	je	.LBB0_45
# BB#84:                                # %e_strdup.exit550.i.i
                                        #   in Loop: Header=BB0_27 Depth=3
	movq	%rax, url_pattern(%rip)
	jmp	.LBB0_133
.LBB0_85:                               # %if.else198.i.i
                                        #   in Loop: Header=BB0_27 Depth=3
	movl	$.L.str112, %esi
	movq	%rbx, %rdi
	callq	strcasecmp
	testl	%eax, %eax
	jne	.LBB0_88
# BB#86:                                # %if.then202.i.i
                                        #   in Loop: Header=BB0_27 Depth=3
	testq	%r15, %r15
	jne	.LBB0_35
# BB#87:                                # %no_value_required.exit554.i.i
                                        #   in Loop: Header=BB0_27 Depth=3
	movb	$1, no_empty_referers(%rip)
	jmp	.LBB0_133
.LBB0_88:                               # %if.else203.i.i
                                        #   in Loop: Header=BB0_27 Depth=3
	movl	$.L.str113, %esi
	movq	%rbx, %rdi
	callq	strcasecmp
	testl	%eax, %eax
	jne	.LBB0_92
# BB#89:                                # %if.then207.i.i
                                        #   in Loop: Header=BB0_27 Depth=3
	testq	%r15, %r15
	je	.LBB0_40
# BB#90:                                # %value_required.exit558.i.i
                                        #   in Loop: Header=BB0_27 Depth=3
	movq	%r15, %rdi
	callq	__strdup
	testq	%rax, %rax
	je	.LBB0_45
# BB#91:                                # %e_strdup.exit563.i.i
                                        #   in Loop: Header=BB0_27 Depth=3
	movq	%rax, local_pattern(%rip)
	jmp	.LBB0_133
.LBB0_92:                               # %if.else209.i.i
                                        #   in Loop: Header=BB0_27 Depth=3
	movl	$.L.str114, %esi
	movq	%rbx, %rdi
	callq	strcasecmp
	testl	%eax, %eax
	jne	.LBB0_96
# BB#93:                                # %if.then213.i.i
                                        #   in Loop: Header=BB0_27 Depth=3
	testq	%r15, %r15
	je	.LBB0_40
# BB#94:                                # %value_required.exit567.i.i
                                        #   in Loop: Header=BB0_27 Depth=3
	movq	%r15, %rdi
	callq	__strdup
	testq	%rax, %rax
	je	.LBB0_45
# BB#95:                                # %e_strdup.exit572.i.i
                                        #   in Loop: Header=BB0_27 Depth=3
	movq	%rax, throttlefile(%rip)
	jmp	.LBB0_133
.LBB0_96:                               # %if.else215.i.i
                                        #   in Loop: Header=BB0_27 Depth=3
	movl	$.L.str115, %esi
	movq	%rbx, %rdi
	callq	strcasecmp
	testl	%eax, %eax
	jne	.LBB0_100
# BB#97:                                # %if.then219.i.i
                                        #   in Loop: Header=BB0_27 Depth=3
	testq	%r15, %r15
	je	.LBB0_40
# BB#98:                                # %value_required.exit576.i.i
                                        #   in Loop: Header=BB0_27 Depth=3
	movq	%r15, %rdi
	callq	__strdup
	testq	%rax, %rax
	je	.LBB0_45
# BB#99:                                # %e_strdup.exit581.i.i
                                        #   in Loop: Header=BB0_27 Depth=3
	movq	%rax, hostname(%rip)
	jmp	.LBB0_133
.LBB0_100:                              # %if.else221.i.i
                                        #   in Loop: Header=BB0_27 Depth=3
	movl	$.L.str116, %esi
	movq	%rbx, %rdi
	callq	strcasecmp
	testl	%eax, %eax
	jne	.LBB0_104
# BB#101:                               # %if.then225.i.i
                                        #   in Loop: Header=BB0_27 Depth=3
	testq	%r15, %r15
	je	.LBB0_40
# BB#102:                               # %value_required.exit585.i.i
                                        #   in Loop: Header=BB0_27 Depth=3
	movq	%r15, %rdi
	callq	__strdup
	testq	%rax, %rax
	je	.LBB0_45
# BB#103:                               # %e_strdup.exit590.i.i
                                        #   in Loop: Header=BB0_27 Depth=3
	movq	%rax, logfile(%rip)
	jmp	.LBB0_133
.LBB0_104:                              # %if.else227.i.i
                                        #   in Loop: Header=BB0_27 Depth=3
	movl	$.L.str117, %esi
	movq	%rbx, %rdi
	callq	strcasecmp
	testl	%eax, %eax
	jne	.LBB0_107
# BB#105:                               # %if.then231.i.i
                                        #   in Loop: Header=BB0_27 Depth=3
	testq	%r15, %r15
	jne	.LBB0_35
# BB#106:                               # %no_value_required.exit594.i.i
                                        #   in Loop: Header=BB0_27 Depth=3
	movb	$1, do_vhost(%rip)
	jmp	.LBB0_133
.LBB0_107:                              # %if.else232.i.i
                                        #   in Loop: Header=BB0_27 Depth=3
	movl	$.L.str118, %esi
	movq	%rbx, %rdi
	callq	strcasecmp
	testl	%eax, %eax
	jne	.LBB0_110
# BB#108:                               # %if.then236.i.i
                                        #   in Loop: Header=BB0_27 Depth=3
	testq	%r15, %r15
	jne	.LBB0_35
# BB#109:                               # %no_value_required.exit598.i.i
                                        #   in Loop: Header=BB0_27 Depth=3
	movb	$0, do_vhost(%rip)
	jmp	.LBB0_133
.LBB0_110:                              # %if.else237.i.i
                                        #   in Loop: Header=BB0_27 Depth=3
	movl	$.L.str119, %esi
	movq	%rbx, %rdi
	callq	strcasecmp
	testl	%eax, %eax
	jne	.LBB0_113
# BB#111:                               # %if.then241.i.i
                                        #   in Loop: Header=BB0_27 Depth=3
	testq	%r15, %r15
	jne	.LBB0_35
# BB#112:                               # %no_value_required.exit602.i.i
                                        #   in Loop: Header=BB0_27 Depth=3
	movb	$1, do_global_passwd(%rip)
	jmp	.LBB0_133
.LBB0_113:                              # %if.else242.i.i
                                        #   in Loop: Header=BB0_27 Depth=3
	movl	$.L.str120, %esi
	movq	%rbx, %rdi
	callq	strcasecmp
	testl	%eax, %eax
	jne	.LBB0_116
# BB#114:                               # %if.then246.i.i
                                        #   in Loop: Header=BB0_27 Depth=3
	testq	%r15, %r15
	jne	.LBB0_35
# BB#115:                               # %no_value_required.exit606.i.i
                                        #   in Loop: Header=BB0_27 Depth=3
	movb	$0, do_global_passwd(%rip)
	jmp	.LBB0_133
.LBB0_116:                              # %if.else247.i.i
                                        #   in Loop: Header=BB0_27 Depth=3
	movl	$.L.str121, %esi
	movq	%rbx, %rdi
	callq	strcasecmp
	testl	%eax, %eax
	jne	.LBB0_120
# BB#117:                               # %if.then251.i.i
                                        #   in Loop: Header=BB0_27 Depth=3
	testq	%r15, %r15
	je	.LBB0_40
# BB#118:                               # %value_required.exit610.i.i
                                        #   in Loop: Header=BB0_27 Depth=3
	movq	%r15, %rdi
	callq	__strdup
	testq	%rax, %rax
	je	.LBB0_45
# BB#119:                               # %e_strdup.exit615.i.i
                                        #   in Loop: Header=BB0_27 Depth=3
	movq	%rax, pidfile(%rip)
	jmp	.LBB0_133
.LBB0_120:                              # %if.else253.i.i
                                        #   in Loop: Header=BB0_27 Depth=3
	movl	$.L.str122, %esi
	movq	%rbx, %rdi
	callq	strcasecmp
	testl	%eax, %eax
	jne	.LBB0_124
# BB#121:                               # %if.then257.i.i
                                        #   in Loop: Header=BB0_27 Depth=3
	testq	%r15, %r15
	je	.LBB0_40
# BB#122:                               # %value_required.exit619.i.i
                                        #   in Loop: Header=BB0_27 Depth=3
	movq	%r15, %rdi
	callq	__strdup
	testq	%rax, %rax
	je	.LBB0_45
# BB#123:                               # %e_strdup.exit624.i.i
                                        #   in Loop: Header=BB0_27 Depth=3
	movq	%rax, charset(%rip)
	jmp	.LBB0_133
.LBB0_124:                              # %if.else259.i.i
                                        #   in Loop: Header=BB0_27 Depth=3
	movl	$.L.str123, %esi
	movq	%rbx, %rdi
	callq	strcasecmp
	testl	%eax, %eax
	jne	.LBB0_128
# BB#125:                               # %if.then263.i.i
                                        #   in Loop: Header=BB0_27 Depth=3
	testq	%r15, %r15
	je	.LBB0_40
# BB#126:                               # %value_required.exit628.i.i
                                        #   in Loop: Header=BB0_27 Depth=3
	movq	%r15, %rdi
	callq	__strdup
	testq	%rax, %rax
	je	.LBB0_45
# BB#127:                               # %e_strdup.exit633.i.i
                                        #   in Loop: Header=BB0_27 Depth=3
	movq	%rax, p3p(%rip)
	jmp	.LBB0_133
.LBB0_128:                              # %if.else265.i.i
                                        #   in Loop: Header=BB0_27 Depth=3
	movl	$.L.str124, %esi
	movq	%rbx, %rdi
	callq	strcasecmp
	testl	%eax, %eax
	jne	.LBB0_131
# BB#129:                               # %if.then269.i.i
                                        #   in Loop: Header=BB0_27 Depth=3
	testq	%r15, %r15
	je	.LBB0_40
# BB#130:                               # %value_required.exit637.i.i
                                        #   in Loop: Header=BB0_27 Depth=3
	xorl	%esi, %esi
	movl	$10, %edx
	movq	%r15, %rdi
	callq	strtol
	movl	%eax, max_age(%rip)
	.align	16, 0x90
.LBB0_133:                              # %cond.false336.i.i
                                        #   in Loop: Header=BB0_27 Depth=3
	movl	$.L.str98, %esi
	movq	%rbp, %rdi
	callq	strspn
	leaq	(%rbp,%rax), %rbx
	cmpb	$0, (%rbp,%rax)
	jne	.LBB0_27
	jmp	.LBB0_21
	.align	16, 0x90
.LBB0_10:                               # %if.then.i
                                        #   in Loop: Header=BB0_2 Depth=1
	movsbl	%r13b, %eax
	cmpl	$99, %eax
	jg	.LBB0_14
# BB#11:                                # %if.then.i
                                        #   in Loop: Header=BB0_2 Depth=1
	movzbl	%r13b, %eax
	cmpl	$86, %eax
	jne	.LBB0_140
# BB#12:                                # %cond.end.i
                                        #   in Loop: Header=BB0_2 Depth=1
	cmpb	$0, 2(%rbx)
	jne	.LBB0_140
	jmp	.LBB0_13
	.align	16, 0x90
.LBB0_14:                               # %if.then.i
                                        #   in Loop: Header=BB0_2 Depth=1
	movzbl	%r13b, %eax
	cmpl	$100, %eax
	je	.LBB0_137
# BB#15:                                # %if.then.i
                                        #   in Loop: Header=BB0_2 Depth=1
	cmpl	$112, %eax
	jne	.LBB0_16
# BB#134:                               # %cond.end176.i
                                        #   in Loop: Header=BB0_2 Depth=1
	cmpb	$0, 2(%rbx)
	jne	.LBB0_140
# BB#135:                               # %land.lhs.true180.i
                                        #   in Loop: Header=BB0_2 Depth=1
	leal	1(%rbp), %r12d
	cmpl	120(%rsp), %r12d        # 4-byte Folded Reload
	jge	.LBB0_140
# BB#136:                               # %if.then184.i
                                        #   in Loop: Header=BB0_2 Depth=1
	movslq	%r12d, %rax
	movq	112(%rsp), %rcx         # 8-byte Reload
	movq	(%rcx,%rax,8), %rdi
	xorl	%esi, %esi
	movl	$10, %edx
	callq	strtol
	movw	%ax, port(%rip)
	jmp	.LBB0_206
.LBB0_137:                              # %cond.end248.i
                                        #   in Loop: Header=BB0_2 Depth=1
	cmpb	$0, 2(%rbx)
	jne	.LBB0_140
# BB#138:                               # %land.lhs.true252.i
                                        #   in Loop: Header=BB0_2 Depth=1
	leal	1(%rbp), %r12d
	cmpl	120(%rsp), %r12d        # 4-byte Folded Reload
	jge	.LBB0_140
# BB#139:                               # %if.then256.i
                                        #   in Loop: Header=BB0_2 Depth=1
	movslq	%r12d, %rax
	movq	112(%rsp), %rcx         # 8-byte Reload
	movq	(%rcx,%rax,8), %rax
	movq	%rax, dir(%rip)
	jmp	.LBB0_206
.LBB0_16:                               # %if.then.i
                                        #   in Loop: Header=BB0_2 Depth=1
	cmpl	$114, %eax
	jne	.LBB0_140
# BB#17:                                # %cond.end318.i
                                        #   in Loop: Header=BB0_2 Depth=1
	cmpb	$0, 2(%rbx)
	jne	.LBB0_140
# BB#18:                                # %if.then322.i
                                        #   in Loop: Header=BB0_2 Depth=1
	movb	$1, do_chroot(%rip)
	jmp	.LBB0_151
	.align	16, 0x90
.LBB0_140:                              # %cond.false377.i
                                        #   in Loop: Header=BB0_2 Depth=1
	movl	$.L.str79, %esi
	movq	%rbx, %rdi
	callq	strcmp
	testl	%eax, %eax
	jne	.LBB0_142
# BB#141:                               # %if.then385.i
                                        #   in Loop: Header=BB0_2 Depth=1
	movb	$0, do_chroot(%rip)
	jmp	.LBB0_149
	.align	16, 0x90
.LBB0_142:                              # %if.then411.i
                                        #   in Loop: Header=BB0_2 Depth=1
	movzbl	%r13b, %r15d
	cmpl	$115, %r15d
	jne	.LBB0_143
# BB#148:                               # %cond.end514.i
                                        #   in Loop: Header=BB0_2 Depth=1
	cmpb	$0, 2(%rbx)
	jne	.LBB0_150
	.align	16, 0x90
.LBB0_149:                              # %if.then518.i
                                        #   in Loop: Header=BB0_2 Depth=1
	movl	$0, no_symlink_check(%rip)
	movl	%ebp, %r12d
	jmp	.LBB0_206
	.align	16, 0x90
.LBB0_143:                              # %if.then411.i
                                        #   in Loop: Header=BB0_2 Depth=1
	cmpl	$100, %r15d
	jne	.LBB0_150
# BB#144:                               # %if.then421.i
                                        #   in Loop: Header=BB0_2 Depth=1
	movzbl	2(%rbx), %eax
	cmpl	$100, %eax
	jne	.LBB0_150
# BB#145:                               # %cond.end444.i
                                        #   in Loop: Header=BB0_2 Depth=1
	cmpb	$0, 3(%rbx)
	jne	.LBB0_150
# BB#146:                               # %land.lhs.true448.i
                                        #   in Loop: Header=BB0_2 Depth=1
	leal	1(%rbp), %r12d
	cmpl	120(%rsp), %r12d        # 4-byte Folded Reload
	jge	.LBB0_150
# BB#147:                               # %if.then452.i
                                        #   in Loop: Header=BB0_2 Depth=1
	movslq	%r12d, %rax
	movq	112(%rsp), %rcx         # 8-byte Reload
	movq	(%rcx,%rax,8), %rax
	movq	%rax, data_dir(%rip)
	jmp	.LBB0_206
	.align	16, 0x90
.LBB0_150:                              # %cond.false573.i
                                        #   in Loop: Header=BB0_2 Depth=1
	movl	$.L.str82, %esi
	movq	%rbx, %rdi
	callq	strcmp
	testl	%eax, %eax
	jne	.LBB0_152
.LBB0_151:                              # %if.then581.i
                                        #   in Loop: Header=BB0_2 Depth=1
	movl	$1, no_symlink_check(%rip)
	movl	%ebp, %r12d
	jmp	.LBB0_206
.LBB0_152:                              # %if.then607.i
                                        #   in Loop: Header=BB0_2 Depth=1
	movsbl	%r13b, %r13d
	cmpl	$115, %r13d
	jg	.LBB0_159
# BB#153:                               # %if.then607.i
                                        #   in Loop: Header=BB0_2 Depth=1
	cmpl	$99, %r15d
	je	.LBB0_165
# BB#154:                               # %if.then607.i
                                        #   in Loop: Header=BB0_2 Depth=1
	cmpl	$104, %r15d
	jne	.LBB0_155
# BB#171:                               # %cond.end850.i
                                        #   in Loop: Header=BB0_2 Depth=1
	cmpb	$0, 2(%rbx)
	jne	.LBB0_176
# BB#172:                               # %land.lhs.true854.i
                                        #   in Loop: Header=BB0_2 Depth=1
	leal	1(%rbp), %r12d
	cmpl	120(%rsp), %r12d        # 4-byte Folded Reload
	jge	.LBB0_176
# BB#173:                               # %if.then858.i
                                        #   in Loop: Header=BB0_2 Depth=1
	movslq	%r12d, %rax
	movq	112(%rsp), %rcx         # 8-byte Reload
	movq	(%rcx,%rax,8), %rax
	movq	%rax, hostname(%rip)
	jmp	.LBB0_206
.LBB0_159:                              # %if.then607.i
                                        #   in Loop: Header=BB0_2 Depth=1
	cmpl	$116, %r15d
	je	.LBB0_168
# BB#160:                               # %if.then607.i
                                        #   in Loop: Header=BB0_2 Depth=1
	cmpl	$118, %r15d
	jne	.LBB0_161
# BB#174:                               # %cond.end990.i
                                        #   in Loop: Header=BB0_2 Depth=1
	cmpb	$0, 2(%rbx)
	jne	.LBB0_176
# BB#175:                               # %if.then994.i
                                        #   in Loop: Header=BB0_2 Depth=1
	movb	$1, do_vhost(%rip)
	movl	%ebp, %r12d
	jmp	.LBB0_206
.LBB0_205:                              # %read_config.exit.i
                                        #   in Loop: Header=BB0_2 Depth=1
	movq	%rbp, %rdi
	callq	fclose
	jmp	.LBB0_206
.LBB0_165:                              # %cond.end710.i
                                        #   in Loop: Header=BB0_2 Depth=1
	cmpb	$0, 2(%rbx)
	jne	.LBB0_176
# BB#166:                               # %land.lhs.true714.i
                                        #   in Loop: Header=BB0_2 Depth=1
	leal	1(%rbp), %r12d
	cmpl	120(%rsp), %r12d        # 4-byte Folded Reload
	jge	.LBB0_176
# BB#167:                               # %if.then718.i
                                        #   in Loop: Header=BB0_2 Depth=1
	movslq	%r12d, %rax
	movq	112(%rsp), %rcx         # 8-byte Reload
	movq	(%rcx,%rax,8), %rax
	movq	%rax, cgi_pattern(%rip)
	jmp	.LBB0_206
.LBB0_155:                              # %if.then607.i
                                        #   in Loop: Header=BB0_2 Depth=1
	cmpl	$108, %r15d
	jne	.LBB0_176
# BB#156:                               # %cond.end920.i
                                        #   in Loop: Header=BB0_2 Depth=1
	cmpb	$0, 2(%rbx)
	jne	.LBB0_176
# BB#157:                               # %land.lhs.true924.i
                                        #   in Loop: Header=BB0_2 Depth=1
	leal	1(%rbp), %r12d
	cmpl	120(%rsp), %r12d        # 4-byte Folded Reload
	jge	.LBB0_176
# BB#158:                               # %if.then928.i
                                        #   in Loop: Header=BB0_2 Depth=1
	movslq	%r12d, %rax
	movq	112(%rsp), %rcx         # 8-byte Reload
	movq	(%rcx,%rax,8), %rax
	movq	%rax, logfile(%rip)
	jmp	.LBB0_206
.LBB0_168:                              # %cond.end780.i
                                        #   in Loop: Header=BB0_2 Depth=1
	cmpb	$0, 2(%rbx)
	jne	.LBB0_176
# BB#169:                               # %land.lhs.true784.i
                                        #   in Loop: Header=BB0_2 Depth=1
	leal	1(%rbp), %r12d
	cmpl	120(%rsp), %r12d        # 4-byte Folded Reload
	jge	.LBB0_176
# BB#170:                               # %if.then788.i
                                        #   in Loop: Header=BB0_2 Depth=1
	movslq	%r12d, %rax
	movq	112(%rsp), %rcx         # 8-byte Reload
	movq	(%rcx,%rax,8), %rax
	movq	%rax, throttlefile(%rip)
	jmp	.LBB0_206
.LBB0_161:                              # %if.then607.i
                                        #   in Loop: Header=BB0_2 Depth=1
	cmpl	$117, %r15d
	jne	.LBB0_176
# BB#162:                               # %cond.end640.i
                                        #   in Loop: Header=BB0_2 Depth=1
	cmpb	$0, 2(%rbx)
	jne	.LBB0_176
# BB#163:                               # %land.lhs.true644.i
                                        #   in Loop: Header=BB0_2 Depth=1
	leal	1(%rbp), %r12d
	cmpl	120(%rsp), %r12d        # 4-byte Folded Reload
	jge	.LBB0_176
# BB#164:                               # %if.then648.i
                                        #   in Loop: Header=BB0_2 Depth=1
	movslq	%r12d, %rax
	movq	112(%rsp), %rcx         # 8-byte Reload
	movq	(%rcx,%rax,8), %rax
	movq	%rax, user(%rip)
	jmp	.LBB0_206
.LBB0_176:                              # %cond.false1049.i
                                        #   in Loop: Header=BB0_2 Depth=1
	movl	$.L.str89, %esi
	movq	%rbx, %rdi
	callq	strcmp
	testl	%eax, %eax
	jne	.LBB0_178
# BB#177:                               # %if.then1057.i
                                        #   in Loop: Header=BB0_2 Depth=1
	movb	$0, do_vhost(%rip)
	movl	%ebp, %r12d
	jmp	.LBB0_206
.LBB0_178:                              # %if.then1083.i
                                        #   in Loop: Header=BB0_2 Depth=1
	cmpl	$103, %r15d
	jne	.LBB0_181
# BB#179:                               # %cond.end1116.i
                                        #   in Loop: Header=BB0_2 Depth=1
	cmpb	$0, 2(%rbx)
	jne	.LBB0_181
# BB#180:                               # %if.then1120.i
                                        #   in Loop: Header=BB0_2 Depth=1
	movb	$1, do_global_passwd(%rip)
	movl	%ebp, %r12d
	jmp	.LBB0_206
.LBB0_181:                              # %cond.false1175.i
                                        #   in Loop: Header=BB0_2 Depth=1
	movl	$.L.str91, %esi
	movq	%rbx, %rdi
	callq	strcmp
	testl	%eax, %eax
	jne	.LBB0_183
# BB#182:                               # %if.then1183.i
                                        #   in Loop: Header=BB0_2 Depth=1
	movb	$0, do_global_passwd(%rip)
	movl	%ebp, %r12d
	jmp	.LBB0_206
.LBB0_183:                              # %if.then1209.i
                                        #   in Loop: Header=BB0_2 Depth=1
	cmpl	$104, %r13d
	jg	.LBB0_194
# BB#184:                               # %if.then1209.i
                                        #   in Loop: Header=BB0_2 Depth=1
	cmpl	$76, %r13d
	jg	.LBB0_188
# BB#185:                               # %if.then1209.i
                                        #   in Loop: Header=BB0_2 Depth=1
	cmpl	$68, %r15d
	jne	.LBB0_204
# BB#186:                               # %cond.end1523.i
                                        #   in Loop: Header=BB0_2 Depth=1
	cmpb	$0, 2(%rbx)
	jne	.LBB0_204
# BB#187:                               # %if.then1527.i
                                        #   in Loop: Header=BB0_2 Depth=1
	movb	$1, debug(%rip)
	movl	%ebp, %r12d
	jmp	.LBB0_206
.LBB0_194:                              # %if.then1209.i
                                        #   in Loop: Header=BB0_2 Depth=1
	cmpl	$105, %r15d
	jne	.LBB0_204
# BB#195:                               # %cond.end1242.i
                                        #   in Loop: Header=BB0_2 Depth=1
	cmpb	$0, 2(%rbx)
	jne	.LBB0_204
# BB#196:                               # %land.lhs.true1246.i
                                        #   in Loop: Header=BB0_2 Depth=1
	incl	%ebp
	cmpl	120(%rsp), %ebp         # 4-byte Folded Reload
	jge	.LBB0_204
# BB#197:                               # %if.then1250.i
                                        #   in Loop: Header=BB0_2 Depth=1
	movslq	%ebp, %rax
	movq	112(%rsp), %rcx         # 8-byte Reload
	movq	(%rcx,%rax,8), %rax
	movq	%rax, pidfile(%rip)
	movl	%ebp, %r12d
	.align	16, 0x90
.LBB0_206:                              # %if.end1551.i
                                        #   in Loop: Header=BB0_2 Depth=1
	incl	%r12d
	cmpl	120(%rsp), %r12d        # 4-byte Folded Reload
	movl	%r12d, %ebp
	jl	.LBB0_2
	jmp	.LBB0_207
.LBB0_188:                              # %if.then1209.i
                                        #   in Loop: Header=BB0_2 Depth=1
	cmpl	$77, %r15d
	je	.LBB0_201
# BB#189:                               # %if.then1209.i
                                        #   in Loop: Header=BB0_2 Depth=1
	cmpl	$80, %r15d
	jne	.LBB0_190
# BB#198:                               # %cond.end1382.i
                                        #   in Loop: Header=BB0_2 Depth=1
	cmpb	$0, 2(%rbx)
	jne	.LBB0_204
# BB#199:                               # %land.lhs.true1386.i
                                        #   in Loop: Header=BB0_2 Depth=1
	incl	%ebp
	cmpl	120(%rsp), %ebp         # 4-byte Folded Reload
	jge	.LBB0_204
# BB#200:                               # %if.then1390.i
                                        #   in Loop: Header=BB0_2 Depth=1
	movslq	%ebp, %rax
	movq	112(%rsp), %rcx         # 8-byte Reload
	movq	(%rcx,%rax,8), %rax
	movq	%rax, p3p(%rip)
	movl	%ebp, %r12d
	jmp	.LBB0_206
.LBB0_201:                              # %cond.end1452.i
                                        #   in Loop: Header=BB0_2 Depth=1
	cmpb	$0, 2(%rbx)
	jne	.LBB0_204
# BB#202:                               # %land.lhs.true1456.i
                                        #   in Loop: Header=BB0_2 Depth=1
	incl	%ebp
	cmpl	120(%rsp), %ebp         # 4-byte Folded Reload
	jge	.LBB0_204
# BB#203:                               # %if.then1460.i
                                        #   in Loop: Header=BB0_2 Depth=1
	movslq	%ebp, %rax
	movq	112(%rsp), %rcx         # 8-byte Reload
	movq	(%rcx,%rax,8), %rdi
	xorl	%esi, %esi
	movl	$10, %edx
	callq	strtol
	movl	%eax, max_age(%rip)
	movl	%ebp, %r12d
	jmp	.LBB0_206
.LBB0_190:                              # %if.then1209.i
                                        #   in Loop: Header=BB0_2 Depth=1
	cmpl	$84, %r15d
	jne	.LBB0_204
# BB#191:                               # %cond.end1312.i
                                        #   in Loop: Header=BB0_2 Depth=1
	cmpb	$0, 2(%rbx)
	jne	.LBB0_204
# BB#192:                               # %land.lhs.true1316.i
                                        #   in Loop: Header=BB0_2 Depth=1
	incl	%ebp
	cmpl	120(%rsp), %ebp         # 4-byte Folded Reload
	jge	.LBB0_204
# BB#193:                               # %if.then1320.i
                                        #   in Loop: Header=BB0_2 Depth=1
	movslq	%ebp, %rax
	movq	112(%rsp), %rcx         # 8-byte Reload
	movq	(%rcx,%rax,8), %rax
	movq	%rax, charset(%rip)
	movl	%ebp, %r12d
	jmp	.LBB0_206
	.align	16, 0x90
.LBB0_2:                                # %land.rhs.i
                                        # =>This Loop Header: Depth=1
                                        #     Child Loop BB0_22 Depth 2
                                        #       Child Loop BB0_27 Depth 3
                                        #         Child Loop BB0_28 Depth 4
	movslq	%ebp, %rax
	movq	112(%rsp), %rcx         # 8-byte Reload
	movq	(%rcx,%rax,8), %rbx
	movzbl	(%rbx), %eax
	cmpl	$45, %eax
	je	.LBB0_4
# BB#3:
	movl	%ebp, %r12d
.LBB0_207:                              # %while.end.i
	cmpl	120(%rsp), %r12d        # 4-byte Folded Reload
	jne	.LBB0_464
# BB#208:                               # %parse_args.exit
	callq	tzset
	xorps	%xmm0, %xmm0
	movaps	%xmm0, 4544(%rsp)
	movaps	%xmm0, 4528(%rsp)
	movaps	%xmm0, 4512(%rsp)
	movl	$1, 4512(%rsp)
	movl	$1, 4520(%rsp)
	movzwl	port(%rip), %ecx
	xorl	%r15d, %r15d
	leaq	14544(%rsp), %rbx
	movl	$10, %esi
	movl	$.L.str66, %edx
	xorl	%eax, %eax
	movq	%rbx, %rdi
	callq	snprintf
	movq	hostname(%rip), %rdi
	leaq	4512(%rsp), %rdx
	leaq	14512(%rsp), %rcx
	movq	%rbx, %rsi
	callq	getaddrinfo
	movl	%eax, %ebx
	testl	%ebx, %ebx
	jne	.LBB0_465
# BB#209:                               # %for.cond.preheader.i
	movq	14512(%rsp), %rbx
	testq	%rbx, %rbx
	movl	$0, %r12d
	je	.LBB0_226
# BB#210:
	movq	%rbx, %rcx
	xorl	%eax, %eax
	.align	16, 0x90
.LBB0_211:                              # %for.body.i
                                        # =>This Inner Loop Header: Depth=1
	movl	4(%rcx), %edx
	cmpl	$2, %edx
	jne	.LBB0_212
# BB#214:                               # %sw.bb14.i
                                        #   in Loop: Header=BB0_211 Depth=1
	testq	%r15, %r15
	cmoveq	%rcx, %r15
	jmp	.LBB0_215
	.align	16, 0x90
.LBB0_212:                              # %for.body.i
                                        #   in Loop: Header=BB0_211 Depth=1
	cmpl	$10, %edx
	jne	.LBB0_215
# BB#213:                               # %sw.bb.i
                                        #   in Loop: Header=BB0_211 Depth=1
	testq	%rax, %rax
	cmoveq	%rcx, %rax
.LBB0_215:                              # %for.inc.i
                                        #   in Loop: Header=BB0_211 Depth=1
	movq	40(%rcx), %rcx
	testq	%rcx, %rcx
	jne	.LBB0_211
# BB#216:                               # %for.end.i
	xorl	%r12d, %r12d
	testq	%rax, %rax
	movl	$0, %ebp
	je	.LBB0_220
# BB#217:                               # %if.else.i
	movl	16(%rax), %ebp
	cmpq	$129, %rbp
	jae	.LBB0_218
# BB#219:                               # %if.end28.i
	xorps	%xmm0, %xmm0
	movaps	%xmm0, 256(%rsp)
	movaps	%xmm0, 240(%rsp)
	movaps	%xmm0, 224(%rsp)
	movaps	%xmm0, 208(%rsp)
	movaps	%xmm0, 192(%rsp)
	movaps	%xmm0, 176(%rsp)
	movaps	%xmm0, 160(%rsp)
	movaps	%xmm0, 144(%rsp)
	movq	24(%rax), %rsi
	movl	16(%rax), %edx
	leaq	144(%rsp), %rdi
	callq	memmove
	movl	$1, %ebp
.LBB0_220:                              # %if.end31.i
	testq	%r15, %r15
	je	.LBB0_225
# BB#221:                               # %if.else35.i
	movl	16(%r15), %r8d
	cmpq	$129, %r8
	jae	.LBB0_222
# BB#224:                               # %if.end43.i
	xorps	%xmm0, %xmm0
	movaps	%xmm0, 384(%rsp)
	movaps	%xmm0, 368(%rsp)
	movaps	%xmm0, 352(%rsp)
	movaps	%xmm0, 336(%rsp)
	movaps	%xmm0, 320(%rsp)
	movaps	%xmm0, 304(%rsp)
	movaps	%xmm0, 288(%rsp)
	movaps	%xmm0, 272(%rsp)
	movq	24(%r15), %rsi
	movl	16(%r15), %edx
	leaq	272(%rsp), %rdi
	callq	memmove
	movl	$1, %r12d
.LBB0_225:                              # %lookup_hostname.exit
	movl	%ebp, %r15d
.LBB0_226:                              # %lookup_hostname.exit
	movq	%rbx, %rdi
	callq	freeaddrinfo
	movl	%r12d, %eax
	orl	%r15d, %eax
	je	.LBB0_227
# BB#228:                               # %if.end4
	movl	$0, numthrottles(%rip)
	movl	$0, maxthrottles(%rip)
	movq	$0, throttles(%rip)
	movq	throttlefile(%rip), %rbx
	testq	%rbx, %rbx
	je	.LBB0_249
# BB#229:                               # %if.then6
	movl	%r12d, 120(%rsp)        # 4-byte Spill
	movl	$.L.str56, %esi
	movq	%rbx, %rdi
	callq	fopen
	movq	%rax, %r12
	testq	%r12, %r12
	je	.LBB0_230
# BB#231:                               # %if.end.i
	movq	%rbx, %r14
	leaq	14512(%rsp), %rdi
	xorl	%esi, %esi
	callq	gettimeofday
	leaq	4512(%rsp), %rdi
	movl	$5000, %esi             # imm = 0x1388
	movq	%r12, %rdx
	callq	fgets
	testq	%rax, %rax
	je	.LBB0_248
# BB#232:                               # %while.body.lr.ph.i
	leaq	4512(%rsp), %rbx
	movabsq	$4294977024, %r13       # imm = 0x100002600
	leaq	14544(%rsp), %rbp
	jmp	.LBB0_233
	.align	16, 0x90
.LBB0_252:                              # %while.body75.i
                                        #   in Loop: Header=BB0_233 Depth=1
	leaq	1(%rax), %rdi
	addq	$2, %rax
	movq	%rax, %rsi
.LBB0_253:                              # %while.body75.i
                                        #   in Loop: Header=BB0_233 Depth=1
	callq	strcpy
.LBB0_254:                              # %while.body75.i
                                        #   in Loop: Header=BB0_233 Depth=1
	movl	$.L.str61, %esi
	movq	%rbp, %rdi
	callq	strstr
	testq	%rax, %rax
	jne	.LBB0_252
# BB#255:                               # %while.end78.i
                                        #   in Loop: Header=BB0_233 Depth=1
	movl	numthrottles(%rip), %ecx
	movl	maxthrottles(%rip), %eax
	cmpl	%eax, %ecx
	jl	.LBB0_261
# BB#256:                               # %if.then81.i
                                        #   in Loop: Header=BB0_233 Depth=1
	testl	%eax, %eax
	jne	.LBB0_258
# BB#257:                               # %if.then84.i
                                        #   in Loop: Header=BB0_233 Depth=1
	movl	$100, maxthrottles(%rip)
	movl	$4800, %edi             # imm = 0x12C0
	callq	malloc
	jmp	.LBB0_259
.LBB0_258:                              # %if.else87.i
                                        #   in Loop: Header=BB0_233 Depth=1
	addl	%eax, %eax
	movl	%eax, maxthrottles(%rip)
	movq	throttles(%rip), %rdi
	cltq
	shlq	$4, %rax
	leaq	(%rax,%rax,2), %rsi
	callq	realloc
.LBB0_259:                              # %if.end92.i
                                        #   in Loop: Header=BB0_233 Depth=1
	testq	%rax, %rax
	movq	%rax, throttles(%rip)
	je	.LBB0_260
.LBB0_261:                              # %if.end98.i
                                        #   in Loop: Header=BB0_233 Depth=1
	movq	%rbp, %rdi
	callq	__strdup
	testq	%rax, %rax
	je	.LBB0_45
# BB#262:                               # %e_strdup.exit.i
                                        #   in Loop: Header=BB0_233 Depth=1
	movslq	numthrottles(%rip), %rcx
	movq	throttles(%rip), %rdx
	movq	%rcx, %rsi
	shlq	$4, %rsi
	leaq	(%rsi,%rsi,2), %rsi
	movq	%rax, (%rdx,%rsi)
	movq	14536(%rsp), %rax
	movq	throttles(%rip), %rdx
	movq	%rax, 8(%rdx,%rsi)
	movq	14528(%rsp), %rax
	movq	%rax, 16(%rdx,%rsi)
	xorps	%xmm0, %xmm0
	movups	%xmm0, 24(%rdx,%rsi)
	movl	$0, 40(%rdx,%rsi)
	leal	1(%rcx), %eax
	movl	%eax, numthrottles(%rip)
	jmp	.LBB0_247
	.align	16, 0x90
.LBB0_233:                              # %while.body.i
                                        # =>This Loop Header: Depth=1
                                        #     Child Loop BB0_237 Depth 2
	movl	$35, %esi
	movq	%rbx, %rdi
	callq	strchr
	testq	%rax, %rax
	je	.LBB0_235
# BB#234:                               # %if.then7.i
                                        #   in Loop: Header=BB0_233 Depth=1
	movb	$0, (%rax)
.LBB0_235:                              # %if.end8.i
                                        #   in Loop: Header=BB0_233 Depth=1
	movq	%rbx, %rdi
	callq	strlen
	testl	%eax, %eax
	jle	.LBB0_240
# BB#236:                               # %land.rhs.lr.ph.i598
                                        #   in Loop: Header=BB0_233 Depth=1
	movl	%eax, %ecx
	cltq
.LBB0_237:                              # %land.rhs.i600
                                        #   Parent Loop BB0_233 Depth=1
                                        # =>  This Inner Loop Header: Depth=2
	movzbl	4511(%rsp,%rax), %edx
	cmpq	$32, %rdx
	ja	.LBB0_240
# BB#238:                               # %land.rhs.i600
                                        #   in Loop: Header=BB0_237 Depth=2
	btq	%rdx, %r13
	jae	.LBB0_240
# BB#239:                               # %while.body36.i
                                        #   in Loop: Header=BB0_237 Depth=2
	movb	$0, 4511(%rsp,%rax)
	decq	%rax
	decl	%ecx
	testl	%ecx, %ecx
	jg	.LBB0_237
	.align	16, 0x90
.LBB0_240:                              # %while.end.i601
                                        #   in Loop: Header=BB0_233 Depth=1
	testl	%eax, %eax
	je	.LBB0_247
# BB#241:                               # %if.end42.i
                                        #   in Loop: Header=BB0_233 Depth=1
	movl	$.L.str57, %esi
	xorl	%eax, %eax
	movq	%rbx, %rdi
	movq	%rbp, %rdx
	leaq	14528(%rsp), %rcx
	leaq	14536(%rsp), %r8
	callq	__isoc99_sscanf
	cmpl	$3, %eax
	je	.LBB0_244
# BB#242:                               # %if.else.i602
                                        #   in Loop: Header=BB0_233 Depth=1
	movl	$.L.str58, %esi
	xorl	%eax, %eax
	movq	%rbx, %rdi
	movq	%rbp, %rdx
	leaq	14536(%rsp), %rcx
	callq	__isoc99_sscanf
	cmpl	$2, %eax
	jne	.LBB0_246
# BB#243:                               # %if.then54.i
                                        #   in Loop: Header=BB0_233 Depth=1
	movq	$0, 14528(%rsp)
.LBB0_244:                              # %if.end60.i
                                        #   in Loop: Header=BB0_233 Depth=1
	movzbl	14544(%rsp), %eax
	cmpl	$47, %eax
	jne	.LBB0_254
# BB#245:                               # %if.then65.i
                                        #   in Loop: Header=BB0_233 Depth=1
	movq	%rbp, %rdi
	leaq	14545(%rsp), %rsi
	jmp	.LBB0_253
.LBB0_246:                              # %if.else55.i
                                        #   in Loop: Header=BB0_233 Depth=1
	movl	$2, %edi
	movl	$.L.str59, %esi
	xorl	%eax, %eax
	movq	%r14, %rdx
	movq	%rbx, %rcx
	callq	syslog
	movq	stderr(%rip), %rdi
	movq	argv0(%rip), %rdx
	movl	$.L.str60, %esi
	xorl	%eax, %eax
	movq	%r14, %rcx
	movq	%rbx, %r8
	callq	fprintf
	.align	16, 0x90
.LBB0_247:                              # %while.cond.backedge.i
                                        #   in Loop: Header=BB0_233 Depth=1
	movl	$5000, %esi             # imm = 0x1388
	movq	%rbx, %rdi
	movq	%r12, %rdx
	callq	fgets
	testq	%rax, %rax
	jne	.LBB0_233
.LBB0_248:                              # %read_throttlefile.exit
	movq	%r12, %rdi
	callq	fclose
	movl	120(%rsp), %r12d        # 4-byte Reload
.LBB0_249:                              # %if.end7
	callq	getuid
	testl	%eax, %eax
	movl	$32767, %r14d           # imm = 0x7FFF
	movl	$32767, %ecx            # imm = 0x7FFF
	jne	.LBB0_264
# BB#250:                               # %if.then10
	movq	user(%rip), %rdi
	callq	getpwnam
	testq	%rax, %rax
	je	.LBB0_251
# BB#263:                               # %if.end15
	movl	16(%rax), %ecx
	movl	20(%rax), %r14d
.LBB0_264:                              # %if.end16
	movl	%ecx, 96(%rsp)          # 4-byte Spill
	movq	logfile(%rip), %rbp
	xorl	%ebx, %ebx
	testq	%rbp, %rbp
	je	.LBB0_277
# BB#265:                               # %cond.false
	movl	$.L.str4, %esi
	movq	%rbp, %rdi
	callq	strcmp
	testl	%eax, %eax
	je	.LBB0_266
# BB#267:                               # %cond.true71
	movzbl	(%rbp), %eax
	cmpl	$45, %eax
	jne	.LBB0_270
# BB#268:                               # %cond.end116
	cmpb	$0, 1(%rbp)
	je	.LBB0_269
.LBB0_270:                              # %if.else121
	movl	$.L.str6, %esi
	movq	%rbp, %rdi
	callq	fopen
	movq	%rax, %rbx
	testq	%rbx, %rbx
	movq	logfile(%rip), %rcx
	je	.LBB0_271
# BB#272:                               # %if.end126
	movzbl	(%rcx), %eax
	cmpl	$47, %eax
	jne	.LBB0_273
.LBB0_274:                              # %if.end133
	movq	%rbx, %rdi
	callq	fileno
	movl	%eax, %ecx
	movl	$2, %esi
	movl	$1, %edx
	xorl	%eax, %eax
	movl	%ecx, %edi
	callq	fcntl
	callq	getuid
	testl	%eax, %eax
	jne	.LBB0_277
# BB#275:                               # %if.then139
	movq	%rbx, %rdi
	callq	fileno
	movl	%eax, %edi
	movl	96(%rsp), %esi          # 4-byte Reload
	movl	%r14d, %edx
	callq	fchown
	testl	%eax, %eax
	jns	.LBB0_277
# BB#276:                               # %if.then144
	movl	$4, %edi
	movl	$.L.str10, %esi
	xorl	%eax, %eax
	callq	syslog
	movl	$.L.str11, %edi
	callq	perror
	jmp	.LBB0_277
.LBB0_266:                              # %if.then61
	movb	$1, no_log(%rip)
	xorl	%ebx, %ebx
	jmp	.LBB0_277
.LBB0_269:                              # %if.then120
	movq	stdout(%rip), %rbx
.LBB0_277:                              # %if.end150
	movq	dir(%rip), %rdi
	testq	%rdi, %rdi
	je	.LBB0_280
# BB#278:                               # %if.then153
	callq	chdir
	testl	%eax, %eax
	js	.LBB0_279
.LBB0_280:                              # %if.end159
	leaq	400(%rsp), %rbp
	movl	$4096, %esi             # imm = 0x1000
	movq	%rbp, %rdi
	callq	getcwd
	movq	%rbp, %rdi
	callq	strlen
	movzbl	-1(%rax,%rbp), %eax
	cmpl	$47, %eax
	je	.LBB0_282
# BB#281:                               # %if.then168
	leaq	400(%rsp), %rdi
	callq	strlen
	movw	$47, 400(%rsp,%rax)
.LBB0_282:                              # %if.end171
	movb	debug(%rip), %al
	testb	%al, %al
	je	.LBB0_283
# BB#288:                               # %if.else186
	callq	setsid
	jmp	.LBB0_289
.LBB0_283:                              # %if.then173
	movq	stdin(%rip), %rdi
	callq	fclose
	movq	stdout(%rip), %rdi
	cmpq	%rdi, %rbx
	je	.LBB0_285
# BB#284:                               # %if.then177
	callq	fclose
.LBB0_285:                              # %if.end179
	movq	stderr(%rip), %rdi
	callq	fclose
	movl	$1, %edi
	movl	$1, %esi
	callq	daemon
	testl	%eax, %eax
	js	.LBB0_286
.LBB0_289:                              # %if.end188
	movq	%rbx, 120(%rsp)         # 8-byte Spill
	movl	%r14d, 112(%rsp)        # 4-byte Spill
	movq	pidfile(%rip), %rdi
	testq	%rdi, %rdi
	je	.LBB0_292
# BB#290:                               # %if.then191
	movl	$.L.str16, %esi
	callq	fopen
	movq	%rax, %rbp
	testq	%rbp, %rbp
	je	.LBB0_466
# BB#291:                               # %if.end197
	callq	getpid
	movl	%eax, %ecx
	movl	$.L.str17, %esi
	xorl	%eax, %eax
	movq	%rbp, %rdi
	movl	%ecx, %edx
	callq	fprintf
	movq	%rbp, %rdi
	callq	fclose
.LBB0_292:                              # %if.end201
	callq	fdwatch_get_nfiles
	testl	%eax, %eax
	movl	%eax, max_connects(%rip)
	js	.LBB0_293
# BB#294:                               # %if.end206
	addl	$-10, %eax
	movl	%eax, max_connects(%rip)
	movzbl	do_chroot(%rip), %eax
	cmpl	$1, %eax
	jne	.LBB0_305
# BB#295:                               # %if.then209
	leaq	400(%rsp), %rdi
	callq	chroot
	testl	%eax, %eax
	js	.LBB0_296
# BB#297:                               # %if.end215
	movq	logfile(%rip), %rbp
	testq	%rbp, %rbp
	je	.LBB0_303
# BB#298:                               # %cond.true227
	movzbl	(%rbp), %eax
	cmpl	$45, %eax
	jne	.LBB0_300
# BB#299:                               # %cond.end272
	cmpb	$0, 1(%rbp)
	je	.LBB0_303
.LBB0_300:                              # %if.then276
	leaq	400(%rsp), %r14
	movq	%r14, %rdi
	callq	strlen
	movq	%rax, %rbx
	movq	%rbp, %rdi
	movq	%r14, %rsi
	movq	%rbx, %rdx
	callq	strncmp
	testl	%eax, %eax
	jne	.LBB0_302
# BB#301:                               # %if.then283
	leaq	-1(%rbx,%rbp), %rsi
	movq	%rbp, %rdi
	callq	strcpy
.LBB0_303:                              # %if.end292
	movw	$47, 400(%rsp)
	leaq	400(%rsp), %rdi
	callq	chdir
	testl	%eax, %eax
	js	.LBB0_304
.LBB0_305:                              # %if.end301
	movq	data_dir(%rip), %rdi
	testq	%rdi, %rdi
	je	.LBB0_308
# BB#306:                               # %if.then304
	callq	chdir
	testl	%eax, %eax
	js	.LBB0_307
.LBB0_308:                              # %if.end310
	xorl	%ebx, %ebx
	movl	$15, %edi
	movl	$handle_term, %esi
	xorl	%eax, %eax
	callq	sigset
	movl	$2, %edi
	movl	$handle_term, %esi
	xorl	%eax, %eax
	callq	sigset
	movl	$17, %edi
	movl	$handle_chld, %esi
	xorl	%eax, %eax
	callq	sigset
	movl	$13, %edi
	movl	$1, %esi
	xorl	%eax, %eax
	callq	sigset
	movl	$1, %edi
	movl	$handle_hup, %esi
	xorl	%eax, %eax
	callq	sigset
	movl	$10, %edi
	movl	$handle_usr1, %esi
	xorl	%eax, %eax
	callq	sigset
	movl	$12, %edi
	movl	$handle_usr2, %esi
	xorl	%eax, %eax
	callq	sigset
	movl	$14, %edi
	movl	$handle_alrm, %esi
	xorl	%eax, %eax
	callq	sigset
	movl	$0, got_hup(%rip)
	movl	$0, got_usr1(%rip)
	movl	$0, watchdog_flag(%rip)
	movl	$360, %edi              # imm = 0x168
	callq	alarm
	callq	tmr_init
	movq	hostname(%rip), %rax
	movq	%rax, 104(%rsp)         # 8-byte Spill
	testl	%r12d, %r12d
	leaq	272(%rsp), %rsi
	cmoveq	%rbx, %rsi
	testl	%r15d, %r15d
	leaq	144(%rsp), %rdx
	cmoveq	%rbx, %rdx
	movq	cgi_pattern(%rip), %r8
	movl	cgi_limit(%rip), %r9d
	movq	charset(%rip), %rdi
	movq	p3p(%rip), %r11
	movl	max_age(%rip), %r14d
	movzbl	no_log(%rip), %r15d
	movl	no_symlink_check(%rip), %ebp
	movzbl	do_vhost(%rip), %ebx
	movzbl	do_global_passwd(%rip), %ecx
	movq	url_pattern(%rip), %r12
	movq	local_pattern(%rip), %r13
	movzbl	no_empty_referers(%rip), %eax
	movzwl	port(%rip), %r10d
	movl	%eax, 88(%rsp)
	movq	%r13, 80(%rsp)
	movq	%r12, 72(%rsp)
	movl	%ecx, 64(%rsp)
	movl	%ebx, 56(%rsp)
	movl	%ebp, 48(%rsp)
	movq	120(%rsp), %rax         # 8-byte Reload
	movq	%rax, 40(%rsp)
	movl	%r15d, 32(%rsp)
	leaq	400(%rsp), %rax
	movq	%rax, 24(%rsp)
	movl	%r14d, 16(%rsp)
	movq	%r11, 8(%rsp)
	movq	%rdi, (%rsp)
	movq	104(%rsp), %rdi         # 8-byte Reload
	movl	%r10d, %ecx
	callq	httpd_initialize
	testq	%rax, %rax
	movq	%rax, hs(%rip)
	je	.LBB0_467
# BB#309:                               # %if.end335
	movq	JunkClientData(%rip), %rdx
	xorl	%edi, %edi
	movl	$occasional, %esi
	movl	$120000, %ecx           # imm = 0x1D4C0
	movl	$1, %r8d
	callq	tmr_create
	testq	%rax, %rax
	movl	112(%rsp), %ebx         # 4-byte Reload
	je	.LBB0_310
# BB#311:                               # %if.end340
	movq	JunkClientData(%rip), %rdx
	xorl	%edi, %edi
	movl	$idle, %esi
	movl	$5000, %ecx             # imm = 0x1388
	movl	$1, %r8d
	callq	tmr_create
	testq	%rax, %rax
	je	.LBB0_312
# BB#313:                               # %if.end345
	cmpl	$0, numthrottles(%rip)
	jle	.LBB0_316
# BB#314:                               # %if.then348
	movq	JunkClientData(%rip), %rdx
	xorl	%edi, %edi
	movl	$update_throttles, %esi
	movl	$2000, %ecx             # imm = 0x7D0
	movl	$1, %r8d
	callq	tmr_create
	testq	%rax, %rax
	je	.LBB0_315
.LBB0_316:                              # %if.end354
	movq	JunkClientData(%rip), %rdx
	xorl	%edi, %edi
	movl	$show_stats, %esi
	movl	$3600000, %ecx          # imm = 0x36EE80
	movl	$1, %r8d
	callq	tmr_create
	testq	%rax, %rax
	je	.LBB0_317
# BB#318:                               # %if.end359
	xorl	%edi, %edi
	callq	time
	movq	%rax, stats_time(%rip)
	movq	%rax, start_time(%rip)
	movq	$0, stats_connections(%rip)
	movq	$0, stats_bytes(%rip)
	movl	$0, stats_simultaneous(%rip)
	callq	getuid
	testl	%eax, %eax
	jne	.LBB0_329
# BB#319:                               # %if.then364
	xorl	%edi, %edi
	xorl	%esi, %esi
	callq	setgroups
	testl	%eax, %eax
	js	.LBB0_320
# BB#321:                               # %if.end369
	movl	%ebx, %edi
	callq	setgid
	testl	%eax, %eax
	js	.LBB0_322
# BB#323:                               # %if.end374
	movq	user(%rip), %rdi
	movl	%ebx, %esi
	callq	initgroups
	testl	%eax, %eax
	jns	.LBB0_325
# BB#324:                               # %if.then378
	movl	$4, %edi
	movl	$.L.str33, %esi
	xorl	%eax, %eax
	callq	syslog
.LBB0_325:                              # %if.end379
	movl	96(%rsp), %edi          # 4-byte Reload
	callq	setuid
	testl	%eax, %eax
	js	.LBB0_326
# BB#327:                               # %if.end384
	movb	do_chroot(%rip), %al
	testb	%al, %al
	jne	.LBB0_329
# BB#328:                               # %if.then386
	movl	$4, %edi
	movl	$.L.str35, %esi
	xorl	%eax, %eax
	callq	syslog
.LBB0_329:                              # %if.end388
	movslq	max_connects(%rip), %rbx
	movq	%rbx, %rax
	shlq	$4, %rax
	leaq	(%rax,%rax,8), %rdi
	callq	malloc
	testq	%rax, %rax
	movq	%rax, connects(%rip)
	je	.LBB0_468
# BB#330:                               # %for.cond.preheader
	movl	$8, %ecx
	testl	%ebx, %ebx
	jle	.LBB0_333
# BB#331:
	xorl	%edx, %edx
	.align	16, 0x90
.LBB0_332:                              # %for.body
                                        # =>This Inner Loop Header: Depth=1
	movl	$0, -8(%rax,%rcx)
	incl	%edx
	movl	%edx, -4(%rax,%rcx)
	movq	$0, (%rax,%rcx)
	movl	max_connects(%rip), %ebx
	addq	$144, %rcx
	cmpl	%ebx, %edx
	movq	connects(%rip), %rax
	jl	.LBB0_332
.LBB0_333:                              # %for.end
	decl	%ebx
	movslq	%ebx, %rcx
	leaq	(%rcx,%rcx,8), %rcx
	shlq	$4, %rcx
	movl	$-1, 4(%rax,%rcx)
	movl	$0, first_free_connect(%rip)
	movl	$0, num_connects(%rip)
	movl	$0, httpd_conn_count(%rip)
	movq	hs(%rip), %rax
	testq	%rax, %rax
	je	.LBB0_338
# BB#334:                               # %if.then409
	movl	72(%rax), %edi
	cmpl	$-1, %edi
	je	.LBB0_336
# BB#335:                               # %if.then412
	xorl	%esi, %esi
	xorl	%edx, %edx
	callq	fdwatch_add_fd
	movq	hs(%rip), %rax
.LBB0_336:                              # %if.end414
	movl	76(%rax), %edi
	cmpl	$-1, %edi
	je	.LBB0_338
# BB#337:                               # %if.then417
	xorl	%esi, %esi
	xorl	%edx, %edx
	callq	fdwatch_add_fd
.LBB0_338:                              # %if.end420
	leaq	128(%rsp), %rdi
	xorl	%esi, %esi
	callq	gettimeofday
	cmpl	$0, terminate(%rip)
	jne	.LBB0_339
.LBB0_340:                              # %while.body.lr.ph
	leaq	128(%rsp), %r12
	leaq	19584(%rsp), %r14
	movl	$1, %r15d
	.align	16, 0x90
.LBB0_341:                              # %while.body
                                        # =>This Loop Header: Depth=1
                                        #     Child Loop BB0_368 Depth 2
                                        #       Child Loop BB0_388 Depth 3
                                        #       Child Loop BB0_410 Depth 3
                                        #       Child Loop BB0_439 Depth 3
	cmpl	$0, got_hup(%rip)
	je	.LBB0_351
# BB#342:                               # %if.then426
                                        #   in Loop: Header=BB0_341 Depth=1
	cmpq	$0, hs(%rip)
	setne	%cl
	movq	logfile(%rip), %rax
	testq	%rax, %rax
	je	.LBB0_350
# BB#343:                               # %if.then426
                                        #   in Loop: Header=BB0_341 Depth=1
	movb	no_log(%rip), %dl
	notb	%dl
	andb	%cl, %dl
	je	.LBB0_350
# BB#344:                               # %cond.true.i
                                        #   in Loop: Header=BB0_341 Depth=1
	movzbl	(%rax), %ecx
	cmpl	$45, %ecx
	jne	.LBB0_346
# BB#345:                               # %cond.end.i612
                                        #   in Loop: Header=BB0_341 Depth=1
	cmpb	$0, 1(%rax)
	je	.LBB0_350
.LBB0_346:                              # %if.then43.i
                                        #   in Loop: Header=BB0_341 Depth=1
	movl	$5, %edi
	movl	$.L.str128, %esi
	xorl	%eax, %eax
	callq	syslog
	movq	logfile(%rip), %rdi
	movl	$.L.str6, %esi
	callq	fopen
	movq	%rax, %rbx
	testq	%rbx, %rbx
	jne	.LBB0_348
# BB#347:                               # %if.then47.i
                                        #   in Loop: Header=BB0_341 Depth=1
	movq	logfile(%rip), %rdx
	movl	$2, %edi
	movl	$.L.str129, %esi
	xorl	%eax, %eax
	callq	syslog
	jmp	.LBB0_349
.LBB0_348:                              # %if.end48.i
                                        #   in Loop: Header=BB0_341 Depth=1
	movq	%rbx, %rdi
	callq	fileno
	movl	%eax, %ecx
	movl	$2, %esi
	movl	$1, %edx
	xorl	%eax, %eax
	movl	%ecx, %edi
	callq	fcntl
	movq	hs(%rip), %rdi
	movq	%rbx, %rsi
	callq	httpd_set_logfp
.LBB0_349:                              # %re_open_logfile.exit
                                        #   in Loop: Header=BB0_341 Depth=1
	movl	$1, %r15d
	.align	16, 0x90
.LBB0_350:                              # %re_open_logfile.exit
                                        #   in Loop: Header=BB0_341 Depth=1
	movl	$0, got_hup(%rip)
.LBB0_351:                              # %if.end427
                                        #   in Loop: Header=BB0_341 Depth=1
	movq	%r12, %rdi
	callq	tmr_mstimeout
	movq	%rax, %rdi
	callq	fdwatch
	movl	%eax, %ebx
	testl	%ebx, %ebx
	jns	.LBB0_355
# BB#352:                               # %if.then432
                                        #   in Loop: Header=BB0_341 Depth=1
	callq	__errno_location
	movl	(%rax), %eax
	cmpl	$4, %eax
	je	.LBB0_357
# BB#353:                               # %if.then432
                                        #   in Loop: Header=BB0_341 Depth=1
	cmpl	$11, %eax
	je	.LBB0_357
	jmp	.LBB0_354
	.align	16, 0x90
.LBB0_355:                              # %if.end442
                                        #   in Loop: Header=BB0_341 Depth=1
	xorl	%esi, %esi
	movq	%r12, %rdi
	callq	gettimeofday
	testl	%ebx, %ebx
	jne	.LBB0_360
# BB#356:                               # %if.then446
                                        #   in Loop: Header=BB0_341 Depth=1
	movq	%r12, %rdi
	callq	tmr_run
	jmp	.LBB0_357
	.align	16, 0x90
.LBB0_360:                              # %if.end447
                                        #   in Loop: Header=BB0_341 Depth=1
	movq	hs(%rip), %rax
	testq	%rax, %rax
	je	.LBB0_368
# BB#361:                               # %land.lhs.true450
                                        #   in Loop: Header=BB0_341 Depth=1
	movl	76(%rax), %edi
	cmpl	$-1, %edi
	je	.LBB0_364
# BB#362:                               # %land.lhs.true454
                                        #   in Loop: Header=BB0_341 Depth=1
	callq	fdwatch_check_fd
	testl	%eax, %eax
	je	.LBB0_364
# BB#363:                               # %if.then458
                                        #   in Loop: Header=BB0_341 Depth=1
	movq	hs(%rip), %rax
	movl	76(%rax), %esi
	movq	%r12, %rdi
	callq	handle_newconnect
	testl	%eax, %eax
	jne	.LBB0_357
.LBB0_364:                              # %if.end464
                                        #   in Loop: Header=BB0_341 Depth=1
	movq	hs(%rip), %rax
	testq	%rax, %rax
	je	.LBB0_368
# BB#365:                               # %land.lhs.true467
                                        #   in Loop: Header=BB0_341 Depth=1
	movl	72(%rax), %edi
	cmpl	$-1, %edi
	je	.LBB0_368
# BB#366:                               # %land.lhs.true471
                                        #   in Loop: Header=BB0_341 Depth=1
	callq	fdwatch_check_fd
	testl	%eax, %eax
	je	.LBB0_368
# BB#367:                               # %if.then475
                                        #   in Loop: Header=BB0_341 Depth=1
	movq	hs(%rip), %rax
	movl	72(%rax), %esi
	movq	%r12, %rdi
	callq	handle_newconnect
	testl	%eax, %eax
	jne	.LBB0_357
	jmp	.LBB0_368
.LBB0_371:                              # %if.then494
                                        #   in Loop: Header=BB0_368 Depth=2
	movq	%rbp, %rdi
	movq	%r12, %rsi
	callq	clear_connection
	.align	16, 0x90
.LBB0_368:                              # %while.cond482
                                        #   Parent Loop BB0_341 Depth=1
                                        # =>  This Loop Header: Depth=2
                                        #       Child Loop BB0_388 Depth 3
                                        #       Child Loop BB0_410 Depth 3
                                        #       Child Loop BB0_439 Depth 3
	callq	fdwatch_get_next_client_data
	movq	%rax, %rbp
	testq	%rbp, %rbp
	je	.LBB0_368
# BB#369:                               # %while.cond482
                                        #   in Loop: Header=BB0_368 Depth=2
	cmpq	$-1, %rbp
	je	.LBB0_456
# BB#370:                               # %if.end490
                                        #   in Loop: Header=BB0_368 Depth=2
	movq	8(%rbp), %rax
	movl	704(%rax), %edi
	callq	fdwatch_check_fd
	testl	%eax, %eax
	je	.LBB0_371
# BB#372:                               # %if.else495
                                        #   in Loop: Header=BB0_368 Depth=2
	movl	(%rbp), %eax
	cmpl	$4, %eax
	je	.LBB0_451
# BB#373:                               # %if.else495
                                        #   in Loop: Header=BB0_368 Depth=2
	cmpl	$2, %eax
	jne	.LBB0_374
# BB#414:                               # %sw.bb497
                                        #   in Loop: Header=BB0_368 Depth=2
	movq	8(%rbp), %r13
	movq	64(%rbp), %rcx
	cmpq	$-1, %rcx
	movl	$1000000000, %eax       # imm = 0x3B9ACA00
	je	.LBB0_416
# BB#415:                               # %if.else.i644
                                        #   in Loop: Header=BB0_368 Depth=2
	movq	%rcx, %rax
	sarq	$63, %rax
	shrq	$62, %rax
	addq	%rcx, %rax
	sarq	$2, %rax
.LBB0_416:                              # %if.end.i646
                                        #   in Loop: Header=BB0_368 Depth=2
	movq	472(%r13), %rcx
	testq	%rcx, %rcx
	jne	.LBB0_418
# BB#417:                               # %if.then4.i655
                                        #   in Loop: Header=BB0_368 Depth=2
	movl	704(%r13), %edi
	movq	128(%rbp), %rdx
	movq	136(%rbp), %rsi
	subq	%rsi, %rdx
	addq	712(%r13), %rsi
	cmpq	%rax, %rdx
	cmovaeq	%rax, %rdx
	callq	write
	jmp	.LBB0_419
.LBB0_451:                              # %sw.bb498
                                        #   in Loop: Header=BB0_368 Depth=2
	movq	8(%rbp), %rax
	movl	704(%rax), %edi
	movl	$4096, %edx             # imm = 0x1000
	movq	%r14, %rsi
	callq	read
	testl	%eax, %eax
	jns	.LBB0_454
# BB#452:                               # %land.lhs.true.i680
                                        #   in Loop: Header=BB0_368 Depth=2
	callq	__errno_location
	movl	(%rax), %eax
	cmpl	$4, %eax
	je	.LBB0_368
# BB#453:                               # %land.lhs.true.i680
                                        #   in Loop: Header=BB0_368 Depth=2
	cmpl	$11, %eax
	jne	.LBB0_455
	jmp	.LBB0_368
.LBB0_374:                              # %if.else495
                                        #   in Loop: Header=BB0_368 Depth=2
	cmpl	$1, %eax
	jne	.LBB0_368
# BB#375:                               # %sw.bb
                                        #   in Loop: Header=BB0_368 Depth=2
	movq	8(%rbp), %rbx
	movq	152(%rbx), %rdx
	movq	160(%rbx), %rsi
	cmpq	%rdx, %rsi
	jb	.LBB0_379
# BB#376:                               # %if.then.i615
                                        #   in Loop: Header=BB0_368 Depth=2
	cmpq	$5001, %rdx             # imm = 0x1389
	jae	.LBB0_377
# BB#378:                               # %if.end.i617
                                        #   in Loop: Header=BB0_368 Depth=2
	leaq	152(%rbx), %rsi
	leaq	144(%rbx), %rdi
	addq	$1000, %rdx             # imm = 0x3E8
	callq	httpd_realloc_str
	movq	152(%rbx), %rdx
	movq	160(%rbx), %rsi
.LBB0_379:                              # %if.end7.i
                                        #   in Loop: Header=BB0_368 Depth=2
	movl	704(%rbx), %edi
	subq	%rsi, %rdx
	addq	144(%rbx), %rsi
	callq	read
	testl	%eax, %eax
	je	.LBB0_377
# BB#380:                               # %if.end15.i
                                        #   in Loop: Header=BB0_368 Depth=2
	jns	.LBB0_383
# BB#381:                               # %if.then18.i
                                        #   in Loop: Header=BB0_368 Depth=2
	callq	__errno_location
	movl	(%rax), %eax
	cmpl	$4, %eax
	je	.LBB0_368
# BB#382:                               # %if.then18.i
                                        #   in Loop: Header=BB0_368 Depth=2
	cmpl	$11, %eax
	jne	.LBB0_377
	jmp	.LBB0_368
.LBB0_418:                              # %if.else10.i
                                        #   in Loop: Header=BB0_368 Depth=2
	movq	368(%r13), %rdx
	movq	%rdx, 19552(%rsp)
	movq	%rcx, 19560(%rsp)
	movq	136(%rbp), %rcx
	movq	712(%r13), %rdx
	addq	%rcx, %rdx
	movq	%rdx, 19568(%rsp)
	movq	128(%rbp), %rdx
	subq	%rcx, %rdx
	cmpq	%rax, %rdx
	cmovaeq	%rax, %rdx
	movq	%rdx, 19576(%rsp)
	movl	704(%r13), %edi
	movl	$2, %edx
	leaq	19552(%rsp), %rsi
	callq	writev
.LBB0_419:                              # %if.end36.i
                                        #   in Loop: Header=BB0_368 Depth=2
	testl	%eax, %eax
	jns	.LBB0_426
# BB#420:                               # %land.lhs.true.i
                                        #   in Loop: Header=BB0_368 Depth=2
	callq	__errno_location
	movl	(%rax), %eax
	cmpl	$103, %eax
	jg	.LBB0_425
# BB#421:                               # %land.lhs.true.i
                                        #   in Loop: Header=BB0_368 Depth=2
	cmpl	$31, %eax
	jg	.LBB0_431
# BB#422:                               # %land.lhs.true.i
                                        #   in Loop: Header=BB0_368 Depth=2
	cmpl	$4, %eax
	je	.LBB0_368
# BB#423:                               # %land.lhs.true.i
                                        #   in Loop: Header=BB0_368 Depth=2
	cmpl	$11, %eax
	je	.LBB0_427
# BB#424:                               # %land.lhs.true.i
                                        #   in Loop: Header=BB0_368 Depth=2
	cmpl	$22, %eax
	je	.LBB0_371
	jmp	.LBB0_432
.LBB0_454:                              # %if.end.i681
                                        #   in Loop: Header=BB0_368 Depth=2
	jg	.LBB0_368
.LBB0_455:                              # %if.then10.i
                                        #   in Loop: Header=BB0_368 Depth=2
	movq	%rbp, %rdi
	movq	%r12, %rsi
	callq	really_clear_connection
	jmp	.LBB0_368
.LBB0_426:                              # %if.end43.i657
                                        #   in Loop: Header=BB0_368 Depth=2
	jne	.LBB0_433
.LBB0_427:                              # %if.then56.i
                                        #   in Loop: Header=BB0_368 Depth=2
	addq	$100, 112(%rbp)
	movl	$3, (%rbp)
	movl	704(%r13), %edi
	callq	fdwatch_del_fd
	cmpq	$0, 96(%rbp)
	je	.LBB0_429
# BB#428:                               # %if.then60.i
                                        #   in Loop: Header=BB0_368 Depth=2
	movl	$3, %edi
	movl	$.L.str49, %esi
	xorl	%eax, %eax
	callq	syslog
.LBB0_429:                              # %if.end61.i661
                                        #   in Loop: Header=BB0_368 Depth=2
	movq	112(%rbp), %rcx
	movl	$wakeup_connection, %esi
	xorl	%r8d, %r8d
	movq	%r12, %rdi
	movq	%rbp, %rdx
	callq	tmr_create
	testq	%rax, %rax
	movq	%rax, 96(%rbp)
	jne	.LBB0_368
	jmp	.LBB0_430
.LBB0_425:                              # %land.lhs.true.i
                                        #   in Loop: Header=BB0_368 Depth=2
	cmpl	$104, %eax
	je	.LBB0_371
	jmp	.LBB0_432
.LBB0_433:                              # %if.end87.i
                                        #   in Loop: Header=BB0_368 Depth=2
	movq	128(%rsp), %rcx
	movq	%rcx, 88(%rbp)
	movq	472(%r13), %rcx
	testq	%rcx, %rcx
	je	.LBB0_437
# BB#434:                               # %if.then91.i
                                        #   in Loop: Header=BB0_368 Depth=2
	movslq	%eax, %rsi
	movq	%rsi, %rax
	subq	%rcx, %rax
	jae	.LBB0_436
# BB#435:                               # %if.then96.i
                                        #   in Loop: Header=BB0_368 Depth=2
	subl	%esi, %ecx
	movq	368(%r13), %rdi
	addq	%rdi, %rsi
	movslq	%ecx, %rbx
	movq	%rbx, %rdx
	callq	memmove
	movq	%rbx, 472(%r13)
	xorl	%eax, %eax
	jmp	.LBB0_437
.LBB0_431:                              # %land.lhs.true.i
                                        #   in Loop: Header=BB0_368 Depth=2
	cmpl	$32, %eax
	je	.LBB0_371
.LBB0_432:                              # %if.then85.i
                                        #   in Loop: Header=BB0_368 Depth=2
	movq	208(%r13), %rdx
	movl	$3, %edi
	movl	$.L.str51, %esi
	xorl	%eax, %eax
	callq	syslog
	jmp	.LBB0_371
.LBB0_436:                              # %if.else107.i
                                        #   in Loop: Header=BB0_368 Depth=2
	movq	$0, 472(%r13)
.LBB0_437:                              # %if.end114.i
                                        #   in Loop: Header=BB0_368 Depth=2
	movslq	%eax, %r9
	movq	136(%rbp), %r8
	addq	%r9, %r8
	movq	%r8, 136(%rbp)
	movq	8(%rbp), %rdi
	movq	200(%rdi), %rax
	addq	%r9, %rax
	movq	%rax, 200(%rdi)
	movl	56(%rbp), %esi
	testl	%esi, %esi
	jle	.LBB0_440
# BB#438:                               # %for.body.lr.ph.i667
                                        #   in Loop: Header=BB0_368 Depth=2
	movq	throttles(%rip), %rbx
	leaq	16(%rbp), %rcx
	.align	16, 0x90
.LBB0_439:                              # %for.body.i671
                                        #   Parent Loop BB0_341 Depth=1
                                        #     Parent Loop BB0_368 Depth=2
                                        # =>    This Inner Loop Header: Depth=3
	movslq	(%rcx), %rdx
	leaq	(%rdx,%rdx,2), %rdx
	shlq	$4, %rdx
	addq	%r9, 32(%rbx,%rdx)
	addq	$4, %rcx
	decl	%esi
	jne	.LBB0_439
.LBB0_440:                              # %for.end.i672
                                        #   in Loop: Header=BB0_368 Depth=2
	cmpq	128(%rbp), %r8
	jge	.LBB0_441
# BB#442:                               # %if.end134.i
                                        #   in Loop: Header=BB0_368 Depth=2
	movq	112(%rbp), %rcx
	cmpq	$101, %rcx
	jl	.LBB0_444
# BB#443:                               # %if.then138.i
                                        #   in Loop: Header=BB0_368 Depth=2
	addq	$-100, %rcx
	movq	%rcx, 112(%rbp)
.LBB0_444:                              # %if.end141.i
                                        #   in Loop: Header=BB0_368 Depth=2
	movq	64(%rbp), %rcx
	cmpq	$-1, %rcx
	je	.LBB0_368
# BB#445:                               # %if.then145.i
                                        #   in Loop: Header=BB0_368 Depth=2
	movq	128(%rsp), %rbx
	subq	80(%rbp), %rbx
	cmoveq	%r15, %rbx
	cqto
	idivq	%rbx
	cmpq	%rcx, %rax
	jle	.LBB0_368
# BB#446:                               # %if.then158.i
                                        #   in Loop: Header=BB0_368 Depth=2
	movl	$3, (%rbp)
	movl	704(%r13), %edi
	callq	fdwatch_del_fd
	movq	8(%rbp), %rax
	movq	200(%rax), %rax
	cqto
	idivq	64(%rbp)
	movq	%rax, %r15
	subq	%rbx, %r15
	cmpq	$0, 96(%rbp)
	je	.LBB0_448
# BB#447:                               # %if.then171.i
                                        #   in Loop: Header=BB0_368 Depth=2
	movl	$3, %edi
	movl	$.L.str49, %esi
	xorl	%eax, %eax
	callq	syslog
.LBB0_448:                              # %if.end172.i
                                        #   in Loop: Header=BB0_368 Depth=2
	testl	%r15d, %r15d
	movl	$500, %ecx              # imm = 0x1F4
	jle	.LBB0_450
# BB#449:                               # %cond.true175.i
                                        #   in Loop: Header=BB0_368 Depth=2
	movslq	%r15d, %rax
	imulq	$1000, %rax, %rcx       # imm = 0x3E8
.LBB0_450:                              # %cond.end178.i
                                        #   in Loop: Header=BB0_368 Depth=2
	movl	$wakeup_connection, %esi
	xorl	%r8d, %r8d
	movq	%r12, %rdi
	movq	%rbp, %rdx
	callq	tmr_create
	testq	%rax, %rax
	movq	%rax, 96(%rbp)
	movl	$1, %r15d
	jne	.LBB0_368
	jmp	.LBB0_430
.LBB0_441:                              # %if.then133.i
                                        #   in Loop: Header=BB0_368 Depth=2
	callq	httpd_write_response
	jmp	.LBB0_371
.LBB0_383:                              # %if.end31.i624
                                        #   in Loop: Header=BB0_368 Depth=2
	cltq
	addq	%rax, 160(%rbx)
	movq	128(%rsp), %rax
	movq	%rax, 88(%rbp)
	movq	%rbx, %rdi
	callq	httpd_got_request
	testl	%eax, %eax
	je	.LBB0_368
# BB#384:                               # %if.end31.i624
                                        #   in Loop: Header=BB0_368 Depth=2
	cmpl	$2, %eax
	jne	.LBB0_385
.LBB0_377:                              # %if.then4.i
                                        #   in Loop: Header=BB0_368 Depth=2
	movq	httpd_err400title(%rip), %rdx
	movq	httpd_err400form(%rip), %r8
	movl	$400, %esi              # imm = 0x190
	movl	$.L.str42, %ecx
	movl	$.L.str42, %r9d
	movq	%rbx, %rdi
	callq	httpd_send_err
	movq	8(%rbp), %rdi
	callq	httpd_write_response
	jmp	.LBB0_371
.LBB0_385:                              # %sw.epilog.i
                                        #   in Loop: Header=BB0_368 Depth=2
	movq	%rbx, %rdi
	callq	httpd_parse_request
	testl	%eax, %eax
	js	.LBB0_386
# BB#387:                               # %if.end41.i
                                        #   in Loop: Header=BB0_368 Depth=2
	movl	$0, 56(%rbp)
	movq	$-1, 72(%rbp)
	movq	$-1, 64(%rbp)
	cmpl	$0, numthrottles(%rip)
	movl	$1, %r13d
	movl	$0, %r15d
	jle	.LBB0_400
.LBB0_388:                              # %for.body.i.i
                                        #   Parent Loop BB0_341 Depth=1
                                        #     Parent Loop BB0_368 Depth=2
                                        # =>    This Inner Loop Header: Depth=3
	movq	throttles(%rip), %rax
	movq	(%rax,%r15), %rdi
	movq	8(%rbp), %rax
	movq	240(%rax), %rsi
	callq	match
	testl	%eax, %eax
	je	.LBB0_398
# BB#389:                               # %if.then.i.i628
                                        #   in Loop: Header=BB0_388 Depth=3
	movq	throttles(%rip), %rcx
	movq	8(%rcx,%r15), %rax
	movq	24(%rcx,%r15), %rdx
	leaq	(%rax,%rax), %rsi
	cmpq	%rsi, %rdx
	jg	.LBB0_469
# BB#390:                               # %if.end.i.i
                                        #   in Loop: Header=BB0_388 Depth=3
	cmpq	16(%rcx,%r15), %rdx
	jl	.LBB0_469
# BB#391:                               # %if.end18.i.i
                                        #   in Loop: Header=BB0_388 Depth=3
	cmpl	$0, 40(%rcx,%r15)
	jns	.LBB0_393
# BB#392:                               # %if.then22.i.i
                                        #   in Loop: Header=BB0_388 Depth=3
	movl	$3, %edi
	movl	$.L.str52, %esi
	xorl	%eax, %eax
	callq	syslog
	movq	throttles(%rip), %rcx
	movl	$0, 40(%rcx,%r15)
	movq	8(%rcx,%r15), %rax
.LBB0_393:                              # %if.end26.i.i
                                        #   in Loop: Header=BB0_388 Depth=3
	movslq	56(%rbp), %rdx
	leal	1(%rdx), %esi
	movl	%esi, 56(%rbp)
	leal	-1(%r13), %esi
	movl	%esi, 16(%rbp,%rdx,4)
	movl	40(%rcx,%r15), %edx
	incl	%edx
	movl	%edx, 40(%rcx,%r15)
	movslq	%edx, %rsi
	cqto
	idivq	%rsi
	movq	64(%rbp), %rdx
	cmpq	$-1, %rdx
	je	.LBB0_395
# BB#394:                               # %if.else.i.i629
                                        #   in Loop: Header=BB0_388 Depth=3
	cmpq	%rax, %rdx
	cmovleq	%rdx, %rax
.LBB0_395:                              # %if.end50.i.i
                                        #   in Loop: Header=BB0_388 Depth=3
	movq	%rax, 64(%rbp)
	movq	16(%rcx,%r15), %rax
	movq	72(%rbp), %rcx
	cmpq	$-1, %rcx
	je	.LBB0_397
# BB#396:                               # %if.else59.i.i
                                        #   in Loop: Header=BB0_388 Depth=3
	cmpq	%rax, %rcx
	cmovgeq	%rcx, %rax
.LBB0_397:                              # %for.inc.i.i
                                        #   in Loop: Header=BB0_388 Depth=3
	movq	%rax, 72(%rbp)
.LBB0_398:                              # %for.inc.i.i
                                        #   in Loop: Header=BB0_388 Depth=3
	cmpl	numthrottles(%rip), %r13d
	jge	.LBB0_400
# BB#399:                               # %for.inc.land.rhs_crit_edge.i.i
                                        #   in Loop: Header=BB0_388 Depth=3
	incl	%r13d
	addq	$48, %r15
	cmpl	$10, 56(%rbp)
	jl	.LBB0_388
.LBB0_400:                              # %if.end44.i
                                        #   in Loop: Header=BB0_368 Depth=2
	movq	%rbx, %rdi
	movq	%r12, %rsi
	callq	httpd_start_request
	testl	%eax, %eax
	js	.LBB0_401
# BB#402:                               # %if.end49.i
                                        #   in Loop: Header=BB0_368 Depth=2
	cmpl	$0, 528(%rbx)
	movl	$1, %r15d
	jne	.LBB0_403
# BB#405:                               # %if.else.i634
                                        #   in Loop: Header=BB0_368 Depth=2
	movq	192(%rbx), %rax
	testq	%rax, %rax
	jns	.LBB0_404
# BB#406:                               # %if.then55.i
                                        #   in Loop: Header=BB0_368 Depth=2
	movq	$0, 128(%rbp)
	xorl	%eax, %eax
	jmp	.LBB0_407
.LBB0_403:                              # %if.then51.i
                                        #   in Loop: Header=BB0_368 Depth=2
	movq	536(%rbx), %rax
	movq	%rax, 136(%rbp)
	movq	544(%rbx), %rax
	incq	%rax
.LBB0_404:                              # %if.else57.i
                                        #   in Loop: Header=BB0_368 Depth=2
	movq	%rax, 128(%rbp)
.LBB0_407:                              # %if.end61.i
                                        #   in Loop: Header=BB0_368 Depth=2
	cmpq	$0, 712(%rbx)
	jne	.LBB0_412
# BB#408:                               # %for.cond.preheader.i635
                                        #   in Loop: Header=BB0_368 Depth=2
	movl	56(%rbp), %eax
	testl	%eax, %eax
	movq	200(%rbx), %rcx
	jle	.LBB0_411
# BB#409:                               # %for.body.lr.ph.i
                                        #   in Loop: Header=BB0_368 Depth=2
	movq	throttles(%rip), %rdx
	leaq	16(%rbp), %rsi
.LBB0_410:                              # %for.body.i639
                                        #   Parent Loop BB0_341 Depth=1
                                        #     Parent Loop BB0_368 Depth=2
                                        # =>    This Inner Loop Header: Depth=3
	movslq	(%rsi), %rdi
	leaq	(%rdi,%rdi,2), %rdi
	shlq	$4, %rdi
	addq	%rcx, 32(%rdx,%rdi)
	addq	$4, %rsi
	decl	%eax
	jne	.LBB0_410
.LBB0_411:                              # %for.end.i640
                                        #   in Loop: Header=BB0_368 Depth=2
	movq	%rcx, 136(%rbp)
	movq	8(%rbp), %rdi
	callq	httpd_write_response
	jmp	.LBB0_371
.LBB0_412:                              # %if.end73.i
                                        #   in Loop: Header=BB0_368 Depth=2
	cmpq	%rax, 136(%rbp)
	jge	.LBB0_386
# BB#413:                               # %if.end79.i
                                        #   in Loop: Header=BB0_368 Depth=2
	movl	$2, (%rbp)
	movq	128(%rsp), %rax
	movq	%rax, 80(%rbp)
	movq	$0, 112(%rbp)
	movl	704(%rbx), %edi
	callq	fdwatch_del_fd
	movl	704(%rbx), %edi
	movl	$1, %edx
	movq	%rbp, %rsi
	callq	fdwatch_add_fd
	jmp	.LBB0_368
.LBB0_386:                              # %if.then40.i626
                                        #   in Loop: Header=BB0_368 Depth=2
	movq	8(%rbp), %rdi
	callq	httpd_write_response
	jmp	.LBB0_371
.LBB0_469:                              # %if.then43.i631
                                        #   in Loop: Header=BB0_368 Depth=2
	movq	httpd_err503title(%rip), %rdx
	movq	httpd_err503form(%rip), %r8
	movq	208(%rbx), %r9
	movl	$503, %esi              # imm = 0x1F7
	movl	$.L.str42, %ecx
	movq	%rbx, %rdi
	callq	httpd_send_err
.LBB0_401:                              # %if.then48.i
                                        #   in Loop: Header=BB0_368 Depth=2
	movq	8(%rbp), %rdi
	callq	httpd_write_response
	movq	%rbp, %rdi
	movq	%r12, %rsi
	callq	clear_connection
	movl	$1, %r15d
	jmp	.LBB0_368
.LBB0_456:                              # %while.end
                                        #   in Loop: Header=BB0_341 Depth=1
	movq	%r12, %rdi
	callq	tmr_run
	cmpl	$0, got_usr1(%rip)
	je	.LBB0_357
# BB#457:                               # %while.end
                                        #   in Loop: Header=BB0_341 Depth=1
	movl	terminate(%rip), %eax
	testl	%eax, %eax
	jne	.LBB0_357
# BB#458:                               # %if.then503
                                        #   in Loop: Header=BB0_341 Depth=1
	movl	$1, terminate(%rip)
	movq	hs(%rip), %rdi
	testq	%rdi, %rdi
	je	.LBB0_357
# BB#459:                               # %if.then506
                                        #   in Loop: Header=BB0_341 Depth=1
	movl	72(%rdi), %eax
	cmpl	$-1, %eax
	je	.LBB0_461
# BB#460:                               # %if.then510
                                        #   in Loop: Header=BB0_341 Depth=1
	movl	%eax, %edi
	callq	fdwatch_del_fd
	movq	hs(%rip), %rdi
.LBB0_461:                              # %if.end512
                                        #   in Loop: Header=BB0_341 Depth=1
	movl	76(%rdi), %eax
	cmpl	$-1, %eax
	je	.LBB0_463
# BB#462:                               # %if.then516
                                        #   in Loop: Header=BB0_341 Depth=1
	movl	%eax, %edi
	callq	fdwatch_del_fd
	movq	hs(%rip), %rdi
.LBB0_463:                              # %if.end518
                                        #   in Loop: Header=BB0_341 Depth=1
	callq	httpd_unlisten
	.align	16, 0x90
.LBB0_357:                              # %while.cond.backedge
                                        #   in Loop: Header=BB0_341 Depth=1
	cmpl	$0, terminate(%rip)
	movl	num_connects(%rip), %eax
	je	.LBB0_341
# BB#358:                               # %while.cond.backedge
                                        #   in Loop: Header=BB0_341 Depth=1
	testl	%eax, %eax
	jg	.LBB0_341
	jmp	.LBB0_359
.LBB0_273:                              # %if.then131
	movl	$4, %edi
	movl	$.L.str8, %esi
	xorl	%eax, %eax
	callq	syslog
	movq	stderr(%rip), %rdi
	movq	argv0(%rip), %rdx
	movl	$.L.str9, %esi
	xorl	%eax, %eax
	callq	fprintf
	jmp	.LBB0_274
.LBB0_302:                              # %if.else289
	movl	$4, %edi
	movl	$.L.str21, %esi
	xorl	%eax, %eax
	callq	syslog
	movq	stderr(%rip), %rdi
	movq	argv0(%rip), %rdx
	movl	$.L.str22, %esi
	xorl	%eax, %eax
	callq	fprintf
	jmp	.LBB0_303
.LBB0_35:                               # %if.then.i.i.i
	movq	stderr(%rip), %rcx
	movq	argv0(%rip), %rdx
	movl	$.L.str127, %esi
	jmp	.LBB0_36
.LBB0_131:                              # %if.else271.i.i
	movq	stderr(%rip), %rcx
	movq	argv0(%rip), %rdx
	movl	$.L.str125, %esi
	jmp	.LBB0_36
.LBB0_40:                               # %if.then.i476.i.i
	movq	stderr(%rip), %rcx
	movq	argv0(%rip), %rdx
	movl	$.L.str126, %esi
.LBB0_36:                               # %if.then.i.i.i
	xorl	%eax, %eax
	movq	%rcx, %rdi
	movq	%rbx, %rcx
	jmp	.LBB0_37
.LBB0_13:                               # %if.then49.i
	movl	$.L.str74, %edi
	callq	puts
	xorl	%edi, %edi
	callq	exit
.LBB0_204:                              # %if.else1528.i
	callq	usage
.LBB0_464:                              # %if.then1555.i
	callq	usage
.LBB0_465:                              # %if.then.i592
	movq	hostname(%rip), %rbp
	movl	%ebx, %edi
	callq	gai_strerror
	movq	%rax, %rcx
	movl	$2, %edi
	movl	$.L.str67, %esi
	xorl	%eax, %eax
	movq	%rbp, %rdx
	callq	syslog
	movq	stderr(%rip), %rbp
	movq	argv0(%rip), %r14
	movq	hostname(%rip), %r15
	movl	%ebx, %edi
	callq	gai_strerror
	movq	%rax, %rbx
	movl	$.L.str68, %esi
	xorl	%eax, %eax
	movq	%rbp, %rdi
	movq	%r14, %rdx
	movq	%r15, %rcx
	movq	%rbx, %r8
	callq	fprintf
	movl	$1, %edi
	callq	exit
.LBB0_218:                              # %if.then25.i
	movq	hostname(%rip), %rdx
	movl	$2, %edi
	movl	$.L.str69, %esi
	movl	$128, %ecx
	xorl	%eax, %eax
	movq	%rbp, %r8
	jmp	.LBB0_223
.LBB0_222:                              # %if.then40.i
	movq	hostname(%rip), %rdx
	movl	$2, %edi
	movl	$.L.str69, %esi
	movl	$128, %ecx
	xorl	%eax, %eax
.LBB0_223:                              # %if.then40.i
	callq	syslog
	movl	$1, %edi
	callq	exit
.LBB0_227:                              # %if.then2
	movl	$3, %edi
	movl	$.L.str, %esi
	xorl	%eax, %eax
	callq	syslog
	movq	stderr(%rip), %rcx
	movq	argv0(%rip), %rdx
	movl	$.L.str1, %esi
	jmp	.LBB0_46
.LBB0_230:                              # %if.then.i595
	movl	$2, %edi
	movl	$.L.str7, %esi
	xorl	%eax, %eax
	movq	%rbx, %rdx
	callq	syslog
.LBB0_19:                               # %if.then.i.i
	movq	%rbx, %rdi
	jmp	.LBB0_20
.LBB0_260:                              # %if.then95.i
	movl	$2, %edi
	movl	$.L.str62, %esi
	xorl	%eax, %eax
	callq	syslog
	movq	stderr(%rip), %rcx
	movq	argv0(%rip), %rdx
	movl	$.L.str63, %esi
	jmp	.LBB0_46
.LBB0_45:                               # %if.then.i484.i.i
	movl	$2, %edi
	movl	$.L.str64, %esi
	xorl	%eax, %eax
	callq	syslog
	movq	stderr(%rip), %rcx
	movq	argv0(%rip), %rdx
	movl	$.L.str65, %esi
.LBB0_46:                               # %if.then.i484.i.i
	xorl	%eax, %eax
	movq	%rcx, %rdi
	callq	fprintf
	movl	$1, %edi
	callq	exit
.LBB0_251:                              # %if.then13
	movq	user(%rip), %rcx
	movl	$2, %edi
	movl	$.L.str2, %esi
	xorl	%eax, %eax
	movq	%rcx, %rdx
	callq	syslog
	movq	stderr(%rip), %rcx
	movq	argv0(%rip), %rdx
	movq	user(%rip), %rbp
	movl	$.L.str3, %esi
	xorl	%eax, %eax
	movq	%rcx, %rdi
	movq	%rbp, %rcx
.LBB0_37:                               # %if.then.i.i.i
	callq	fprintf
	movl	$1, %edi
	callq	exit
.LBB0_271:                              # %if.then125
	movl	$2, %edi
	movl	$.L.str7, %esi
	xorl	%eax, %eax
	movq	%rcx, %rdx
	callq	syslog
	movq	logfile(%rip), %rax
	movq	%rax, %rdi
	jmp	.LBB0_20
.LBB0_279:                              # %if.then157
	movl	$2, %edi
	movl	$.L.str12, %esi
	xorl	%eax, %eax
	callq	syslog
	movl	$.L.str13, %edi
	jmp	.LBB0_20
.LBB0_286:                              # %if.then184
	movl	$2, %edi
	movl	$.L.str15, %esi
	jmp	.LBB0_287
.LBB0_466:                              # %if.then196
	movq	pidfile(%rip), %rcx
	movl	$2, %edi
	movl	$.L.str7, %esi
	xorl	%eax, %eax
	movq	%rcx, %rdx
	callq	syslog
.LBB0_467:                              # %if.then334
	movl	$1, %edi
	callq	exit
.LBB0_293:                              # %if.then205
	movl	$2, %edi
	movl	$.L.str18, %esi
	jmp	.LBB0_287
.LBB0_296:                              # %if.then214
	movl	$2, %edi
	movl	$.L.str19, %esi
	xorl	%eax, %eax
	callq	syslog
	movl	$.L.str20, %edi
	jmp	.LBB0_20
.LBB0_304:                              # %if.then299
	movl	$2, %edi
	movl	$.L.str23, %esi
	xorl	%eax, %eax
	callq	syslog
	movl	$.L.str24, %edi
	jmp	.LBB0_20
.LBB0_307:                              # %if.then308
	movl	$2, %edi
	movl	$.L.str25, %esi
	xorl	%eax, %eax
	callq	syslog
	movl	$.L.str26, %edi
.LBB0_20:                               # %if.then.i.i
	callq	perror
	movl	$1, %edi
	callq	exit
.LBB0_310:                              # %if.then339
	movl	$2, %edi
	movl	$.L.str27, %esi
	jmp	.LBB0_287
.LBB0_312:                              # %if.then344
	movl	$2, %edi
	movl	$.L.str28, %esi
	jmp	.LBB0_287
.LBB0_315:                              # %if.then352
	movl	$2, %edi
	movl	$.L.str29, %esi
	jmp	.LBB0_287
.LBB0_317:                              # %if.then358
	movl	$2, %edi
	movl	$.L.str30, %esi
	jmp	.LBB0_287
.LBB0_320:                              # %if.then368
	movl	$2, %edi
	movl	$.L.str31, %esi
	jmp	.LBB0_287
.LBB0_322:                              # %if.then373
	movl	$2, %edi
	movl	$.L.str32, %esi
	jmp	.LBB0_287
.LBB0_326:                              # %if.then383
	movl	$2, %edi
	movl	$.L.str34, %esi
	jmp	.LBB0_287
.LBB0_468:                              # %if.then393
	movl	$2, %edi
	movl	$.L.str36, %esi
	jmp	.LBB0_287
.LBB0_339:                              # %if.end420
	movl	num_connects(%rip), %eax
	testl	%eax, %eax
	jg	.LBB0_340
.LBB0_359:                              # %while.end521
	callq	shut_down
	movl	$5, %edi
	movl	$.L.str38, %esi
	xorl	%eax, %eax
	callq	syslog
	callq	closelog
	xorl	%edi, %edi
	callq	exit
.LBB0_354:                              # %if.end441
	movl	$3, %edi
	movl	$.L.str37, %esi
	jmp	.LBB0_287
.LBB0_430:                              # %if.then68.i
	movl	$2, %edi
	movl	$.L.str50, %esi
.LBB0_287:                              # %if.then184
	xorl	%eax, %eax
	callq	syslog
	movl	$1, %edi
	callq	exit
.Ltmp20:
	.size	main, .Ltmp20-main
	.cfi_endproc

	.align	16, 0x90
	.type	handle_term,@function
handle_term:                            # @handle_term
	.cfi_startproc
# BB#0:                                 # %entry
	pushq	%rbx
.Ltmp23:
	.cfi_def_cfa_offset 16
.Ltmp24:
	.cfi_offset %rbx, -16
	movl	%edi, %ebx
	callq	shut_down
	movl	$5, %edi
	movl	$.L.str132, %esi
	xorl	%eax, %eax
	movl	%ebx, %edx
	callq	syslog
	callq	closelog
	movl	$1, %edi
	callq	exit
.Ltmp25:
	.size	handle_term, .Ltmp25-handle_term
	.cfi_endproc

	.align	16, 0x90
	.type	handle_chld,@function
handle_chld:                            # @handle_chld
	.cfi_startproc
# BB#0:                                 # %entry
	pushq	%rbp
.Ltmp31:
	.cfi_def_cfa_offset 16
	pushq	%r15
.Ltmp32:
	.cfi_def_cfa_offset 24
	pushq	%r14
.Ltmp33:
	.cfi_def_cfa_offset 32
	pushq	%rbx
.Ltmp34:
	.cfi_def_cfa_offset 40
	pushq	%rax
.Ltmp35:
	.cfi_def_cfa_offset 48
.Ltmp36:
	.cfi_offset %rbx, -40
.Ltmp37:
	.cfi_offset %r14, -32
.Ltmp38:
	.cfi_offset %r15, -24
.Ltmp39:
	.cfi_offset %rbp, -16
	callq	__errno_location
	movq	%rax, %r14
	movl	(%r14), %r15d
	leaq	4(%rsp), %rsi
	movl	$-1, %edi
	movl	$1, %edx
	callq	waitpid
	testl	%eax, %eax
	je	.LBB2_10
# BB#1:
	leaq	4(%rsp), %rbx
	xorl	%ebp, %ebp
	.align	16, 0x90
.LBB2_2:                                # %if.end
                                        # =>This Inner Loop Header: Depth=1
	testl	%eax, %eax
	jns	.LBB2_7
# BB#3:                                 # %if.then3
                                        #   in Loop: Header=BB2_2 Depth=1
	movl	(%r14), %eax
	cmpl	$4, %eax
	je	.LBB2_9
# BB#4:                                 # %if.then3
                                        #   in Loop: Header=BB2_2 Depth=1
	cmpl	$11, %eax
	je	.LBB2_9
	jmp	.LBB2_5
	.align	16, 0x90
.LBB2_7:                                # %if.end14
                                        #   in Loop: Header=BB2_2 Depth=1
	movq	hs(%rip), %rax
	testq	%rax, %rax
	je	.LBB2_9
# BB#8:                                 # %if.then16
                                        #   in Loop: Header=BB2_2 Depth=1
	movl	36(%rax), %ecx
	leal	-1(%rcx), %edx
	testl	%ecx, %ecx
	cmovlel	%ebp, %edx
	movl	%edx, 36(%rax)
.LBB2_9:                                # %for.cond.backedge
                                        #   in Loop: Header=BB2_2 Depth=1
	movl	$-1, %edi
	movl	$1, %edx
	movq	%rbx, %rsi
	callq	waitpid
	testl	%eax, %eax
	jne	.LBB2_2
	jmp	.LBB2_10
.LBB2_5:                                # %if.then3
	cmpl	$10, %eax
	je	.LBB2_10
# BB#6:                                 # %if.then12
	movl	$3, %edi
	movl	$.L.str131, %esi
	xorl	%eax, %eax
	callq	syslog
.LBB2_10:                               # %for.end
	movl	%r15d, (%r14)
	addq	$8, %rsp
	popq	%rbx
	popq	%r14
	popq	%r15
	popq	%rbp
	ret
.Ltmp40:
	.size	handle_chld, .Ltmp40-handle_chld
	.cfi_endproc

	.align	16, 0x90
	.type	handle_hup,@function
handle_hup:                             # @handle_hup
	.cfi_startproc
# BB#0:                                 # %entry
	pushq	%rax
.Ltmp42:
	.cfi_def_cfa_offset 16
	callq	__errno_location
	movl	(%rax), %ecx
	movl	$1, got_hup(%rip)
	movl	%ecx, (%rax)
	popq	%rax
	ret
.Ltmp43:
	.size	handle_hup, .Ltmp43-handle_hup
	.cfi_endproc

	.align	16, 0x90
	.type	handle_usr1,@function
handle_usr1:                            # @handle_usr1
	.cfi_startproc
# BB#0:                                 # %entry
	pushq	%rax
.Ltmp45:
	.cfi_def_cfa_offset 16
	cmpl	$0, num_connects(%rip)
	je	.LBB4_2
# BB#1:                                 # %if.end
	movl	$1, got_usr1(%rip)
	popq	%rax
	ret
.LBB4_2:                                # %if.then
	callq	shut_down
	movl	$5, %edi
	movl	$.L.str38, %esi
	xorl	%eax, %eax
	callq	syslog
	callq	closelog
	xorl	%edi, %edi
	callq	exit
.Ltmp46:
	.size	handle_usr1, .Ltmp46-handle_usr1
	.cfi_endproc

	.align	16, 0x90
	.type	handle_usr2,@function
handle_usr2:                            # @handle_usr2
	.cfi_startproc
# BB#0:                                 # %entry
	pushq	%rbp
.Ltmp50:
	.cfi_def_cfa_offset 16
	pushq	%rbx
.Ltmp51:
	.cfi_def_cfa_offset 24
	pushq	%rax
.Ltmp52:
	.cfi_def_cfa_offset 32
.Ltmp53:
	.cfi_offset %rbx, -24
.Ltmp54:
	.cfi_offset %rbp, -16
	callq	__errno_location
	movq	%rax, %rbx
	movl	(%rbx), %ebp
	xorl	%edi, %edi
	callq	logstats
	movl	%ebp, (%rbx)
	addq	$8, %rsp
	popq	%rbx
	popq	%rbp
	ret
.Ltmp55:
	.size	handle_usr2, .Ltmp55-handle_usr2
	.cfi_endproc

	.align	16, 0x90
	.type	handle_alrm,@function
handle_alrm:                            # @handle_alrm
	.cfi_startproc
# BB#0:                                 # %entry
	pushq	%rbp
.Ltmp59:
	.cfi_def_cfa_offset 16
	pushq	%rbx
.Ltmp60:
	.cfi_def_cfa_offset 24
	pushq	%rax
.Ltmp61:
	.cfi_def_cfa_offset 32
.Ltmp62:
	.cfi_offset %rbx, -24
.Ltmp63:
	.cfi_offset %rbp, -16
	callq	__errno_location
	movq	%rax, %rbx
	movl	(%rbx), %ebp
	cmpl	$0, watchdog_flag(%rip)
	je	.LBB6_2
# BB#1:                                 # %if.end
	movl	$0, watchdog_flag(%rip)
	movl	$360, %edi              # imm = 0x168
	callq	alarm
	movl	%ebp, (%rbx)
	addq	$8, %rsp
	popq	%rbx
	popq	%rbp
	ret
.LBB6_2:                                # %if.then
	movl	$.L.str130, %edi
	callq	chdir
	callq	abort
.Ltmp64:
	.size	handle_alrm, .Ltmp64-handle_alrm
	.cfi_endproc

	.align	16, 0x90
	.type	occasional,@function
occasional:                             # @occasional
	.cfi_startproc
# BB#0:                                 # %entry
	pushq	%rax
.Ltmp66:
	.cfi_def_cfa_offset 16
	movq	%rsi, %rdi
	callq	mmc_cleanup
	callq	tmr_cleanup
	movl	$1, watchdog_flag(%rip)
	popq	%rax
	ret
.Ltmp67:
	.size	occasional, .Ltmp67-occasional
	.cfi_endproc

	.align	16, 0x90
	.type	idle,@function
idle:                                   # @idle
	.cfi_startproc
# BB#0:                                 # %entry
	pushq	%rbp
.Ltmp74:
	.cfi_def_cfa_offset 16
	pushq	%r15
.Ltmp75:
	.cfi_def_cfa_offset 24
	pushq	%r14
.Ltmp76:
	.cfi_def_cfa_offset 32
	pushq	%r12
.Ltmp77:
	.cfi_def_cfa_offset 40
	pushq	%rbx
.Ltmp78:
	.cfi_def_cfa_offset 48
.Ltmp79:
	.cfi_offset %rbx, -48
.Ltmp80:
	.cfi_offset %r12, -40
.Ltmp81:
	.cfi_offset %r14, -32
.Ltmp82:
	.cfi_offset %r15, -24
.Ltmp83:
	.cfi_offset %rbp, -16
	movq	%rsi, %r14
	cmpl	$0, max_connects(%rip)
	jle	.LBB8_10
# BB#1:                                 # %for.body.lr.ph
	xorl	%ebx, %ebx
	xorl	%ebp, %ebp
	.align	16, 0x90
.LBB8_2:                                # %for.body
                                        # =>This Inner Loop Header: Depth=1
	movq	connects(%rip), %r12
	leaq	(%r12,%rbx), %r15
	movl	(%r12,%rbx), %eax
	leal	-2(%rax), %ecx
	cmpl	$2, %ecx
	jae	.LBB8_3
# BB#6:                                 # %sw.bb3
                                        #   in Loop: Header=BB8_2 Depth=1
	movq	(%r14), %rax
	subq	88(%r12,%rbx), %rax
	cmpq	$300, %rax              # imm = 0x12C
	jl	.LBB8_9
# BB#7:                                 # %if.then8
                                        #   in Loop: Header=BB8_2 Depth=1
	movq	8(%r12,%rbx), %rdi
	addq	$16, %rdi
	callq	httpd_ntoa
	movq	%rax, %rcx
	movl	$6, %edi
	movl	$.L.str43, %esi
	xorl	%eax, %eax
	movq	%rcx, %rdx
	callq	syslog
	jmp	.LBB8_8
	.align	16, 0x90
.LBB8_3:                                # %for.body
                                        #   in Loop: Header=BB8_2 Depth=1
	cmpl	$1, %eax
	jne	.LBB8_9
# BB#4:                                 # %sw.bb
                                        #   in Loop: Header=BB8_2 Depth=1
	movq	(%r14), %rax
	subq	88(%r12,%rbx), %rax
	cmpq	$60, %rax
	jl	.LBB8_9
# BB#5:                                 # %if.then
                                        #   in Loop: Header=BB8_2 Depth=1
	movq	8(%r12,%rbx), %rdi
	addq	$16, %rdi
	callq	httpd_ntoa
	movq	%rax, %rcx
	movl	$6, %edi
	movl	$.L.str41, %esi
	xorl	%eax, %eax
	movq	%rcx, %rdx
	callq	syslog
	movq	8(%r12,%rbx), %rdi
	movq	httpd_err408title(%rip), %rdx
	movq	httpd_err408form(%rip), %r8
	movl	$408, %esi              # imm = 0x198
	movl	$.L.str42, %ecx
	movl	$.L.str42, %r9d
	callq	httpd_send_err
	movq	8(%r12,%rbx), %rdi
	callq	httpd_write_response
	.align	16, 0x90
.LBB8_8:                                # %for.inc
                                        #   in Loop: Header=BB8_2 Depth=1
	movq	%r15, %rdi
	movq	%r14, %rsi
	callq	clear_connection
.LBB8_9:                                # %for.inc
                                        #   in Loop: Header=BB8_2 Depth=1
	incl	%ebp
	addq	$144, %rbx
	cmpl	max_connects(%rip), %ebp
	jl	.LBB8_2
.LBB8_10:                               # %for.end
	popq	%rbx
	popq	%r12
	popq	%r14
	popq	%r15
	popq	%rbp
	ret
.Ltmp84:
	.size	idle, .Ltmp84-idle
	.cfi_endproc

	.align	16, 0x90
	.type	update_throttles,@function
update_throttles:                       # @update_throttles
	.cfi_startproc
# BB#0:                                 # %entry
	pushq	%rbp
.Ltmp90:
	.cfi_def_cfa_offset 16
	pushq	%r15
.Ltmp91:
	.cfi_def_cfa_offset 24
	pushq	%r14
.Ltmp92:
	.cfi_def_cfa_offset 32
	pushq	%rbx
.Ltmp93:
	.cfi_def_cfa_offset 40
	pushq	%rax
.Ltmp94:
	.cfi_def_cfa_offset 48
.Ltmp95:
	.cfi_offset %rbx, -40
.Ltmp96:
	.cfi_offset %r14, -32
.Ltmp97:
	.cfi_offset %r15, -24
.Ltmp98:
	.cfi_offset %rbp, -16
	cmpl	$0, numthrottles(%rip)
	movl	$40, %ebx
	jle	.LBB9_6
# BB#1:
	xorl	%ebp, %ebp
	movabsq	$6148914691236517206, %r14 # imm = 0x5555555555555556
	.align	16, 0x90
.LBB9_2:                                # %for.body
                                        # =>This Inner Loop Header: Depth=1
	movq	throttles(%rip), %rcx
	movq	-16(%rcx,%rbx), %rax
	movq	-8(%rcx,%rbx), %rdx
	movq	%rdx, %rsi
	shrq	$63, %rsi
	addq	%rdx, %rsi
	sarq	%rsi
	leaq	(%rsi,%rax,2), %rax
	imulq	%r14
	movq	%rdx, %r8
	shrq	$63, %r8
	addq	%rdx, %r8
	movq	%r8, -16(%rcx,%rbx)
	movq	$0, -8(%rcx,%rbx)
	movq	-32(%rcx,%rbx), %r9
	cmpq	%r9, %r8
	jle	.LBB9_18
# BB#3:                                 # %land.lhs.true
                                        #   in Loop: Header=BB9_2 Depth=1
	movl	(%rcx,%rbx), %eax
	testl	%eax, %eax
	je	.LBB9_18
# BB#4:                                 # %if.then
                                        #   in Loop: Header=BB9_2 Depth=1
	leaq	(%r9,%r9), %rdx
	cmpq	%rdx, %r8
	movq	-40(%rcx,%rbx), %rcx
	jle	.LBB9_16
# BB#5:                                 # %if.then27
                                        #   in Loop: Header=BB9_2 Depth=1
	movl	%eax, (%rsp)
	movl	$5, %edi
	movl	$.L.str46, %esi
	jmp	.LBB9_17
.LBB9_16:                               # %if.else
                                        #   in Loop: Header=BB9_2 Depth=1
	movl	%eax, (%rsp)
	movl	$6, %edi
	movl	$.L.str47, %esi
.LBB9_17:                               # %if.end51
                                        #   in Loop: Header=BB9_2 Depth=1
	xorl	%eax, %eax
	movl	%ebp, %edx
	callq	syslog
.LBB9_18:                               # %if.end51
                                        #   in Loop: Header=BB9_2 Depth=1
	movq	throttles(%rip), %rax
	movq	-24(%rax,%rbx), %r9
	movq	-16(%rax,%rbx), %r8
	cmpq	%r9, %r8
	jge	.LBB9_21
# BB#19:                                # %land.lhs.true58
                                        #   in Loop: Header=BB9_2 Depth=1
	movl	(%rax,%rbx), %edx
	testl	%edx, %edx
	je	.LBB9_21
# BB#20:                                # %if.then63
                                        #   in Loop: Header=BB9_2 Depth=1
	movq	-40(%rax,%rbx), %rcx
	movl	%edx, (%rsp)
	movl	$5, %edi
	movl	$.L.str48, %esi
	xorl	%eax, %eax
	movl	%ebp, %edx
	callq	syslog
.LBB9_21:                               # %for.inc
                                        #   in Loop: Header=BB9_2 Depth=1
	incl	%ebp
	addq	$48, %rbx
	cmpl	numthrottles(%rip), %ebp
	jl	.LBB9_2
.LBB9_6:                                # %for.cond77.preheader
	movl	max_connects(%rip), %r8d
	testl	%r8d, %r8d
	jle	.LBB9_15
# BB#7:                                 # %for.body79.lr.ph
	movq	connects(%rip), %r9
	movq	throttles(%rip), %rdi
	leaq	16(%r9), %r10
	xorl	%r11d, %r11d
	.align	16, 0x90
.LBB9_8:                                # %for.body79
                                        # =>This Loop Header: Depth=1
                                        #     Child Loop BB9_11 Depth 2
	leaq	(%r11,%r11,8), %rax
	shlq	$4, %rax
	movl	(%r9,%rax), %ecx
	andl	$-2, %ecx
	cmpl	$2, %ecx
	jne	.LBB9_14
# BB#9:                                 # %if.then85
                                        #   in Loop: Header=BB9_8 Depth=1
	movq	$-1, 64(%r9,%rax)
	movl	56(%r9,%rax), %r15d
	testl	%r15d, %r15d
	jle	.LBB9_14
# BB#10:                                #   in Loop: Header=BB9_8 Depth=1
	movq	$-1, %rsi
	leaq	64(%r9,%rax), %r14
	xorl	%ebp, %ebp
	movq	%r10, %rbx
	.align	16, 0x90
.LBB9_11:                               # %for.body89
                                        #   Parent Loop BB9_8 Depth=1
                                        # =>  This Inner Loop Header: Depth=2
	movslq	(%rbx), %rax
	leaq	(%rax,%rax,2), %rdx
	shlq	$4, %rdx
	movq	8(%rdi,%rdx), %rax
	movslq	40(%rdi,%rdx), %rcx
	cqto
	idivq	%rcx
	cmpq	$-1, %rsi
	je	.LBB9_13
# BB#12:                                # %if.else104
                                        #   in Loop: Header=BB9_11 Depth=2
	cmpq	%rax, %rsi
	cmovleq	%rsi, %rax
.LBB9_13:                               # %for.inc111
                                        #   in Loop: Header=BB9_11 Depth=2
	movq	%rax, (%r14)
	incl	%ebp
	addq	$4, %rbx
	cmpl	%r15d, %ebp
	movq	%rax, %rsi
	jl	.LBB9_11
.LBB9_14:                               # %for.inc115
                                        #   in Loop: Header=BB9_8 Depth=1
	incq	%r11
	addq	$144, %r10
	cmpl	%r8d, %r11d
	jl	.LBB9_8
.LBB9_15:                               # %for.end117
	addq	$8, %rsp
	popq	%rbx
	popq	%r14
	popq	%r15
	popq	%rbp
	ret
.Ltmp99:
	.size	update_throttles, .Ltmp99-update_throttles
	.cfi_endproc

	.align	16, 0x90
	.type	show_stats,@function
show_stats:                             # @show_stats
	.cfi_startproc
# BB#0:                                 # %entry
	movq	%rsi, %rdi
	jmp	logstats                # TAILCALL
.Ltmp100:
	.size	show_stats, .Ltmp100-show_stats
	.cfi_endproc

	.section	.rodata.cst16,"aM",@progbits,16
	.align	16
.LCPI11_0:
	.zero	16
	.text
	.align	16, 0x90
	.type	handle_newconnect,@function
handle_newconnect:                      # @handle_newconnect
	.cfi_startproc
# BB#0:                                 # %entry
	pushq	%rbp
.Ltmp108:
	.cfi_def_cfa_offset 16
	pushq	%r15
.Ltmp109:
	.cfi_def_cfa_offset 24
	pushq	%r14
.Ltmp110:
	.cfi_def_cfa_offset 32
	pushq	%r13
.Ltmp111:
	.cfi_def_cfa_offset 40
	pushq	%r12
.Ltmp112:
	.cfi_def_cfa_offset 48
	pushq	%rbx
.Ltmp113:
	.cfi_def_cfa_offset 56
	pushq	%rax
.Ltmp114:
	.cfi_def_cfa_offset 64
.Ltmp115:
	.cfi_offset %rbx, -56
.Ltmp116:
	.cfi_offset %r12, -48
.Ltmp117:
	.cfi_offset %r13, -40
.Ltmp118:
	.cfi_offset %r14, -32
.Ltmp119:
	.cfi_offset %r15, -24
.Ltmp120:
	.cfi_offset %rbp, -16
	movl	%esi, %r15d
	movq	%rdi, %r14
	movl	num_connects(%rip), %eax
	jmp	.LBB11_1
.LBB11_16:                              # %if.then27
                                        #   in Loop: Header=BB11_1 Depth=1
	movl	%eax, stats_simultaneous(%rip)
	.align	16, 0x90
.LBB11_1:                               # %entry
                                        # =>This Inner Loop Header: Depth=1
	cmpl	max_connects(%rip), %eax
	jge	.LBB11_2
# BB#3:                                 # %if.end
                                        #   in Loop: Header=BB11_1 Depth=1
	movslq	first_free_connect(%rip), %rax
	cmpq	$-1, %rax
	je	.LBB11_5
# BB#4:                                 # %lor.lhs.false
                                        #   in Loop: Header=BB11_1 Depth=1
	movq	connects(%rip), %rbp
	leaq	(%rax,%rax,8), %rbx
	shlq	$4, %rbx
	cmpl	$0, (%rbp,%rbx)
	jne	.LBB11_5
# BB#7:                                 # %if.end4
                                        #   in Loop: Header=BB11_1 Depth=1
	leaq	8(%rbp,%rbx), %r12
	movq	8(%rbp,%rbx), %rax
	testq	%rax, %rax
	jne	.LBB11_11
# BB#8:                                 # %if.then8
                                        #   in Loop: Header=BB11_1 Depth=1
	movl	$720, %edi              # imm = 0x2D0
	callq	malloc
	testq	%rax, %rax
	movq	%rax, (%r12)
	je	.LBB11_9
# BB#10:                                # %if.end13
                                        #   in Loop: Header=BB11_1 Depth=1
	movl	$0, (%rax)
	incl	httpd_conn_count(%rip)
.LBB11_11:                              # %if.end15
                                        #   in Loop: Header=BB11_1 Depth=1
	movq	hs(%rip), %rdi
	movl	%r15d, %esi
	movq	%rax, %rdx
	callq	httpd_get_conn
	movl	$1, %r13d
	cmpl	$2, %eax
	je	.LBB11_14
# BB#12:                                # %if.end15
                                        #   in Loop: Header=BB11_1 Depth=1
	testl	%eax, %eax
	je	.LBB11_13
# BB#15:                                # %sw.epilog
                                        #   in Loop: Header=BB11_1 Depth=1
	leaq	(%rbp,%rbx), %r13
	movl	$1, (%r13)
	movl	4(%rbp,%rbx), %eax
	movl	%eax, first_free_connect(%rip)
	movl	$-1, 4(%rbp,%rbx)
	incl	num_connects(%rip)
	movq	(%r14), %rax
	movq	%rax, 88(%rbp,%rbx)
	movq	$0, 136(%rbp,%rbx)
	movl	$0, 56(%rbp,%rbx)
	xorps	%xmm0, %xmm0
	movups	%xmm0, 96(%rbp,%rbx)
	movq	(%r12), %rax
	movl	704(%rax), %edi
	callq	httpd_set_ndelay
	movq	(%r12), %rax
	movl	704(%rax), %edi
	xorl	%edx, %edx
	movq	%r13, %rsi
	callq	fdwatch_add_fd
	incq	stats_connections(%rip)
	movl	num_connects(%rip), %eax
	cmpl	stats_simultaneous(%rip), %eax
	jle	.LBB11_1
	jmp	.LBB11_16
.LBB11_2:                               # %if.then
	xorl	%r13d, %r13d
	movl	$4, %edi
	movl	$.L.str53, %esi
	xorl	%eax, %eax
	callq	syslog
	movq	%r14, %rdi
	callq	tmr_run
.LBB11_14:                              # %return
	movl	%r13d, %eax
	addq	$8, %rsp
	popq	%rbx
	popq	%r12
	popq	%r13
	popq	%r14
	popq	%r15
	popq	%rbp
	ret
.LBB11_13:                              # %sw.bb
	movq	%r14, %rdi
	callq	tmr_run
	xorl	%r13d, %r13d
	jmp	.LBB11_14
.LBB11_5:                               # %if.then3
	movl	$2, %edi
	movl	$.L.str54, %esi
	jmp	.LBB11_6
.LBB11_9:                               # %if.then12
	movl	$2, %edi
	movl	$.L.str55, %esi
.LBB11_6:                               # %if.then3
	xorl	%eax, %eax
	callq	syslog
	movl	$1, %edi
	callq	exit
.Ltmp121:
	.size	handle_newconnect, .Ltmp121-handle_newconnect
	.cfi_endproc

	.align	16, 0x90
	.type	clear_connection,@function
clear_connection:                       # @clear_connection
	.cfi_startproc
# BB#0:                                 # %entry
	pushq	%r14
.Ltmp125:
	.cfi_def_cfa_offset 16
	pushq	%rbx
.Ltmp126:
	.cfi_def_cfa_offset 24
	pushq	%rax
.Ltmp127:
	.cfi_def_cfa_offset 32
.Ltmp128:
	.cfi_offset %rbx, -24
.Ltmp129:
	.cfi_offset %r14, -16
	movq	%rsi, %r14
	movq	%rdi, %rbx
	movq	96(%rbx), %rdi
	testq	%rdi, %rdi
	je	.LBB12_2
# BB#1:                                 # %if.then
	callq	tmr_cancel
	movq	$0, 96(%rbx)
.LBB12_2:                               # %if.end
	cmpl	$4, (%rbx)
	jne	.LBB12_5
# BB#3:                                 # %if.end6.thread
	movq	104(%rbx), %rdi
	callq	tmr_cancel
	movq	$0, 104(%rbx)
	movq	8(%rbx), %rax
	movl	$0, 556(%rax)
	jmp	.LBB12_4
.LBB12_5:                               # %if.end6
	movq	8(%rbx), %rax
	cmpl	$0, 556(%rax)
	je	.LBB12_4
# BB#6:                                 # %if.then9
	cmpl	$3, (%rbx)
	je	.LBB12_8
# BB#7:                                 # %if.then12
	movl	704(%rax), %edi
	callq	fdwatch_del_fd
	movq	8(%rbx), %rax
.LBB12_8:                               # %if.end14
	movl	$4, (%rbx)
	movl	704(%rax), %edi
	movl	$1, %esi
	callq	shutdown
	movq	8(%rbx), %rax
	movl	704(%rax), %edi
	xorl	%edx, %edx
	movq	%rbx, %rsi
	callq	fdwatch_add_fd
	cmpq	$0, 104(%rbx)
	je	.LBB12_10
# BB#9:                                 # %if.then22
	movl	$3, %edi
	movl	$.L.str44, %esi
	xorl	%eax, %eax
	callq	syslog
.LBB12_10:                              # %if.end23
	movl	$linger_clear_connection, %esi
	movl	$500, %ecx              # imm = 0x1F4
	xorl	%r8d, %r8d
	movq	%r14, %rdi
	movq	%rbx, %rdx
	callq	tmr_create
	testq	%rax, %rax
	movq	%rax, 104(%rbx)
	je	.LBB12_12
# BB#11:                                # %if.end30
	addq	$8, %rsp
	popq	%rbx
	popq	%r14
	ret
.LBB12_4:                               # %if.else
	movq	%rbx, %rdi
	movq	%r14, %rsi
	addq	$8, %rsp
	popq	%rbx
	popq	%r14
	jmp	really_clear_connection # TAILCALL
.LBB12_12:                              # %if.then28
	movl	$2, %edi
	movl	$.L.str45, %esi
	xorl	%eax, %eax
	callq	syslog
	movl	$1, %edi
	callq	exit
.Ltmp130:
	.size	clear_connection, .Ltmp130-clear_connection
	.cfi_endproc

	.align	16, 0x90
	.type	shut_down,@function
shut_down:                              # @shut_down
	.cfi_startproc
# BB#0:                                 # %entry
	pushq	%r15
.Ltmp135:
	.cfi_def_cfa_offset 16
	pushq	%r14
.Ltmp136:
	.cfi_def_cfa_offset 24
	pushq	%rbx
.Ltmp137:
	.cfi_def_cfa_offset 32
	subq	$16, %rsp
.Ltmp138:
	.cfi_def_cfa_offset 48
.Ltmp139:
	.cfi_offset %rbx, -32
.Ltmp140:
	.cfi_offset %r14, -24
.Ltmp141:
	.cfi_offset %r15, -16
	xorl	%r15d, %r15d
	leaq	(%rsp), %r14
	xorl	%esi, %esi
	movq	%r14, %rdi
	callq	gettimeofday
	movq	%r14, %rdi
	callq	logstats
	cmpl	$0, max_connects(%rip)
	movl	$8, %ebx
	jle	.LBB13_7
# BB#1:
	leaq	(%rsp), %r14
	.align	16, 0x90
.LBB13_2:                               # %for.body
                                        # =>This Inner Loop Header: Depth=1
	movq	connects(%rip), %rax
	cmpl	$0, -8(%rax,%rbx)
	je	.LBB13_4
# BB#3:                                 # %if.then
                                        #   in Loop: Header=BB13_2 Depth=1
	movq	(%rax,%rbx), %rdi
	movq	%r14, %rsi
	callq	httpd_close_conn
	movq	connects(%rip), %rax
.LBB13_4:                               # %if.end
                                        #   in Loop: Header=BB13_2 Depth=1
	movq	(%rax,%rbx), %rdi
	testq	%rdi, %rdi
	je	.LBB13_6
# BB#5:                                 # %if.then8
                                        #   in Loop: Header=BB13_2 Depth=1
	callq	httpd_destroy_conn
	movq	connects(%rip), %rax
	movq	(%rax,%rbx), %rdi
	callq	free
	decl	httpd_conn_count(%rip)
	movq	connects(%rip), %rax
	movq	$0, (%rax,%rbx)
.LBB13_6:                               # %for.inc
                                        #   in Loop: Header=BB13_2 Depth=1
	incl	%r15d
	addq	$144, %rbx
	cmpl	max_connects(%rip), %r15d
	jl	.LBB13_2
.LBB13_7:                               # %for.end
	movq	hs(%rip), %rbx
	testq	%rbx, %rbx
	je	.LBB13_13
# BB#8:                                 # %if.then20
	movq	$0, hs(%rip)
	movl	72(%rbx), %edi
	cmpl	$-1, %edi
	je	.LBB13_10
# BB#9:                                 # %if.then22
	callq	fdwatch_del_fd
.LBB13_10:                              # %if.end24
	movl	76(%rbx), %edi
	cmpl	$-1, %edi
	je	.LBB13_12
# BB#11:                                # %if.then26
	callq	fdwatch_del_fd
.LBB13_12:                              # %if.end28
	movq	%rbx, %rdi
	callq	httpd_terminate
.LBB13_13:                              # %if.end29
	callq	mmc_destroy
	callq	tmr_destroy
	movq	connects(%rip), %rdi
	callq	free
	movq	throttles(%rip), %rdi
	testq	%rdi, %rdi
	je	.LBB13_15
# BB#14:                                # %if.then31
	callq	free
.LBB13_15:                              # %if.end32
	addq	$16, %rsp
	popq	%rbx
	popq	%r14
	popq	%r15
	ret
.Ltmp142:
	.size	shut_down, .Ltmp142-shut_down
	.cfi_endproc

	.align	16, 0x90
	.type	logstats,@function
logstats:                               # @logstats
	.cfi_startproc
# BB#0:                                 # %entry
	pushq	%rbx
.Ltmp145:
	.cfi_def_cfa_offset 16
	subq	$16, %rsp
.Ltmp146:
	.cfi_def_cfa_offset 32
.Ltmp147:
	.cfi_offset %rbx, -16
	movq	%rdi, %rbx
	testq	%rbx, %rbx
	jne	.LBB14_2
# BB#1:                                 # %if.then
	leaq	(%rsp), %rbx
	xorl	%esi, %esi
	movq	%rbx, %rdi
	callq	gettimeofday
.LBB14_2:                               # %if.end
	movq	(%rbx), %rax
	movq	%rax, %rdx
	subq	start_time(%rip), %rdx
	movq	%rax, %rcx
	subq	stats_time(%rip), %rcx
	movl	$1, %ebx
	cmovneq	%rcx, %rbx
	movq	%rax, stats_time(%rip)
	movl	$6, %edi
	movl	$.L.str39, %esi
	xorl	%eax, %eax
	movq	%rbx, %rcx
	callq	syslog
	testq	%rbx, %rbx
	jle	.LBB14_4
# BB#3:                                 # %if.then.i
	movq	stats_connections(%rip), %rdx
	cvtsi2ssq	%rdx, %xmm0
	cvtsi2ssq	%rbx, %xmm1
	divss	%xmm1, %xmm0
	cvtss2sd	%xmm0, %xmm0
	movl	stats_simultaneous(%rip), %ecx
	movq	stats_bytes(%rip), %r8
	cvtsi2ssq	%r8, %xmm2
	divss	%xmm1, %xmm2
	xorps	%xmm1, %xmm1
	cvtss2sd	%xmm2, %xmm1
	movl	httpd_conn_count(%rip), %r9d
	movl	$6, %edi
	movl	$.L.str40, %esi
	movb	$2, %al
	callq	syslog
.LBB14_4:                               # %thttpd_logstats.exit
	movq	$0, stats_connections(%rip)
	movq	$0, stats_bytes(%rip)
	movl	$0, stats_simultaneous(%rip)
	movq	%rbx, %rdi
	callq	httpd_logstats
	movq	%rbx, %rdi
	callq	mmc_logstats
	movq	%rbx, %rdi
	callq	fdwatch_logstats
	movq	%rbx, %rdi
	addq	$16, %rsp
	popq	%rbx
	jmp	tmr_logstats            # TAILCALL
.Ltmp148:
	.size	logstats, .Ltmp148-logstats
	.cfi_endproc

	.align	16, 0x90
	.type	linger_clear_connection,@function
linger_clear_connection:                # @linger_clear_connection
	.cfi_startproc
# BB#0:                                 # %entry
	movq	$0, 104(%rdi)
	jmp	really_clear_connection # TAILCALL
.Ltmp149:
	.size	linger_clear_connection, .Ltmp149-linger_clear_connection
	.cfi_endproc

	.align	16, 0x90
	.type	really_clear_connection,@function
really_clear_connection:                # @really_clear_connection
	.cfi_startproc
# BB#0:                                 # %entry
	pushq	%r14
.Ltmp153:
	.cfi_def_cfa_offset 16
	pushq	%rbx
.Ltmp154:
	.cfi_def_cfa_offset 24
	pushq	%rax
.Ltmp155:
	.cfi_def_cfa_offset 32
.Ltmp156:
	.cfi_offset %rbx, -24
.Ltmp157:
	.cfi_offset %r14, -16
	movq	%rsi, %r14
	movq	%rdi, %rbx
	movq	8(%rbx), %rdi
	movq	200(%rdi), %rax
	addq	%rax, stats_bytes(%rip)
	cmpl	$3, (%rbx)
	je	.LBB16_2
# BB#1:                                 # %if.then
	movl	704(%rdi), %edi
	callq	fdwatch_del_fd
	movq	8(%rbx), %rdi
.LBB16_2:                               # %if.end
	movq	%r14, %rsi
	callq	httpd_close_conn
	movl	56(%rbx), %eax
	testl	%eax, %eax
	jle	.LBB16_5
# BB#3:                                 # %for.body.lr.ph.i
	movq	throttles(%rip), %rcx
	leaq	16(%rbx), %rdx
	.align	16, 0x90
.LBB16_4:                               # %for.body.i
                                        # =>This Inner Loop Header: Depth=1
	movslq	(%rdx), %rsi
	leaq	(%rsi,%rsi,2), %rsi
	shlq	$4, %rsi
	decl	40(%rcx,%rsi)
	addq	$4, %rdx
	decl	%eax
	jne	.LBB16_4
.LBB16_5:                               # %clear_throttles.exit
	movq	104(%rbx), %rdi
	testq	%rdi, %rdi
	je	.LBB16_7
# BB#6:                                 # %if.then4
	callq	tmr_cancel
	movq	$0, 104(%rbx)
.LBB16_7:                               # %if.end7
	movl	$0, (%rbx)
	movl	first_free_connect(%rip), %eax
	movl	%eax, 4(%rbx)
	subq	connects(%rip), %rbx
	shrq	$4, %rbx
	imull	$954437177, %ebx, %eax  # imm = 0x38E38E39
	movl	%eax, first_free_connect(%rip)
	decl	num_connects(%rip)
	addq	$8, %rsp
	popq	%rbx
	popq	%r14
	ret
.Ltmp158:
	.size	really_clear_connection, .Ltmp158-really_clear_connection
	.cfi_endproc

	.align	16, 0x90
	.type	wakeup_connection,@function
wakeup_connection:                      # @wakeup_connection
	.cfi_startproc
# BB#0:                                 # %entry
	movq	%rdi, %rax
	movq	$0, 96(%rax)
	cmpl	$3, (%rax)
	jne	.LBB17_1
# BB#2:                                 # %if.then
	movl	$2, (%rax)
	movq	8(%rax), %rcx
	movl	704(%rcx), %edi
	movl	$1, %edx
	movq	%rax, %rsi
	jmp	fdwatch_add_fd          # TAILCALL
.LBB17_1:                               # %if.end
	ret
.Ltmp159:
	.size	wakeup_connection, .Ltmp159-wakeup_connection
	.cfi_endproc

	.align	16, 0x90
	.type	usage,@function
usage:                                  # @usage
	.cfi_startproc
# BB#0:                                 # %entry
	pushq	%rax
.Ltmp161:
	.cfi_def_cfa_offset 16
	movq	stderr(%rip), %rdi
	movq	argv0(%rip), %rdx
	movl	$.L.str97, %esi
	xorl	%eax, %eax
	callq	fprintf
	movl	$1, %edi
	callq	exit
.Ltmp162:
	.size	usage, .Ltmp162-usage
	.cfi_endproc

	.globl	httpd_initialize
	.align	16, 0x90
	.type	httpd_initialize,@function
httpd_initialize:                       # @httpd_initialize
	.cfi_startproc
# BB#0:                                 # %entry
	pushq	%rbp
.Ltmp170:
	.cfi_def_cfa_offset 16
	pushq	%r15
.Ltmp171:
	.cfi_def_cfa_offset 24
	pushq	%r14
.Ltmp172:
	.cfi_def_cfa_offset 32
	pushq	%r13
.Ltmp173:
	.cfi_def_cfa_offset 40
	pushq	%r12
.Ltmp174:
	.cfi_def_cfa_offset 48
	pushq	%rbx
.Ltmp175:
	.cfi_def_cfa_offset 56
	pushq	%rax
.Ltmp176:
	.cfi_def_cfa_offset 64
.Ltmp177:
	.cfi_offset %rbx, -56
.Ltmp178:
	.cfi_offset %r12, -48
.Ltmp179:
	.cfi_offset %r13, -40
.Ltmp180:
	.cfi_offset %r14, -32
.Ltmp181:
	.cfi_offset %r15, -24
.Ltmp182:
	.cfi_offset %rbp, -16
	movl	%r9d, %ebp
	movq	%r8, %r13
	movl	%ecx, %r15d
	movq	%rdx, %r14
	movq	%rsi, (%rsp)            # 8-byte Spill
	movq	%rdi, %r12
	movl	$136, %edi
	callq	malloc
	movq	%rax, %rbx
	testq	%rbx, %rbx
	je	.LBB19_1
# BB#3:                                 # %if.end
	testq	%r12, %r12
	je	.LBB19_7
# BB#4:                                 # %if.then2
	movq	%r12, %rdi
	callq	__strdup
	testq	%rax, %rax
	movq	%rax, (%rbx)
	je	.LBB19_5
# BB#6:                                 # %if.end7
	movq	%rax, 8(%rbx)
	jmp	.LBB19_12
.LBB19_1:                               # %if.then
	xorl	%ebx, %ebx
	movl	$2, %edi
	movl	$.L.str5, %esi
	jmp	.LBB19_2
.LBB19_7:                               # %if.else
	xorps	%xmm0, %xmm0
	movups	%xmm0, (%rbx)
	movl	$httpd_initialize.ghnbuf, %edi
	movl	$256, %esi              # imm = 0x100
	callq	gethostname
	testl	%eax, %eax
	js	.LBB19_8
# BB#9:                                 # %if.end14
	cmpq	$0, 8(%rbx)
	jne	.LBB19_12
# BB#10:                                # %if.end14
	movb	httpd_initialize.ghnbuf(%rip), %al
	testb	%al, %al
	je	.LBB19_12
# BB#11:                                # %if.then20
	movq	$httpd_initialize.ghnbuf, 8(%rbx)
	jmp	.LBB19_12
.LBB19_5:                               # %if.then6
	xorl	%ebx, %ebx
	movl	$2, %edi
	movl	$.L.str133, %esi
	jmp	.LBB19_2
.LBB19_8:                               # %if.end14.thread
	movb	$0, httpd_initialize.ghnbuf(%rip)
.LBB19_12:                              # %if.end24
	movw	%r15w, 16(%rbx)
	testq	%r13, %r13
	je	.LBB19_13
# BB#14:                                # %if.else30
	movzbl	(%r13), %eax
	cmpl	$47, %eax
	jne	.LBB19_16
# BB#15:
	incq	%r13
.LBB19_16:                              # %select.end
	movq	%r13, %rdi
	callq	__strdup
	testq	%rax, %rax
	movq	%rax, 24(%rbx)
	je	.LBB19_46
# BB#17:                                # %while.cond.preheader
	movl	$.L.str335, %esi
	movq	%rax, %rdi
	jmp	.LBB19_19
	.align	16, 0x90
.LBB19_18:                              # %while.body
                                        #   in Loop: Header=BB19_19 Depth=1
	leaq	1(%rax), %rdi
	addq	$2, %rax
	movq	%rax, %rsi
	callq	strcpy
	movq	24(%rbx), %rdi
	movl	$.L.str335, %esi
.LBB19_19:                              # %while.body
                                        # =>This Inner Loop Header: Depth=1
	callq	strstr
	testq	%rax, %rax
	jne	.LBB19_18
	jmp	.LBB19_20
.LBB19_13:                              # %if.then28
	movq	$0, 24(%rbx)
.LBB19_20:                              # %if.end49
	movl	%ebp, 32(%rbx)
	movl	$0, 36(%rbx)
	movq	64(%rsp), %rdi
	callq	__strdup
	movq	%rax, 40(%rbx)
	movq	72(%rsp), %rdi
	callq	__strdup
	movq	%rax, 48(%rbx)
	movl	80(%rsp), %eax
	movl	%eax, 56(%rbx)
	movq	88(%rsp), %rdi
	callq	__strdup
	testq	%rax, %rax
	movq	%rax, 64(%rbx)
	je	.LBB19_21
# BB#22:                                # %if.end62
	movq	136(%rsp), %rdi
	testq	%rdi, %rdi
	je	.LBB19_23
# BB#28:                                # %if.else67
	callq	__strdup
	testq	%rax, %rax
	movq	%rax, 112(%rbx)
	movq	144(%rsp), %rdi
	jne	.LBB19_24
# BB#29:                                # %if.then73
	xorl	%ebx, %ebx
	movl	$2, %edi
	movl	$.L.str537, %esi
	jmp	.LBB19_2
.LBB19_21:                              # %if.then61
	xorl	%ebx, %ebx
	movl	$2, %edi
	movl	$.L.str436, %esi
	jmp	.LBB19_2
.LBB19_46:                              # %if.then41
	xorl	%ebx, %ebx
	movl	$2, %edi
	movl	$.L.str234, %esi
	jmp	.LBB19_2
.LBB19_23:                              # %if.then65
	movq	$0, 112(%rbx)
	movq	144(%rsp), %rdi
.LBB19_24:                              # %if.end75
	testq	%rdi, %rdi
	je	.LBB19_25
# BB#30:                                # %if.else80
	callq	__strdup
	testq	%rax, %rax
	movq	%rax, 120(%rbx)
	jne	.LBB19_26
# BB#31:                                # %if.then86
	xorl	%ebx, %ebx
	movl	$2, %edi
	movl	$.L.str638, %esi
.LBB19_2:                               # %return
	xorl	%eax, %eax
	callq	syslog
.LBB19_45:                              # %return
	movq	%rbx, %rax
	addq	$8, %rsp
	popq	%rbx
	popq	%r12
	popq	%r13
	popq	%r14
	popq	%r15
	popq	%rbp
	ret
.LBB19_25:                              # %if.then78
	movq	$0, 120(%rbx)
.LBB19_26:                              # %httpd_set_logfp.exit
	movl	96(%rsp), %eax
	movl	%eax, 80(%rbx)
	movq	104(%rsp), %rax
	movq	%rax, 88(%rbx)
	movl	112(%rsp), %eax
	movl	%eax, 96(%rbx)
	movl	120(%rsp), %eax
	movl	%eax, 100(%rbx)
	movl	128(%rsp), %eax
	movl	%eax, 104(%rbx)
	movl	152(%rsp), %eax
	movl	%eax, 128(%rbx)
	testq	%r14, %r14
	movq	(%rsp), %r12            # 8-byte Reload
	je	.LBB19_27
# BB#32:                                # %if.else98
	movq	%r14, %rdi
	callq	initialize_listen_socket
	movl	%eax, 76(%rbx)
	jmp	.LBB19_33
.LBB19_27:                              # %if.then97
	movl	$-1, 76(%rbx)
.LBB19_33:                              # %if.end101
	testq	%r12, %r12
	je	.LBB19_34
# BB#35:                                # %if.end108
	movq	%r12, %rdi
	callq	initialize_listen_socket
	leaq	72(%rbx), %r15
	cmpl	$-1, %eax
	movl	%eax, 72(%rbx)
	jne	.LBB19_38
	jmp	.LBB19_36
.LBB19_34:                              # %if.end108.thread
	leaq	72(%rbx), %r15
	movl	$-1, 72(%rbx)
.LBB19_36:                              # %land.lhs.true
	cmpl	$-1, 76(%rbx)
	je	.LBB19_37
.LBB19_38:                              # %if.end116
	movl	$enc_tab, %edi
	movl	$3, %esi
	movl	$32, %edx
	movl	$ext_compare, %ecx
	callq	qsort
	movl	$typ_tab, %edi
	movl	$190, %esi
	movl	$32, %edx
	movl	$ext_compare, %ecx
	callq	qsort
	movq	enc_tab(%rip), %rdi
	callq	strlen
	movq	%rax, enc_tab+8(%rip)
	movq	enc_tab+16(%rip), %rdi
	callq	strlen
	movq	%rax, enc_tab+24(%rip)
	movq	enc_tab+32(%rip), %rdi
	callq	strlen
	movq	%rax, enc_tab+40(%rip)
	movq	enc_tab+48(%rip), %rdi
	callq	strlen
	movq	%rax, enc_tab+56(%rip)
	movq	enc_tab+64(%rip), %rdi
	callq	strlen
	movq	%rax, enc_tab+72(%rip)
	movq	enc_tab+80(%rip), %rdi
	callq	strlen
	movq	%rax, enc_tab+88(%rip)
	movq	$-6080, %rbp            # imm = 0xFFFFFFFFFFFFE840
	.align	16, 0x90
.LBB19_39:                              # %for.body10.i
                                        # =>This Inner Loop Header: Depth=1
	movq	typ_tab+6080(%rbp), %rdi
	callq	strlen
	movq	%rax, typ_tab+6088(%rbp)
	movq	typ_tab+6096(%rbp), %rdi
	callq	strlen
	movq	%rax, typ_tab+6104(%rbp)
	addq	$32, %rbp
	jne	.LBB19_39
# BB#40:                                # %init_mime.exit
	cmpq	$0, (%rbx)
	je	.LBB19_41
# BB#42:                                # %if.else123
	cmpl	$-1, (%r15)
	jne	.LBB19_44
# BB#43:                                # %select.mid25
	movq	%r14, %r12
.LBB19_44:                              # %select.end24
	movq	%r12, %rdi
	callq	httpd_ntoa
	movzwl	16(%rbx), %r8d
	movl	$5, %edi
	movl	$.L.str941, %esi
	movl	$.L.str840, %edx
	movl	$httpd_ntoa.str, %ecx
	xorl	%eax, %eax
	callq	syslog
	jmp	.LBB19_45
.LBB19_41:                              # %if.then120
	movzwl	16(%rbx), %ecx
	movl	$5, %edi
	movl	$.L.str739, %esi
	movl	$.L.str840, %edx
	xorl	%eax, %eax
	callq	syslog
	jmp	.LBB19_45
.LBB19_37:                              # %if.then115
	movq	%rbx, %rdi
	callq	free_httpd_server
	xorl	%ebx, %ebx
	jmp	.LBB19_45
.Ltmp183:
	.size	httpd_initialize, .Ltmp183-httpd_initialize
	.cfi_endproc

	.globl	httpd_set_logfp
	.align	16, 0x90
	.type	httpd_set_logfp,@function
httpd_set_logfp:                        # @httpd_set_logfp
	.cfi_startproc
# BB#0:                                 # %entry
	pushq	%r14
.Ltmp187:
	.cfi_def_cfa_offset 16
	pushq	%rbx
.Ltmp188:
	.cfi_def_cfa_offset 24
	pushq	%rax
.Ltmp189:
	.cfi_def_cfa_offset 32
.Ltmp190:
	.cfi_offset %rbx, -24
.Ltmp191:
	.cfi_offset %r14, -16
	movq	%rsi, %r14
	movq	%rdi, %rbx
	movq	88(%rbx), %rdi
	testq	%rdi, %rdi
	je	.LBB20_2
# BB#1:                                 # %if.then
	callq	fclose
.LBB20_2:                               # %if.end
	movq	%r14, 88(%rbx)
	addq	$8, %rsp
	popq	%rbx
	popq	%r14
	ret
.Ltmp192:
	.size	httpd_set_logfp, .Ltmp192-httpd_set_logfp
	.cfi_endproc

	.globl	httpd_ntoa
	.align	16, 0x90
	.type	httpd_ntoa,@function
httpd_ntoa:                             # @httpd_ntoa
	.cfi_startproc
# BB#0:                                 # %entry
	pushq	%rbx
.Ltmp195:
	.cfi_def_cfa_offset 16
	subq	$16, %rsp
.Ltmp196:
	.cfi_def_cfa_offset 32
.Ltmp197:
	.cfi_offset %rbx, -16
	movq	%rdi, %rbx
	movzwl	(%rbx), %eax
	movl	$16, %esi
	cmpl	$2, %eax
	je	.LBB21_4
# BB#1:                                 # %entry
	cmpl	$10, %eax
	jne	.LBB21_3
# BB#2:                                 # %sw.bb1.i
	movl	$28, %esi
	jmp	.LBB21_4
.LBB21_3:                               # %sw.default.i
	xorl	%esi, %esi
.LBB21_4:                               # %sockaddr_len.exit
	movl	$1, (%rsp)
	movl	$httpd_ntoa.str, %edx
	movl	$200, %ecx
	xorl	%r8d, %r8d
	xorl	%r9d, %r9d
	movq	%rbx, %rdi
	callq	getnameinfo
	testl	%eax, %eax
	je	.LBB21_6
# BB#5:                                 # %if.then
	movb	$63, httpd_ntoa.str(%rip)
	movb	$0, httpd_ntoa.str+1(%rip)
	jmp	.LBB21_11
.LBB21_6:                               # %if.else
	cmpl	$0, 8(%rbx)
	jne	.LBB21_11
# BB#7:                                 # %land.lhs.true
	cmpl	$0, 12(%rbx)
	jne	.LBB21_11
# BB#8:                                 # %land.rhs
	cmpl	$-65536, 16(%rbx)       # imm = 0xFFFFFFFFFFFF0000
	jne	.LBB21_11
# BB#9:                                 # %land.lhs.true18
	movl	$httpd_ntoa.str, %edi
	movl	$.L.str5698, %esi
	movl	$7, %edx
	callq	strncmp
	testl	%eax, %eax
	jne	.LBB21_11
# BB#10:                                # %if.then22
	movl	$httpd_ntoa.str, %edi
	movl	$httpd_ntoa.str+7, %esi
	callq	strcpy
.LBB21_11:                              # %if.end24
	movl	$httpd_ntoa.str, %eax
	addq	$16, %rsp
	popq	%rbx
	ret
.Ltmp198:
	.size	httpd_ntoa, .Ltmp198-httpd_ntoa
	.cfi_endproc

	.globl	httpd_terminate
	.align	16, 0x90
	.type	httpd_terminate,@function
httpd_terminate:                        # @httpd_terminate
	.cfi_startproc
# BB#0:                                 # %entry
	pushq	%rbx
.Ltmp201:
	.cfi_def_cfa_offset 16
.Ltmp202:
	.cfi_offset %rbx, -16
	movq	%rdi, %rbx
	movl	72(%rbx), %edi
	cmpl	$-1, %edi
	je	.LBB22_2
# BB#1:                                 # %if.then.i
	callq	close
	movl	$-1, 72(%rbx)
.LBB22_2:                               # %if.end.i
	movl	76(%rbx), %edi
	cmpl	$-1, %edi
	je	.LBB22_4
# BB#3:                                 # %if.then4.i
	callq	close
	movl	$-1, 76(%rbx)
.LBB22_4:                               # %httpd_unlisten.exit
	movq	88(%rbx), %rdi
	testq	%rdi, %rdi
	je	.LBB22_6
# BB#5:                                 # %if.then
	callq	fclose
.LBB22_6:                               # %if.end
	movq	%rbx, %rdi
	popq	%rbx
	jmp	free_httpd_server       # TAILCALL
.Ltmp203:
	.size	httpd_terminate, .Ltmp203-httpd_terminate
	.cfi_endproc

	.globl	httpd_unlisten
	.align	16, 0x90
	.type	httpd_unlisten,@function
httpd_unlisten:                         # @httpd_unlisten
	.cfi_startproc
# BB#0:                                 # %entry
	pushq	%rbx
.Ltmp206:
	.cfi_def_cfa_offset 16
.Ltmp207:
	.cfi_offset %rbx, -16
	movq	%rdi, %rbx
	movl	72(%rbx), %edi
	cmpl	$-1, %edi
	je	.LBB23_2
# BB#1:                                 # %if.then
	callq	close
	movl	$-1, 72(%rbx)
.LBB23_2:                               # %if.end
	movl	76(%rbx), %edi
	cmpl	$-1, %edi
	je	.LBB23_4
# BB#3:                                 # %if.then4
	callq	close
	movl	$-1, 76(%rbx)
.LBB23_4:                               # %if.end8
	popq	%rbx
	ret
.Ltmp208:
	.size	httpd_unlisten, .Ltmp208-httpd_unlisten
	.cfi_endproc

	.globl	httpd_write_response
	.align	16, 0x90
	.type	httpd_write_response,@function
httpd_write_response:                   # @httpd_write_response
	.cfi_startproc
# BB#0:                                 # %entry
	pushq	%rbp
.Ltmp216:
	.cfi_def_cfa_offset 16
	pushq	%r15
.Ltmp217:
	.cfi_def_cfa_offset 24
	pushq	%r14
.Ltmp218:
	.cfi_def_cfa_offset 32
	pushq	%r13
.Ltmp219:
	.cfi_def_cfa_offset 40
	pushq	%r12
.Ltmp220:
	.cfi_def_cfa_offset 48
	pushq	%rbx
.Ltmp221:
	.cfi_def_cfa_offset 56
	subq	$24, %rsp
.Ltmp222:
	.cfi_def_cfa_offset 80
.Ltmp223:
	.cfi_offset %rbx, -56
.Ltmp224:
	.cfi_offset %r12, -48
.Ltmp225:
	.cfi_offset %r13, -40
.Ltmp226:
	.cfi_offset %r14, -32
.Ltmp227:
	.cfi_offset %r15, -24
.Ltmp228:
	.cfi_offset %rbp, -16
	movq	%rdi, %rbp
	movzbl	sub_process(%rip), %eax
	cmpl	$1, %eax
	jne	.LBB24_4
# BB#1:                                 # %if.then
	movl	704(%rbp), %ebx
	movl	$3, %esi
	xorl	%edx, %edx
	xorl	%eax, %eax
	movl	%ebx, %edi
	callq	fcntl
	cmpl	$-1, %eax
	je	.LBB24_4
# BB#2:                                 # %if.then.i
	movl	%eax, %edx
	andl	$-2049, %edx            # imm = 0xFFFFFFFFFFFFF7FF
	cmpl	%eax, %edx
	je	.LBB24_4
# BB#3:                                 # %if.then2.i
	movl	$4, %esi
	xorl	%eax, %eax
	movl	%ebx, %edi
	callq	fcntl
.LBB24_4:                               # %if.end
	movq	472(%rbp), %r13
	testq	%r13, %r13
	je	.LBB24_14
# BB#5:                                 # %if.then1
	movl	704(%rbp), %r15d
	movq	368(%rbp), %rax
	movq	%rax, 16(%rsp)          # 8-byte Spill
	movq	%rbp, 8(%rsp)           # 8-byte Spill
	xorl	%ecx, %ecx
	xorl	%r14d, %r14d
.LBB24_7:                               # %while.body.lr.ph.i
                                        # =>This Loop Header: Depth=1
                                        #     Child Loop BB24_9 Depth 2
	movq	16(%rsp), %rax          # 8-byte Reload
	leaq	(%rax,%rcx), %r12
	movq	%r13, %rbp
	subq	%rcx, %rbp
	movl	%r15d, %edi
	movq	%r12, %rsi
	movq	%rbp, %rdx
	callq	write
	testl	%eax, %eax
	jns	.LBB24_12
# BB#8:                                 # %land.lhs.true.i.lr.ph
                                        #   in Loop: Header=BB24_7 Depth=1
	callq	__errno_location
	movq	%rax, %rbx
	.align	16, 0x90
.LBB24_9:                               # %land.lhs.true.i
                                        #   Parent Loop BB24_7 Depth=1
                                        # =>  This Inner Loop Header: Depth=2
	movl	(%rbx), %eax
	cmpl	$4, %eax
	je	.LBB24_11
# BB#10:                                # %land.lhs.true.i
                                        #   in Loop: Header=BB24_9 Depth=2
	cmpl	$11, %eax
	jne	.LBB24_13
.LBB24_11:                              # %if.then.i13
                                        #   in Loop: Header=BB24_9 Depth=2
	movl	$1, %edi
	callq	sleep
	movl	%r15d, %edi
	movq	%r12, %rsi
	movq	%rbp, %rdx
	callq	write
	testl	%eax, %eax
	js	.LBB24_9
.LBB24_12:                              # %if.end16.i
                                        #   in Loop: Header=BB24_7 Depth=1
	testl	%eax, %eax
	je	.LBB24_13
# BB#6:                                 # %while.cond.outer.i
                                        #   in Loop: Header=BB24_7 Depth=1
	addl	%r14d, %eax
	movslq	%eax, %rcx
	cmpq	%r13, %rcx
	movl	%eax, %r14d
	jb	.LBB24_7
.LBB24_13:                              # %httpd_write_fully.exit
	movq	8(%rsp), %rax           # 8-byte Reload
	movq	$0, 472(%rax)
.LBB24_14:                              # %if.end5
	addq	$24, %rsp
	popq	%rbx
	popq	%r12
	popq	%r13
	popq	%r14
	popq	%r15
	popq	%rbp
	ret
.Ltmp229:
	.size	httpd_write_response, .Ltmp229-httpd_write_response
	.cfi_endproc

	.globl	httpd_clear_ndelay
	.align	16, 0x90
	.type	httpd_clear_ndelay,@function
httpd_clear_ndelay:                     # @httpd_clear_ndelay
	.cfi_startproc
# BB#0:                                 # %entry
	pushq	%rbx
.Ltmp232:
	.cfi_def_cfa_offset 16
.Ltmp233:
	.cfi_offset %rbx, -16
	movl	%edi, %ebx
	movl	$3, %esi
	xorl	%edx, %edx
	xorl	%eax, %eax
	callq	fcntl
	cmpl	$-1, %eax
	je	.LBB25_2
# BB#1:                                 # %if.then
	movl	%eax, %edx
	andl	$-2049, %edx            # imm = 0xFFFFFFFFFFFFF7FF
	cmpl	%eax, %edx
	jne	.LBB25_3
.LBB25_2:                               # %if.end4
	popq	%rbx
	ret
.LBB25_3:                               # %if.then2
	movl	$4, %esi
	xorl	%eax, %eax
	movl	%ebx, %edi
	popq	%rbx
	jmp	fcntl                   # TAILCALL
.Ltmp234:
	.size	httpd_clear_ndelay, .Ltmp234-httpd_clear_ndelay
	.cfi_endproc

	.globl	httpd_write_fully
	.align	16, 0x90
	.type	httpd_write_fully,@function
httpd_write_fully:                      # @httpd_write_fully
	.cfi_startproc
# BB#0:                                 # %entry
	pushq	%rbp
.Ltmp242:
	.cfi_def_cfa_offset 16
	pushq	%r15
.Ltmp243:
	.cfi_def_cfa_offset 24
	pushq	%r14
.Ltmp244:
	.cfi_def_cfa_offset 32
	pushq	%r13
.Ltmp245:
	.cfi_def_cfa_offset 40
	pushq	%r12
.Ltmp246:
	.cfi_def_cfa_offset 48
	pushq	%rbx
.Ltmp247:
	.cfi_def_cfa_offset 56
	pushq	%rax
.Ltmp248:
	.cfi_def_cfa_offset 64
.Ltmp249:
	.cfi_offset %rbx, -56
.Ltmp250:
	.cfi_offset %r12, -48
.Ltmp251:
	.cfi_offset %r13, -40
.Ltmp252:
	.cfi_offset %r14, -32
.Ltmp253:
	.cfi_offset %r15, -24
.Ltmp254:
	.cfi_offset %rbp, -16
	movq	%rdx, %r15
	movq	%rsi, (%rsp)            # 8-byte Spill
	movl	%edi, %r12d
	xorl	%eax, %eax
	testq	%r15, %r15
	je	.LBB26_1
# BB#2:
	xorl	%r14d, %r14d
.LBB26_4:                               # %while.body.lr.ph
                                        # =>This Loop Header: Depth=1
                                        #     Child Loop BB26_5 Depth 2
	movq	(%rsp), %rcx            # 8-byte Reload
	leaq	(%rcx,%rax), %r13
	movq	%r15, %rbp
	subq	%rax, %rbp
	jmp	.LBB26_5
	.align	16, 0x90
.LBB26_8:                               # %if.then
                                        #   in Loop: Header=BB26_5 Depth=2
	movl	$1, %edi
	callq	sleep
.LBB26_5:                               # %while.body
                                        #   Parent Loop BB26_4 Depth=1
                                        # =>  This Inner Loop Header: Depth=2
	movl	%r12d, %edi
	movq	%r13, %rsi
	movq	%rbp, %rdx
	callq	write
	movq	%rax, %rbx
	testl	%ebx, %ebx
	jns	.LBB26_9
# BB#6:                                 # %land.lhs.true
                                        #   in Loop: Header=BB26_5 Depth=2
	callq	__errno_location
	movl	(%rax), %eax
	cmpl	$4, %eax
	je	.LBB26_8
# BB#7:                                 # %land.lhs.true
                                        #   in Loop: Header=BB26_5 Depth=2
	cmpl	$11, %eax
	je	.LBB26_8
	jmp	.LBB26_11
	.align	16, 0x90
.LBB26_9:                               # %if.end16
                                        #   in Loop: Header=BB26_4 Depth=1
	testl	%ebx, %ebx
	je	.LBB26_10
# BB#3:                                 # %while.cond.outer
                                        #   in Loop: Header=BB26_4 Depth=1
	addl	%r14d, %ebx
	movslq	%ebx, %rax
	cmpq	%r15, %rax
	movl	%ebx, %r14d
	jb	.LBB26_4
	jmp	.LBB26_11
.LBB26_1:
	xorl	%ebx, %ebx
.LBB26_11:                              # %return
	movl	%ebx, %eax
	addq	$8, %rsp
	popq	%rbx
	popq	%r12
	popq	%r13
	popq	%r14
	popq	%r15
	popq	%rbp
	ret
.LBB26_10:
	movl	%r14d, %ebx
	jmp	.LBB26_11
.Ltmp255:
	.size	httpd_write_fully, .Ltmp255-httpd_write_fully
	.cfi_endproc

	.globl	httpd_set_ndelay
	.align	16, 0x90
	.type	httpd_set_ndelay,@function
httpd_set_ndelay:                       # @httpd_set_ndelay
	.cfi_startproc
# BB#0:                                 # %entry
	pushq	%rbx
.Ltmp258:
	.cfi_def_cfa_offset 16
.Ltmp259:
	.cfi_offset %rbx, -16
	movl	%edi, %ebx
	movl	$3, %esi
	xorl	%edx, %edx
	xorl	%eax, %eax
	callq	fcntl
	cmpl	$-1, %eax
	je	.LBB27_2
# BB#1:                                 # %if.then
	movl	%eax, %edx
	orl	$2048, %edx             # imm = 0x800
	cmpl	%eax, %edx
	jne	.LBB27_3
.LBB27_2:                               # %if.end4
	popq	%rbx
	ret
.LBB27_3:                               # %if.then2
	movl	$4, %esi
	xorl	%eax, %eax
	movl	%ebx, %edi
	popq	%rbx
	jmp	fcntl                   # TAILCALL
.Ltmp260:
	.size	httpd_set_ndelay, .Ltmp260-httpd_set_ndelay
	.cfi_endproc

	.globl	httpd_realloc_str
	.align	16, 0x90
	.type	httpd_realloc_str,@function
httpd_realloc_str:                      # @httpd_realloc_str
	.cfi_startproc
# BB#0:                                 # %entry
	pushq	%r15
.Ltmp265:
	.cfi_def_cfa_offset 16
	pushq	%r14
.Ltmp266:
	.cfi_def_cfa_offset 24
	pushq	%rbx
.Ltmp267:
	.cfi_def_cfa_offset 32
.Ltmp268:
	.cfi_offset %rbx, -32
.Ltmp269:
	.cfi_offset %r14, -24
.Ltmp270:
	.cfi_offset %r15, -16
	movq	%rsi, %r15
	movq	%rdi, %r14
	movq	(%r15), %rax
	testq	%rax, %rax
	je	.LBB28_1
# BB#2:                                 # %if.else
	cmpq	%rdx, %rax
	jae	.LBB28_5
# BB#3:                                 # %if.then6
	subq	%rax, str_alloc_size(%rip)
	movq	(%r15), %rax
	addq	%rax, %rax
	leaq	(%rdx,%rdx,4), %rsi
	shrq	$2, %rsi
	cmpq	%rsi, %rax
	cmovaq	%rax, %rsi
	movq	%rsi, (%r15)
	movq	(%r14), %rdi
	incq	%rsi
	callq	realloc
	movq	%rax, (%r14)
	movq	str_alloc_size(%rip), %rbx
	addq	(%r15), %rbx
	jmp	.LBB28_4
.LBB28_1:                               # %if.then
	addq	$100, %rdx
	cmpq	$200, %rdx
	movl	$200, %ebx
	cmovaeq	%rdx, %rbx
	movq	%rbx, (%r15)
	leaq	1(%rbx), %rdi
	callq	malloc
	movq	%rax, (%r14)
	incl	str_alloc_count(%rip)
	addq	str_alloc_size(%rip), %rbx
.LBB28_4:                               # %if.end22
	movq	%rbx, str_alloc_size(%rip)
	testq	%rax, %rax
	je	.LBB28_6
.LBB28_5:                               # %if.end25
	popq	%rbx
	popq	%r14
	popq	%r15
	ret
.LBB28_6:                               # %if.then24
	movq	(%r15), %rcx
	movl	$3, %edi
	movl	$.L.str1659, %esi
	xorl	%eax, %eax
	movq	%rcx, %rdx
	callq	syslog
	movl	$1, %edi
	callq	exit
.Ltmp271:
	.size	httpd_realloc_str, .Ltmp271-httpd_realloc_str
	.cfi_endproc

	.globl	httpd_send_err
	.align	16, 0x90
	.type	httpd_send_err,@function
httpd_send_err:                         # @httpd_send_err
	.cfi_startproc
# BB#0:                                 # %entry
	pushq	%rbp
.Ltmp279:
	.cfi_def_cfa_offset 16
	pushq	%r15
.Ltmp280:
	.cfi_def_cfa_offset 24
	pushq	%r14
.Ltmp281:
	.cfi_def_cfa_offset 32
	pushq	%r13
.Ltmp282:
	.cfi_def_cfa_offset 40
	pushq	%r12
.Ltmp283:
	.cfi_def_cfa_offset 48
	pushq	%rbx
.Ltmp284:
	.cfi_def_cfa_offset 56
	subq	$1016, %rsp             # imm = 0x3F8
.Ltmp285:
	.cfi_def_cfa_offset 1072
.Ltmp286:
	.cfi_offset %rbx, -56
.Ltmp287:
	.cfi_offset %r12, -48
.Ltmp288:
	.cfi_offset %r13, -40
.Ltmp289:
	.cfi_offset %r14, -32
.Ltmp290:
	.cfi_offset %r15, -24
.Ltmp291:
	.cfi_offset %rbp, -16
	movq	%r9, 8(%rsp)            # 8-byte Spill
	movq	%r8, %r15
	movq	%rcx, %r12
	movq	%rdx, %r13
	movl	%esi, %ebp
	movq	%rdi, %rbx
	movq	8(%rbx), %rax
	cmpl	$0, 100(%rax)
	je	.LBB29_3
# BB#1:                                 # %land.lhs.true
	movq	344(%rbx), %rcx
	cmpb	$0, (%rcx)
	je	.LBB29_3
# BB#2:                                 # %if.then
	leaq	16(%rsp), %r14
	movl	$1000, %esi             # imm = 0x3E8
	movl	$.L.str1760, %edx
	movl	$.L.str1861, %r8d
	xorl	%eax, %eax
	movq	%r14, %rdi
	movl	%ebp, %r9d
	callq	my_snprintf
	movq	%rbx, %rdi
	movl	%ebp, %esi
	movq	%r13, %rdx
	movq	%r12, %rcx
	movq	%r14, %r8
	callq	send_err_file
	testl	%eax, %eax
	jne	.LBB29_5
.LBB29_3:                               # %if.end7
	leaq	16(%rsp), %r14
	movl	$1000, %esi             # imm = 0x3E8
	movl	$.L.str1962, %edx
	movl	$.L.str1861, %ecx
	xorl	%eax, %eax
	movq	%r14, %rdi
	movl	%ebp, %r8d
	callq	my_snprintf
	movq	%rbx, %rdi
	movl	%ebp, %esi
	movq	%r13, %rdx
	movq	%r12, %rcx
	movq	%r14, %r8
	callq	send_err_file
	testl	%eax, %eax
	jne	.LBB29_5
# BB#4:                                 # %if.end14
	movq	%rbx, %rdi
	movl	%ebp, %esi
	movq	%r13, %rdx
	movq	%r12, %rcx
	movq	%r15, %r8
	movq	8(%rsp), %r9            # 8-byte Reload
	callq	send_response
.LBB29_5:                               # %cleanup
	addq	$1016, %rsp             # imm = 0x3F8
	popq	%rbx
	popq	%r12
	popq	%r13
	popq	%r14
	popq	%r15
	popq	%rbp
	ret
.Ltmp292:
	.size	httpd_send_err, .Ltmp292-httpd_send_err
	.cfi_endproc

	.globl	httpd_method_str
	.align	16, 0x90
	.type	httpd_method_str,@function
httpd_method_str:                       # @httpd_method_str
	.cfi_startproc
# BB#0:                                 # %entry
	movl	$.L.str2063, %eax
	cmpl	$1, %edi
	je	.LBB30_6
# BB#1:                                 # %entry
	cmpl	$3, %edi
	jne	.LBB30_2
# BB#4:                                 # %sw.bb2
	movl	$.L.str2265, %eax
	ret
.LBB30_2:                               # %entry
	cmpl	$2, %edi
	jne	.LBB30_5
# BB#3:                                 # %sw.bb1
	movl	$.L.str2164, %eax
	ret
.LBB30_5:                               # %sw.default
	movl	$.L.str2366, %eax
.LBB30_6:                               # %return
	ret
.Ltmp293:
	.size	httpd_method_str, .Ltmp293-httpd_method_str
	.cfi_endproc

	.globl	httpd_get_conn
	.align	16, 0x90
	.type	httpd_get_conn,@function
httpd_get_conn:                         # @httpd_get_conn
	.cfi_startproc
# BB#0:                                 # %entry
	pushq	%rbp
.Ltmp301:
	.cfi_def_cfa_offset 16
	pushq	%r15
.Ltmp302:
	.cfi_def_cfa_offset 24
	pushq	%r14
.Ltmp303:
	.cfi_def_cfa_offset 32
	pushq	%r13
.Ltmp304:
	.cfi_def_cfa_offset 40
	pushq	%r12
.Ltmp305:
	.cfi_def_cfa_offset 48
	pushq	%rbx
.Ltmp306:
	.cfi_def_cfa_offset 56
	subq	$200, %rsp
.Ltmp307:
	.cfi_def_cfa_offset 256
.Ltmp308:
	.cfi_offset %rbx, -56
.Ltmp309:
	.cfi_offset %r12, -48
.Ltmp310:
	.cfi_offset %r13, -40
.Ltmp311:
	.cfi_offset %r14, -32
.Ltmp312:
	.cfi_offset %r15, -24
.Ltmp313:
	.cfi_offset %rbp, -16
	movq	%rdx, %rbx
	movl	%esi, %r12d
	movq	%rdi, %rbp
	cmpl	$0, (%rbx)
	jne	.LBB31_2
# BB#1:                                 # %if.then
	leaq	152(%rbx), %rsi
	movq	$0, 152(%rbx)
	leaq	144(%rbx), %rdi
	movl	$500, %edx              # imm = 0x1F4
	callq	httpd_realloc_str
	leaq	464(%rbx), %rax
	movq	%rax, 56(%rsp)          # 8-byte Spill
	leaq	456(%rbx), %rax
	movq	%rax, 48(%rsp)          # 8-byte Spill
	leaq	448(%rbx), %rax
	movq	%rax, 40(%rsp)          # 8-byte Spill
	leaq	440(%rbx), %rax
	movq	%rax, 32(%rsp)          # 8-byte Spill
	leaq	432(%rbx), %rax
	movq	%rax, 24(%rsp)          # 8-byte Spill
	leaq	424(%rbx), %rax
	movq	%rax, 16(%rsp)          # 8-byte Spill
	leaq	416(%rbx), %rax
	movq	%rax, 8(%rsp)           # 8-byte Spill
	leaq	408(%rbx), %rax
	movq	%rax, (%rsp)            # 8-byte Spill
	leaq	400(%rbx), %r14
	leaq	392(%rbx), %r13
	leaq	384(%rbx), %r15
	leaq	376(%rbx), %rsi
	leaq	216(%rbx), %rdi
	xorps	%xmm0, %xmm0
	movups	%xmm0, 456(%rbx)
	movups	%xmm0, 440(%rbx)
	movups	%xmm0, 424(%rbx)
	movups	%xmm0, 408(%rbx)
	movups	%xmm0, 392(%rbx)
	movups	%xmm0, 376(%rbx)
	movl	$1, %edx
	callq	httpd_realloc_str
	leaq	232(%rbx), %rdi
	movl	$1, %edx
	movq	%r15, %rsi
	callq	httpd_realloc_str
	leaq	240(%rbx), %rdi
	xorl	%edx, %edx
	movq	%r13, %rsi
	callq	httpd_realloc_str
	leaq	248(%rbx), %rdi
	xorl	%edx, %edx
	movq	%r14, %rsi
	callq	httpd_realloc_str
	leaq	256(%rbx), %rdi
	xorl	%edx, %edx
	movq	(%rsp), %rsi            # 8-byte Reload
	callq	httpd_realloc_str
	leaq	264(%rbx), %rdi
	xorl	%edx, %edx
	movq	8(%rsp), %rsi           # 8-byte Reload
	callq	httpd_realloc_str
	leaq	288(%rbx), %rdi
	xorl	%edx, %edx
	movq	16(%rsp), %rsi          # 8-byte Reload
	callq	httpd_realloc_str
	leaq	296(%rbx), %rdi
	xorl	%edx, %edx
	movq	24(%rsp), %rsi          # 8-byte Reload
	callq	httpd_realloc_str
	leaq	328(%rbx), %rdi
	xorl	%edx, %edx
	movq	32(%rsp), %rsi          # 8-byte Reload
	callq	httpd_realloc_str
	leaq	344(%rbx), %rdi
	xorl	%edx, %edx
	movq	40(%rsp), %rsi          # 8-byte Reload
	callq	httpd_realloc_str
	leaq	360(%rbx), %rdi
	xorl	%edx, %edx
	movq	48(%rsp), %rsi          # 8-byte Reload
	callq	httpd_realloc_str
	leaq	368(%rbx), %rdi
	xorl	%edx, %edx
	movq	56(%rsp), %rsi          # 8-byte Reload
	callq	httpd_realloc_str
	movl	$1, (%rbx)
.LBB31_2:                               # %if.end
	movl	$128, 68(%rsp)
	leaq	72(%rsp), %rsi
	leaq	68(%rsp), %rdx
	movl	%r12d, %edi
	callq	accept
	movl	%eax, %ecx
	testl	%ecx, %ecx
	movl	%ecx, 704(%rbx)
	js	.LBB31_3
# BB#5:                                 # %if.end22
	movzwl	72(%rsp), %eax
	orl	$8, %eax
	cmpl	$10, %eax
	jne	.LBB31_6
# BB#7:                                 # %if.end29
	movl	$1, %r14d
	movl	$2, %esi
	movl	$1, %edx
	xorl	%eax, %eax
	movl	%ecx, %edi
	callq	fcntl
	movq	%rbp, 8(%rbx)
	xorps	%xmm0, %xmm0
	movups	%xmm0, 128(%rbx)
	movups	%xmm0, 112(%rbx)
	movups	%xmm0, 96(%rbx)
	movups	%xmm0, 80(%rbx)
	movups	%xmm0, 64(%rbx)
	movups	%xmm0, 48(%rbx)
	movups	%xmm0, 32(%rbx)
	movups	%xmm0, 16(%rbx)
	movl	$16, %edx
	movzwl	72(%rsp), %eax
	cmpl	$2, %eax
	je	.LBB31_11
# BB#8:                                 # %if.end29
	cmpl	$10, %eax
	jne	.LBB31_10
# BB#9:                                 # %sw.bb1.i
	movl	$28, %edx
	jmp	.LBB31_11
.LBB31_3:                               # %if.then17
	callq	__errno_location
	cmpl	$11, (%rax)
	movl	$2, %r14d
	je	.LBB31_12
# BB#4:                                 # %if.end21
	xorl	%r14d, %r14d
	movl	$3, %edi
	movl	$.L.str2467, %esi
	xorl	%eax, %eax
	callq	syslog
	jmp	.LBB31_12
.LBB31_6:                               # %if.then25
	xorl	%r14d, %r14d
	movl	$3, %edi
	movl	$.L.str2568, %esi
	xorl	%eax, %eax
	callq	syslog
	movl	704(%rbx), %edi
	callq	close
	movl	$-1, 704(%rbx)
	jmp	.LBB31_12
.LBB31_10:                              # %sw.default.i151
	xorl	%edx, %edx
.LBB31_11:                              # %sockaddr_len.exit
	leaq	16(%rbx), %rdi
	leaq	72(%rsp), %rsi
	callq	memcpy
	xorps	%xmm0, %xmm0
	movups	%xmm0, 172(%rbx)
	movups	%xmm0, 160(%rbx)
	movups	%xmm0, 192(%rbx)
	movq	$.L.str2669, 208(%rbx)
	movq	216(%rbx), %rax
	movb	$0, (%rax)
	movq	$.L.str2366, 224(%rbx)
	movq	232(%rbx), %rax
	movb	$0, (%rax)
	movq	240(%rbx), %rax
	movb	$0, (%rax)
	movq	248(%rbx), %rax
	movb	$0, (%rax)
	movq	256(%rbx), %rax
	movb	$0, (%rax)
	movq	264(%rbx), %rax
	movb	$0, (%rax)
	movq	$.L.str2669, 272(%rbx)
	movq	$.L.str2669, 280(%rbx)
	movq	288(%rbx), %rax
	movb	$0, (%rax)
	movq	296(%rbx), %rax
	movb	$0, (%rax)
	movq	$.L.str2669, 304(%rbx)
	movq	$.L.str2669, 312(%rbx)
	movq	$.L.str2669, 320(%rbx)
	movq	328(%rbx), %rax
	movb	$0, (%rax)
	movq	$.L.str2669, 336(%rbx)
	movq	344(%rbx), %rax
	movb	$0, (%rax)
	movq	$.L.str2669, 352(%rbx)
	movq	360(%rbx), %rax
	movb	$0, (%rax)
	movq	368(%rbx), %rax
	movb	$0, (%rax)
	movq	$0, 472(%rbx)
	movq	$-1, 496(%rbx)
	movq	$-1, 488(%rbx)
	movq	$-1, 480(%rbx)
	movq	$.L.str2669, 504(%rbx)
	movq	$0, 512(%rbx)
	movl	$1, 520(%rbx)
	movups	%xmm0, 524(%rbx)
	movl	$0, 540(%rbx)
	movq	$-1, 544(%rbx)
	movl	$0, 552(%rbx)
	movl	$0, 556(%rbx)
	movq	$0, 712(%rbx)
.LBB31_12:                              # %cleanup
	movl	%r14d, %eax
	addq	$200, %rsp
	popq	%rbx
	popq	%r12
	popq	%r13
	popq	%r14
	popq	%r15
	popq	%rbp
	ret
.Ltmp314:
	.size	httpd_get_conn, .Ltmp314-httpd_get_conn
	.cfi_endproc

	.globl	httpd_got_request
	.align	16, 0x90
	.type	httpd_got_request,@function
httpd_got_request:                      # @httpd_got_request
	.cfi_startproc
# BB#0:                                 # %entry
	movq	160(%rdi), %r9
	movq	168(%rdi), %rdx
	cmpq	%r9, %rdx
	jae	.LBB32_59
# BB#1:                                 # %for.body.lr.ph
	movq	144(%rdi), %r8
	movl	176(%rdi), %r10d
	.align	16, 0x90
.LBB32_2:                               # %for.body
                                        # =>This Inner Loop Header: Depth=1
	movl	%r10d, %esi
	cmpl	$11, %r10d
	ja	.LBB32_58
# BB#3:                                 # %for.body
                                        #   in Loop: Header=BB32_2 Depth=1
	movsbl	(%r8,%rdx), %ecx
	movl	$2, %eax
	jmpq	*.LJTI32_0(,%rsi,8)
.LBB32_4:                               # %sw.bb
                                        #   in Loop: Header=BB32_2 Depth=1
	xorl	%r10d, %r10d
	cmpl	$31, %ecx
	jg	.LBB32_9
# BB#5:                                 # %sw.bb
                                        #   in Loop: Header=BB32_2 Depth=1
	cmpl	$9, %ecx
	je	.LBB32_10
# BB#6:                                 # %sw.bb
                                        #   in Loop: Header=BB32_2 Depth=1
	cmpl	$10, %ecx
	je	.LBB32_8
# BB#7:                                 # %sw.bb
                                        #   in Loop: Header=BB32_2 Depth=1
	cmpl	$13, %ecx
	jne	.LBB32_58
	jmp	.LBB32_8
.LBB32_11:                              # %sw.bb6
                                        #   in Loop: Header=BB32_2 Depth=1
	movl	$1, %r10d
	cmpl	$31, %ecx
	jg	.LBB32_16
# BB#12:                                # %sw.bb6
                                        #   in Loop: Header=BB32_2 Depth=1
	cmpl	$9, %ecx
	je	.LBB32_58
# BB#13:                                # %sw.bb6
                                        #   in Loop: Header=BB32_2 Depth=1
	cmpl	$10, %ecx
	je	.LBB32_15
# BB#14:                                # %sw.bb6
                                        #   in Loop: Header=BB32_2 Depth=1
	cmpl	$13, %ecx
	jne	.LBB32_17
	jmp	.LBB32_15
.LBB32_18:                              # %sw.bb13
                                        #   in Loop: Header=BB32_2 Depth=1
	movl	$2, %r10d
	cmpl	$31, %ecx
	jg	.LBB32_22
# BB#19:                                # %sw.bb13
                                        #   in Loop: Header=BB32_2 Depth=1
	cmpl	$9, %ecx
	je	.LBB32_23
# BB#20:                                # %sw.bb13
                                        #   in Loop: Header=BB32_2 Depth=1
	movl	$1, %eax
	cmpl	$10, %ecx
	je	.LBB32_60
# BB#21:                                # %sw.bb13
                                        #   in Loop: Header=BB32_2 Depth=1
	cmpl	$13, %ecx
	jne	.LBB32_58
	jmp	.LBB32_60
.LBB32_24:                              # %sw.bb19
                                        #   in Loop: Header=BB32_2 Depth=1
	movl	$3, %r10d
	cmpl	$31, %ecx
	jg	.LBB32_29
# BB#25:                                # %sw.bb19
                                        #   in Loop: Header=BB32_2 Depth=1
	cmpl	$9, %ecx
	je	.LBB32_58
# BB#26:                                # %sw.bb19
                                        #   in Loop: Header=BB32_2 Depth=1
	cmpl	$10, %ecx
	je	.LBB32_28
# BB#27:                                # %sw.bb19
                                        #   in Loop: Header=BB32_2 Depth=1
	cmpl	$13, %ecx
	jne	.LBB32_30
	jmp	.LBB32_28
.LBB32_31:                              # %sw.bb27
                                        #   in Loop: Header=BB32_2 Depth=1
	movl	$4, %r10d
	cmpl	$31, %ecx
	jg	.LBB32_36
# BB#32:                                # %sw.bb27
                                        #   in Loop: Header=BB32_2 Depth=1
	cmpl	$9, %ecx
	je	.LBB32_37
# BB#33:                                # %sw.bb27
                                        #   in Loop: Header=BB32_2 Depth=1
	cmpl	$10, %ecx
	je	.LBB32_46
# BB#34:                                # %sw.bb27
                                        #   in Loop: Header=BB32_2 Depth=1
	cmpl	$13, %ecx
	jne	.LBB32_58
	jmp	.LBB32_35
.LBB32_38:                              # %sw.bb36
                                        #   in Loop: Header=BB32_2 Depth=1
	movl	$5, %r10d
	cmpl	$31, %ecx
	jg	.LBB32_42
# BB#39:                                # %sw.bb36
                                        #   in Loop: Header=BB32_2 Depth=1
	cmpl	$9, %ecx
	je	.LBB32_58
# BB#40:                                # %sw.bb36
                                        #   in Loop: Header=BB32_2 Depth=1
	cmpl	$10, %ecx
	je	.LBB32_46
# BB#41:                                # %sw.bb36
                                        #   in Loop: Header=BB32_2 Depth=1
	cmpl	$13, %ecx
	je	.LBB32_35
	jmp	.LBB32_43
.LBB32_44:                              # %sw.bb46
                                        #   in Loop: Header=BB32_2 Depth=1
	cmpl	$13, %ecx
	je	.LBB32_35
# BB#45:                                # %sw.bb46
                                        #   in Loop: Header=BB32_2 Depth=1
	movl	$6, %r10d
	cmpl	$10, %ecx
	jne	.LBB32_58
.LBB32_46:                              # %sw.bb31
                                        #   in Loop: Header=BB32_2 Depth=1
	movl	$7, 176(%rdi)
	movl	$7, %r10d
	jmp	.LBB32_58
.LBB32_47:                              # %sw.bb53
                                        #   in Loop: Header=BB32_2 Depth=1
	cmpl	$10, %ecx
	movl	$1, %eax
	je	.LBB32_60
# BB#48:                                # %sw.bb53
                                        #   in Loop: Header=BB32_2 Depth=1
	cmpl	$13, %ecx
	jne	.LBB32_57
.LBB32_35:                              # %sw.bb33
                                        #   in Loop: Header=BB32_2 Depth=1
	movl	$8, 176(%rdi)
	movl	$8, %r10d
	jmp	.LBB32_58
.LBB32_49:                              # %sw.bb61
                                        #   in Loop: Header=BB32_2 Depth=1
	cmpl	$13, %ecx
	movl	$1, %eax
	je	.LBB32_60
# BB#50:                                # %sw.bb61
                                        #   in Loop: Header=BB32_2 Depth=1
	cmpl	$10, %ecx
	jne	.LBB32_57
# BB#51:                                # %sw.bb63
                                        #   in Loop: Header=BB32_2 Depth=1
	movl	$9, 176(%rdi)
	movl	$9, %r10d
	jmp	.LBB32_58
.LBB32_52:                              # %sw.bb69
                                        #   in Loop: Header=BB32_2 Depth=1
	cmpl	$10, %ecx
	movl	$1, %eax
	je	.LBB32_60
# BB#53:                                # %sw.bb69
                                        #   in Loop: Header=BB32_2 Depth=1
	cmpl	$13, %ecx
	jne	.LBB32_57
# BB#54:                                # %sw.bb72
                                        #   in Loop: Header=BB32_2 Depth=1
	movl	$10, 176(%rdi)
	movl	$10, %r10d
	jmp	.LBB32_58
.LBB32_55:                              # %sw.bb77
                                        #   in Loop: Header=BB32_2 Depth=1
	cmpl	$10, %ecx
	movl	$1, %eax
	je	.LBB32_60
# BB#56:                                # %sw.bb77
                                        #   in Loop: Header=BB32_2 Depth=1
	cmpl	$13, %ecx
	je	.LBB32_60
.LBB32_57:                              # %sw.default80
                                        #   in Loop: Header=BB32_2 Depth=1
	movl	$6, 176(%rdi)
	movl	$6, %r10d
	jmp	.LBB32_58
.LBB32_9:                               # %sw.bb
                                        #   in Loop: Header=BB32_2 Depth=1
	cmpl	$32, %ecx
	jne	.LBB32_58
.LBB32_10:                              # %sw.bb2
                                        #   in Loop: Header=BB32_2 Depth=1
	movl	$1, 176(%rdi)
	movl	$1, %r10d
	jmp	.LBB32_58
.LBB32_16:                              # %sw.bb6
                                        #   in Loop: Header=BB32_2 Depth=1
	cmpl	$32, %ecx
	je	.LBB32_58
.LBB32_17:                              # %sw.default
                                        #   in Loop: Header=BB32_2 Depth=1
	movl	$2, 176(%rdi)
	movl	$2, %r10d
	jmp	.LBB32_58
.LBB32_22:                              # %sw.bb13
                                        #   in Loop: Header=BB32_2 Depth=1
	cmpl	$32, %ecx
	jne	.LBB32_58
.LBB32_23:                              # %sw.bb15
                                        #   in Loop: Header=BB32_2 Depth=1
	movl	$3, 176(%rdi)
	movl	$3, %r10d
	jmp	.LBB32_58
.LBB32_29:                              # %sw.bb19
                                        #   in Loop: Header=BB32_2 Depth=1
	cmpl	$32, %ecx
	je	.LBB32_58
.LBB32_30:                              # %sw.default24
                                        #   in Loop: Header=BB32_2 Depth=1
	movl	$4, 176(%rdi)
	movl	$4, %r10d
	jmp	.LBB32_58
.LBB32_36:                              # %sw.bb27
                                        #   in Loop: Header=BB32_2 Depth=1
	cmpl	$32, %ecx
	jne	.LBB32_58
.LBB32_37:                              # %sw.bb29
                                        #   in Loop: Header=BB32_2 Depth=1
	movl	$5, 176(%rdi)
	movl	$5, %r10d
	jmp	.LBB32_58
.LBB32_42:                              # %sw.bb36
                                        #   in Loop: Header=BB32_2 Depth=1
	cmpl	$32, %ecx
	jne	.LBB32_43
	.align	16, 0x90
.LBB32_58:                              # %for.inc
                                        #   in Loop: Header=BB32_2 Depth=1
	incq	%rdx
	cmpq	%r9, %rdx
	movq	%rdx, 168(%rdi)
	jb	.LBB32_2
.LBB32_59:
	xorl	%eax, %eax
.LBB32_60:                              # %return
	ret
.LBB32_43:                              # %sw.default43
	movl	$11, 176(%rdi)
	ret
.LBB32_8:                               # %sw.bb4
	movl	$11, 176(%rdi)
	ret
.LBB32_15:                              # %sw.bb9
	movl	$11, 176(%rdi)
	ret
.LBB32_28:                              # %sw.bb22
	movl	$11, 176(%rdi)
	ret
.Ltmp315:
	.size	httpd_got_request, .Ltmp315-httpd_got_request
	.cfi_endproc
	.section	.rodata,"a",@progbits
	.align	8
.LJTI32_0:
	.quad	.LBB32_4
	.quad	.LBB32_11
	.quad	.LBB32_18
	.quad	.LBB32_24
	.quad	.LBB32_31
	.quad	.LBB32_38
	.quad	.LBB32_44
	.quad	.LBB32_47
	.quad	.LBB32_49
	.quad	.LBB32_52
	.quad	.LBB32_55
	.quad	.LBB32_60

	.text
	.globl	httpd_parse_request
	.align	16, 0x90
	.type	httpd_parse_request,@function
httpd_parse_request:                    # @httpd_parse_request
	.cfi_startproc
# BB#0:                                 # %entry
	pushq	%rbp
.Ltmp323:
	.cfi_def_cfa_offset 16
	pushq	%r15
.Ltmp324:
	.cfi_def_cfa_offset 24
	pushq	%r14
.Ltmp325:
	.cfi_def_cfa_offset 32
	pushq	%r13
.Ltmp326:
	.cfi_def_cfa_offset 40
	pushq	%r12
.Ltmp327:
	.cfi_def_cfa_offset 48
	pushq	%rbx
.Ltmp328:
	.cfi_def_cfa_offset 56
	subq	$184, %rsp
.Ltmp329:
	.cfi_def_cfa_offset 240
.Ltmp330:
	.cfi_offset %rbx, -56
.Ltmp331:
	.cfi_offset %r12, -48
.Ltmp332:
	.cfi_offset %r13, -40
.Ltmp333:
	.cfi_offset %r14, -32
.Ltmp334:
	.cfi_offset %r15, -24
.Ltmp335:
	.cfi_offset %rbp, -16
	movq	%rdi, %rbx
	movq	$0, 168(%rbx)
	movq	160(%rbx), %rax
	xorl	%r14d, %r14d
	testq	%rax, %rax
	je	.LBB33_10
# BB#1:                                 # %for.body.lr.ph.i
	movq	144(%rbx), %rcx
	xorl	%r14d, %r14d
	xorl	%edx, %edx
.LBB33_2:                               # %for.body.i
                                        # =>This Inner Loop Header: Depth=1
	movzbl	(%rcx,%rdx), %esi
	cmpl	$10, %esi
	je	.LBB33_4
# BB#3:                                 # %for.body.i
                                        #   in Loop: Header=BB33_2 Depth=1
	movzbl	%sil, %edi
	cmpl	$13, %edi
	je	.LBB33_4
# BB#9:                                 # %for.inc.i
                                        #   in Loop: Header=BB33_2 Depth=1
	incq	%rdx
	cmpq	%rax, %rdx
	movq	%rdx, 168(%rbx)
	jb	.LBB33_2
	jmp	.LBB33_10
.LBB33_4:                               # %if.then.i
	movb	$0, (%rcx,%rdx)
	movq	168(%rbx), %rax
	incq	%rax
	movq	%rax, 168(%rbx)
	movzbl	%sil, %ecx
	cmpl	$13, %ecx
	jne	.LBB33_8
# BB#5:                                 # %land.lhs.true.i
	cmpq	160(%rbx), %rax
	jae	.LBB33_8
# BB#6:                                 # %land.lhs.true21.i
	movq	144(%rbx), %rcx
	movzbl	(%rcx,%rax), %edx
	cmpl	$10, %edx
	jne	.LBB33_8
# BB#7:                                 # %if.then28.i
	movb	$0, (%rcx,%rax)
	incq	168(%rbx)
.LBB33_8:                               # %if.end.i
	movq	144(%rbx), %r14
.LBB33_10:                              # %bufgets.exit
	movl	$.L.str2770, %esi
	movq	%r14, %rdi
	callq	strpbrk
	movq	%rax, %rbp
	testq	%rbp, %rbp
	je	.LBB33_11
# BB#12:                                # %if.end
	movq	%rbx, %r15
	leaq	1(%rbp), %rdi
	movb	$0, (%rbp)
	movl	$.L.str2770, %esi
	callq	strspn
	movq	%rax, 32(%rsp)          # 8-byte Spill
	leaq	1(%rax,%rbp), %r12
	movl	$.L.str2770, %esi
	movq	%r12, %rdi
	callq	strpbrk
	movq	%rax, %r13
	testq	%r13, %r13
	je	.LBB33_13
# BB#14:                                # %if.else
	leaq	1(%r13), %rdi
	movb	$0, (%r13)
	movl	$.L.str2770, %esi
	callq	strspn
	leaq	1(%rax,%r13), %rbx
	cmpb	$0, 1(%rax,%r13)
	je	.LBB33_15
# BB#16:                                # %cond.false235
	movl	$.L.str2770, %esi
	movq	%rbx, %rdi
	callq	strpbrk
	testq	%rax, %rax
	je	.LBB33_18
# BB#17:                                # %if.then251
	movb	$0, (%rax)
.LBB33_18:                              # %if.end252
	movl	$.L.str2972, %esi
	movq	%rbx, %rdi
	callq	strcasecmp
	testl	%eax, %eax
	movq	%r15, %r13
	je	.LBB33_20
# BB#19:                                # %if.then256
	movl	$1, 524(%r13)
	jmp	.LBB33_20
.LBB33_11:                              # %if.then
	movq	httpd_err400title(%rip), %rdx
	movq	httpd_err400form(%rip), %r8
	movl	$400, %esi              # imm = 0x190
	movl	$.L.str2669, %ecx
	movl	$.L.str2669, %r9d
	movq	%rbx, %rdi
	jmp	.LBB33_208
.LBB33_13:                              # %if.then142
	movq	%r15, %r13
	movl	$0, 520(%r13)
	movl	$.L.str2871, %ebx
	jmp	.LBB33_20
.LBB33_15:
	movq	%r15, %r13
.LBB33_20:                              # %if.end259
	movq	%rbx, 224(%r13)
	movl	$.L.str3073, %esi
	movl	$7, %edx
	movq	%r12, %rdi
	callq	strncasecmp
	testl	%eax, %eax
	je	.LBB33_21
# BB#27:                                # %if.end286
	movzbl	(%r12), %eax
	cmpl	$47, %eax
	jne	.LBB33_22
	jmp	.LBB33_28
.LBB33_21:                              # %if.then264
	cmpl	$0, 524(%r13)
	je	.LBB33_22
# BB#23:                                # %if.end267
	movq	32(%rsp), %rax          # 8-byte Reload
	leaq	8(%rax,%rbp), %rbp
	movl	$47, %esi
	movq	%rbp, %rdi
	callq	strchr
	movq	%rax, %r12
	testq	%r12, %r12
	je	.LBB33_22
# BB#24:                                # %if.end273
	movb	$0, (%r12)
	movl	$47, %esi
	movq	%rbp, %rdi
	callq	strchr
	testq	%rax, %rax
	jne	.LBB33_22
# BB#25:                                # %lor.lhs.false
	movzbl	(%rbp), %eax
	cmpl	$46, %eax
	je	.LBB33_22
# BB#26:                                # %if.end286.thread
	leaq	328(%r13), %rbx
	leaq	440(%r13), %r15
	movq	%rbp, %rdi
	callq	strlen
	movq	%rbx, %rdi
	movq	%r15, %rsi
	movq	%rax, %rdx
	callq	httpd_realloc_str
	movq	328(%r13), %rdi
	movq	%rbp, %rsi
	callq	strcpy
	movb	$47, (%r12)
.LBB33_28:                              # %if.end291
	movl	$.L.str2063, %esi
	movq	%r14, %rdi
	callq	strcasecmp
	testl	%eax, %eax
	je	.LBB33_29
# BB#30:                                # %if.else297
	movl	$.L.str2164, %esi
	movq	%r14, %rdi
	callq	strcasecmp
	testl	%eax, %eax
	je	.LBB33_31
# BB#32:                                # %if.else304
	movl	$.L.str2265, %esi
	movq	%r14, %rdi
	callq	strcasecmp
	testl	%eax, %eax
	je	.LBB33_33
# BB#210:                               # %if.else311
	movl	$501, %esi              # imm = 0x1F5
	movl	$.L.str523, %edx
	movl	$.L.str2669, %ecx
	movl	$.L.str522, %r8d
	movq	%r13, %rdi
	movq	%r14, %r9
	jmp	.LBB33_208
.LBB33_29:                              # %if.then296
	movl	$1, 180(%r13)
	jmp	.LBB33_34
.LBB33_31:                              # %if.then302
	movl	$2, 180(%r13)
	jmp	.LBB33_34
.LBB33_33:                              # %if.then309
	movl	$3, 180(%r13)
.LBB33_34:                              # %if.end314
	movq	%r12, 208(%r13)
	leaq	216(%r13), %rbx
	leaq	376(%r13), %rbp
	movq	%r12, %rdi
	callq	strlen
	movq	%rbx, %rdi
	movq	%rbp, %rsi
	movq	%rax, %rdx
	callq	httpd_realloc_str
	movq	208(%r13), %rsi
	movq	216(%r13), %rdi
	callq	strdecode
	leaq	232(%r13), %r14
	leaq	384(%r13), %rbx
	movq	216(%r13), %rdi
	callq	strlen
	movq	%r14, %rdi
	movq	%rbx, %rsi
	movq	%rax, %rdx
	callq	httpd_realloc_str
	movq	216(%r13), %rsi
	movq	232(%r13), %rdi
	incq	%rsi
	callq	strcpy
	movq	232(%r13), %rax
	cmpb	$0, (%rax)
	jne	.LBB33_36
# BB#35:                                # %if.then330
	movw	$46, (%rax)
.LBB33_36:                              # %if.end333
	movq	208(%r13), %rdi
	movl	$63, %esi
	callq	strchr
	movq	%rax, %rbx
	testq	%rbx, %rbx
	je	.LBB33_39
# BB#37:                                # %if.then338
	incq	%rbx
	leaq	264(%r13), %rbp
	leaq	416(%r13), %r15
	movq	%rbx, %rdi
	callq	strlen
	movq	%rbp, %rdi
	movq	%r15, %rsi
	movq	%rax, %rdx
	callq	httpd_realloc_str
	movq	264(%r13), %rdi
	movq	%rbx, %rsi
	callq	strcpy
	movq	232(%r13), %rdi
	movl	$63, %esi
	callq	strchr
	testq	%rax, %rax
	je	.LBB33_39
# BB#38:                                # %if.then347
	movb	$0, (%rax)
.LBB33_39:                              # %if.end349
	movq	(%r14), %rbp
	jmp	.LBB33_40
	.align	16, 0x90
.LBB33_50:                              # %for.end.i
                                        #   in Loop: Header=BB33_40 Depth=1
	incq	%rax
	movq	%rax, %rdi
	callq	strcpy
.LBB33_40:                              # %if.end349
                                        # =>This Loop Header: Depth=1
                                        #     Child Loop BB33_49 Depth 2
	movl	$.L.str498, %esi
	movq	%rbp, %rdi
	callq	strstr
	testq	%rax, %rax
	je	.LBB33_41
# BB#48:                                # %while.body.i
                                        #   in Loop: Header=BB33_40 Depth=1
	leaq	1(%rax), %rsi
	.align	16, 0x90
.LBB33_49:                              # %for.cond.i
                                        #   Parent Loop BB33_40 Depth=1
                                        # =>  This Inner Loop Header: Depth=2
	movzbl	1(%rsi), %ecx
	incq	%rsi
	cmpl	$47, %ecx
	je	.LBB33_49
	jmp	.LBB33_50
.LBB33_41:                              # %while.cond5.preheader.i
	movl	$.L.str75, %esi
	movl	$2, %edx
	movq	%rbp, %rdi
	callq	strncmp
	testl	%eax, %eax
	jne	.LBB33_44
# BB#42:                                # %while.body9.lr.ph.i
	leaq	2(%rbp), %rbx
	.align	16, 0x90
.LBB33_43:                              # %while.body9.i
                                        # =>This Inner Loop Header: Depth=1
	movq	%rbp, %rdi
	movq	%rbx, %rsi
	callq	strcpy
	movl	$.L.str75, %esi
	movl	$2, %edx
	movq	%rbp, %rdi
	callq	strncmp
	testl	%eax, %eax
	je	.LBB33_43
	jmp	.LBB33_44
	.align	16, 0x90
.LBB33_211:                             # %while.body17.i
                                        #   in Loop: Header=BB33_44 Depth=1
	leaq	2(%rax), %rsi
	movq	%rax, %rdi
	callq	strcpy
.LBB33_44:                              # %while.cond13.preheader.i
                                        # =>This Inner Loop Header: Depth=1
	movl	$.L.str511, %esi
	movq	%rbp, %rdi
	callq	strstr
	testq	%rax, %rax
	jne	.LBB33_211
# BB#45:                                # %while.cond22.preheader.i
	leaq	3(%rbp), %rbx
	jmp	.LBB33_46
	.align	16, 0x90
.LBB33_47:                              # %while.body26.i
                                        #   in Loop: Header=BB33_46 Depth=1
	movq	%rbp, %rdi
	movq	%rbx, %rsi
	callq	strcpy
.LBB33_46:                              # %while.cond22.i
                                        # =>This Loop Header: Depth=1
                                        #     Child Loop BB33_53 Depth 2
	movl	$.L.str512, %esi
	movl	$3, %edx
	movq	%rbp, %rdi
	callq	strncmp
	testl	%eax, %eax
	je	.LBB33_47
# BB#51:                                # %while.end29.i
                                        #   in Loop: Header=BB33_46 Depth=1
	movl	$.L.str513, %esi
	movq	%rbp, %rdi
	callq	strstr
	testq	%rax, %rax
	je	.LBB33_56
# BB#52:                                # %for.cond34.i.preheader
                                        #   in Loop: Header=BB33_46 Depth=1
	leaq	-1(%rax), %rcx
	.align	16, 0x90
.LBB33_53:                              # %for.cond34.i
                                        #   Parent Loop BB33_46 Depth=1
                                        # =>  This Inner Loop Header: Depth=2
	movq	%rcx, %rdi
	cmpq	%rbp, %rdi
	jb	.LBB33_55
# BB#54:                                # %land.rhs.i
                                        #   in Loop: Header=BB33_53 Depth=2
	movzbl	(%rdi), %edx
	leaq	-1(%rdi), %rcx
	cmpl	$47, %edx
	jne	.LBB33_53
.LBB33_55:                              # %for.end43.i
                                        #   in Loop: Header=BB33_46 Depth=1
	addq	$4, %rax
	incq	%rdi
	movq	%rax, %rsi
	callq	strcpy
	jmp	.LBB33_46
.LBB33_56:                              # %while.cond48.preheader.i
	movq	%rbp, %rdi
	callq	strlen
	cmpl	$4, %eax
	jl	.LBB33_66
# BB#57:                                # %cond.true.i.preheader
	leaq	-4(%rbp), %rbx
.LBB33_58:                              # %cond.true.i
                                        # =>This Loop Header: Depth=1
                                        #     Child Loop BB33_63 Depth 2
	movslq	%eax, %rcx
	movzbl	-3(%rcx,%rbp), %edx
	cmpl	$47, %edx
	jne	.LBB33_66
# BB#59:                                # %if.then67.i
                                        #   in Loop: Header=BB33_58 Depth=1
	movzbl	-2(%rcx,%rbp), %edx
	cmpl	$46, %edx
	jne	.LBB33_66
# BB#60:                                # %if.then77.i
                                        #   in Loop: Header=BB33_58 Depth=1
	movzbl	-1(%rcx,%rbp), %edx
	cmpl	$46, %edx
	jne	.LBB33_66
# BB#61:                                # %cond.end.i
                                        #   in Loop: Header=BB33_58 Depth=1
	cmpb	$0, (%rbp,%rcx)
	jne	.LBB33_66
# BB#62:                                # %for.cond105.i.preheader
                                        #   in Loop: Header=BB33_58 Depth=1
	cltq
	addq	%rbx, %rax
	.align	16, 0x90
.LBB33_63:                              # %for.cond105.i
                                        #   Parent Loop BB33_58 Depth=1
                                        # =>  This Inner Loop Header: Depth=2
	cmpq	%rbp, %rax
	jb	.LBB33_66
# BB#64:                                # %land.rhs108.i
                                        #   in Loop: Header=BB33_63 Depth=2
	movzbl	(%rax), %ecx
	decq	%rax
	cmpl	$47, %ecx
	jne	.LBB33_63
# BB#65:                                # %if.end120.i
                                        #   in Loop: Header=BB33_58 Depth=1
	movb	$0, 1(%rax)
	movq	%rbp, %rdi
	callq	strlen
	cmpl	$3, %eax
	jg	.LBB33_58
.LBB33_66:                              # %de_dotdot.exit
	movq	(%r14), %rax
	movzbl	(%rax), %ecx
	cmpl	$47, %ecx
	je	.LBB33_22
# BB#67:                                # %de_dotdot.exit
	movzbl	%cl, %ecx
	cmpl	$46, %ecx
	jne	.LBB33_71
# BB#68:                                # %land.lhs.true
	movzbl	1(%rax), %ecx
	cmpl	$46, %ecx
	jne	.LBB33_71
# BB#69:                                # %land.lhs.true367
	movb	2(%rax), %al
	testb	%al, %al
	je	.LBB33_22
# BB#70:                                # %land.lhs.true367
	movzbl	%al, %eax
	cmpl	$47, %eax
	je	.LBB33_22
.LBB33_71:                              # %if.end380
	cmpl	$0, 520(%r13)
	je	.LBB33_176
# BB#72:                                # %while.cond.preheader
	movq	160(%r13), %rax
	movq	168(%r13), %rbp
	cmpq	%rax, %rbp
	jae	.LBB33_176
# BB#73:                                # %for.body.lr.ph.i1720.lr.ph
	leaq	288(%r13), %rcx
	movq	%rcx, 32(%rsp)          # 8-byte Spill
	leaq	424(%r13), %rcx
	movq	%rcx, 24(%rsp)          # 8-byte Spill
	leaq	16(%r13), %rcx
	movq	%rcx, 8(%rsp)           # 8-byte Spill
	leaq	296(%r13), %rcx
	movq	%rcx, 16(%rsp)          # 8-byte Spill
	leaq	432(%r13), %rcx
	movq	%rcx, (%rsp)            # 8-byte Spill
	jmp	.LBB33_74
.LBB33_82:                              # %while.body
                                        #   in Loop: Header=BB33_74 Depth=1
	cmpb	$0, (%rbx)
	je	.LBB33_176
# BB#83:                                # %if.end392
                                        #   in Loop: Header=BB33_74 Depth=1
	movl	$.L.str3275, %esi
	movl	$8, %edx
	movq	%rbx, %rdi
	callq	strncasecmp
	testl	%eax, %eax
	jne	.LBB33_89
# BB#84:                                # %if.then396
                                        #   in Loop: Header=BB33_74 Depth=1
	movslq	%ebp, %rax
	leaq	8(%r12,%rax), %rax
	jmp	.LBB33_85
	.align	16, 0x90
.LBB33_87:                              # %while.cond.i.backedge
                                        #   in Loop: Header=BB33_85 Depth=2
	incq	%rax
.LBB33_85:                              # %while.cond.i
                                        #   Parent Loop BB33_74 Depth=1
                                        # =>  This Inner Loop Header: Depth=2
	movsbl	(%rax), %ecx
	cmpl	$9, %ecx
	je	.LBB33_87
# BB#86:                                # %while.cond.i
                                        #   in Loop: Header=BB33_85 Depth=2
	cmpl	$32, %ecx
	je	.LBB33_87
# BB#88:                                # %__strspn_c2.exit
                                        #   in Loop: Header=BB33_74 Depth=1
	movq	%rax, 272(%r13)
	jmp	.LBB33_114
.LBB33_89:                              # %if.else449
                                        #   in Loop: Header=BB33_74 Depth=1
	movl	$.L.str3476, %esi
	movl	$11, %edx
	movq	%rbx, %rdi
	callq	strncasecmp
	testl	%eax, %eax
	jne	.LBB33_95
# BB#90:                                # %if.then453
                                        #   in Loop: Header=BB33_74 Depth=1
	movslq	%ebp, %rax
	leaq	11(%r12,%rax), %rax
	jmp	.LBB33_91
	.align	16, 0x90
.LBB33_93:                              # %while.cond.i1752.backedge
                                        #   in Loop: Header=BB33_91 Depth=2
	incq	%rax
.LBB33_91:                              # %while.cond.i1752
                                        #   Parent Loop BB33_74 Depth=1
                                        # =>  This Inner Loop Header: Depth=2
	movsbl	(%rax), %ecx
	cmpl	$9, %ecx
	je	.LBB33_93
# BB#92:                                # %while.cond.i1752
                                        #   in Loop: Header=BB33_91 Depth=2
	cmpl	$32, %ecx
	je	.LBB33_93
# BB#94:                                # %__strspn_c2.exit1753
                                        #   in Loop: Header=BB33_74 Depth=1
	movq	%rax, 280(%r13)
	jmp	.LBB33_114
.LBB33_95:                              # %if.else506
                                        #   in Loop: Header=BB33_74 Depth=1
	movl	$.L.str3577, %esi
	movl	$5, %edx
	movq	%rbx, %rdi
	callq	strncasecmp
	testl	%eax, %eax
	jne	.LBB33_104
# BB#96:                                # %if.then510
                                        #   in Loop: Header=BB33_74 Depth=1
	movslq	%ebp, %rax
	leaq	5(%r12,%rax), %rbx
	jmp	.LBB33_97
	.align	16, 0x90
.LBB33_99:                              # %while.cond.i1761.backedge
                                        #   in Loop: Header=BB33_97 Depth=2
	incq	%rbx
.LBB33_97:                              # %while.cond.i1761
                                        #   Parent Loop BB33_74 Depth=1
                                        # =>  This Inner Loop Header: Depth=2
	movsbl	(%rbx), %eax
	cmpl	$9, %eax
	je	.LBB33_99
# BB#98:                                # %while.cond.i1761
                                        #   in Loop: Header=BB33_97 Depth=2
	cmpl	$32, %eax
	je	.LBB33_99
# BB#100:                               # %__strspn_c2.exit1762
                                        #   in Loop: Header=BB33_74 Depth=1
	movq	%rbx, 336(%r13)
	movl	$58, %esi
	movq	%rbx, %rdi
	callq	strchr
	testq	%rax, %rax
	je	.LBB33_102
# BB#101:                               # %if.then567
                                        #   in Loop: Header=BB33_74 Depth=1
	movb	$0, (%rax)
	movq	336(%r13), %rbx
.LBB33_102:                             # %if.end568
                                        #   in Loop: Header=BB33_74 Depth=1
	movl	$47, %esi
	movq	%rbx, %rdi
	callq	strchr
	testq	%rax, %rax
	jne	.LBB33_22
# BB#103:                               # %lor.lhs.false573
                                        #   in Loop: Header=BB33_74 Depth=1
	movzbl	(%rbx), %eax
	cmpl	$46, %eax
	jne	.LBB33_114
	jmp	.LBB33_22
.LBB33_104:                             # %if.else581
                                        #   in Loop: Header=BB33_74 Depth=1
	movl	$.L.str3678, %esi
	movl	$7, %edx
	movq	%rbx, %rdi
	callq	strncasecmp
	testl	%eax, %eax
	jne	.LBB33_118
# BB#105:                               # %if.then585
                                        #   in Loop: Header=BB33_74 Depth=1
	movslq	%ebp, %rax
	leaq	7(%r12,%rax), %rbx
	movq	32(%rsp), %rbp          # 8-byte Reload
	jmp	.LBB33_106
	.align	16, 0x90
.LBB33_108:                             # %while.cond.i1770.backedge
                                        #   in Loop: Header=BB33_106 Depth=2
	incq	%rbx
.LBB33_106:                             # %while.cond.i1770
                                        #   Parent Loop BB33_74 Depth=1
                                        # =>  This Inner Loop Header: Depth=2
	movsbl	(%rbx), %eax
	cmpl	$9, %eax
	je	.LBB33_108
# BB#107:                               # %while.cond.i1770
                                        #   in Loop: Header=BB33_106 Depth=2
	cmpl	$32, %eax
	je	.LBB33_108
# BB#109:                               # %__strspn_c2.exit1771
                                        #   in Loop: Header=BB33_74 Depth=1
	movq	(%rbp), %rdi
	cmpb	$0, (%rdi)
	jne	.LBB33_110
# BB#116:                               # %if.else657
                                        #   in Loop: Header=BB33_74 Depth=1
	movq	%rbx, %rdi
	callq	strlen
	movq	%rbp, %rdi
	movq	24(%rsp), %rsi          # 8-byte Reload
	movq	%rax, %rdx
	callq	httpd_realloc_str
	jmp	.LBB33_117
.LBB33_118:                             # %if.else664
                                        #   in Loop: Header=BB33_74 Depth=1
	movl	$.L.str3981, %esi
	movl	$16, %edx
	movq	%rbx, %rdi
	callq	strncasecmp
	testl	%eax, %eax
	jne	.LBB33_129
# BB#119:                               # %if.then668
                                        #   in Loop: Header=BB33_74 Depth=1
	movslq	%ebp, %rax
	leaq	16(%r12,%rax), %rbx
	movq	16(%rsp), %rbp          # 8-byte Reload
	jmp	.LBB33_120
.LBB33_122:                             # %while.cond.i1779.backedge
                                        #   in Loop: Header=BB33_120 Depth=2
	incq	%rbx
.LBB33_120:                             # %while.cond.i1779
                                        #   Parent Loop BB33_74 Depth=1
                                        # =>  This Inner Loop Header: Depth=2
	movsbl	(%rbx), %eax
	cmpl	$9, %eax
	je	.LBB33_122
# BB#121:                               # %while.cond.i1779
                                        #   in Loop: Header=BB33_120 Depth=2
	cmpl	$32, %eax
	je	.LBB33_122
# BB#123:                               # %__strspn_c2.exit1780
                                        #   in Loop: Header=BB33_74 Depth=1
	movq	(%rbp), %rdi
	cmpb	$0, (%rdi)
	jne	.LBB33_124
# BB#127:                               # %if.else742
                                        #   in Loop: Header=BB33_74 Depth=1
	movq	%rbx, %rdi
	callq	strlen
	movq	%rbp, %rdi
	movq	(%rsp), %rsi            # 8-byte Reload
	movq	%rax, %rdx
	callq	httpd_realloc_str
	jmp	.LBB33_128
.LBB33_129:                             # %if.else749
                                        #   in Loop: Header=BB33_74 Depth=1
	movl	$.L.str4183, %esi
	movl	$16, %edx
	movq	%rbx, %rdi
	callq	strncasecmp
	testl	%eax, %eax
	jne	.LBB33_135
# BB#130:                               # %if.then753
                                        #   in Loop: Header=BB33_74 Depth=1
	movslq	%ebp, %rax
	leaq	16(%r12,%rax), %rax
	jmp	.LBB33_131
.LBB33_133:                             # %while.cond.i1788.backedge
                                        #   in Loop: Header=BB33_131 Depth=2
	incq	%rax
.LBB33_131:                             # %while.cond.i1788
                                        #   Parent Loop BB33_74 Depth=1
                                        # =>  This Inner Loop Header: Depth=2
	movsbl	(%rax), %ecx
	cmpl	$9, %ecx
	je	.LBB33_133
# BB#132:                               # %while.cond.i1788
                                        #   in Loop: Header=BB33_131 Depth=2
	cmpl	$32, %ecx
	je	.LBB33_133
# BB#134:                               # %__strspn_c2.exit1789
                                        #   in Loop: Header=BB33_74 Depth=1
	movq	%rax, 304(%r13)
	jmp	.LBB33_114
.LBB33_110:                             # %if.then642
                                        #   in Loop: Header=BB33_74 Depth=1
	callq	strlen
	movq	%rax, %r15
	cmpq	$5001, %r15             # imm = 0x1389
	jb	.LBB33_115
# BB#111:                               # %if.then647
                                        #   in Loop: Header=BB33_74 Depth=1
	movq	8(%rsp), %rdi           # 8-byte Reload
	callq	httpd_ntoa
	movl	$3, %edi
	movl	$.L.str3779, %esi
	jmp	.LBB33_112
.LBB33_135:                             # %if.else806
                                        #   in Loop: Header=BB33_74 Depth=1
	movl	$.L.str4284, %esi
	movl	$18, %edx
	movq	%rbx, %rdi
	callq	strncasecmp
	testl	%eax, %eax
	jne	.LBB33_138
# BB#136:                               # %if.then810
                                        #   in Loop: Header=BB33_74 Depth=1
	leaq	18(%r15,%r12), %rbx
	movq	%rbx, %rdi
	callq	tdate_parse
	cmpq	$-1, %rax
	movq	%rax, 480(%r13)
	jne	.LBB33_114
	jmp	.LBB33_137
.LBB33_124:                             # %if.then725
                                        #   in Loop: Header=BB33_74 Depth=1
	callq	strlen
	movq	%rax, %r15
	cmpq	$5001, %r15             # imm = 0x1389
	jb	.LBB33_126
# BB#125:                               # %if.then730
                                        #   in Loop: Header=BB33_74 Depth=1
	movq	8(%rsp), %rdi           # 8-byte Reload
	callq	httpd_ntoa
	movl	$3, %edi
	movl	$.L.str4082, %esi
.LBB33_112:                             # %while.cond.backedge
                                        #   in Loop: Header=BB33_74 Depth=1
	movl	$httpd_ntoa.str, %edx
	xorl	%eax, %eax
	jmp	.LBB33_113
.LBB33_115:                             # %if.end649
                                        #   in Loop: Header=BB33_74 Depth=1
	movq	%rbx, %rdi
	callq	strlen
	leaq	2(%r15,%rax), %rdx
	movq	%rbp, %rdi
	movq	24(%rsp), %rsi          # 8-byte Reload
	callq	httpd_realloc_str
	movq	(%rbp), %r15
	movq	%r15, %rdi
	callq	strlen
	movb	$0, 2(%r15,%rax)
	movw	$8236, (%r15,%rax)      # imm = 0x202C
.LBB33_117:                             # %if.end661
                                        #   in Loop: Header=BB33_74 Depth=1
	movq	(%rbp), %rdi
	movq	%rbx, %rsi
	callq	strcat
	jmp	.LBB33_114
.LBB33_138:                             # %if.else818
                                        #   in Loop: Header=BB33_74 Depth=1
	movl	$.L.str4486, %esi
	movl	$7, %edx
	movq	%rbx, %rdi
	callq	strncasecmp
	testl	%eax, %eax
	jne	.LBB33_144
# BB#139:                               # %if.then822
                                        #   in Loop: Header=BB33_74 Depth=1
	movslq	%ebp, %rax
	leaq	7(%r12,%rax), %rax
	jmp	.LBB33_140
.LBB33_142:                             # %while.cond.i1797.backedge
                                        #   in Loop: Header=BB33_140 Depth=2
	incq	%rax
.LBB33_140:                             # %while.cond.i1797
                                        #   Parent Loop BB33_74 Depth=1
                                        # =>  This Inner Loop Header: Depth=2
	movsbl	(%rax), %ecx
	cmpl	$9, %ecx
	je	.LBB33_142
# BB#141:                               # %while.cond.i1797
                                        #   in Loop: Header=BB33_140 Depth=2
	cmpl	$32, %ecx
	je	.LBB33_142
# BB#143:                               # %__strspn_c2.exit1798
                                        #   in Loop: Header=BB33_74 Depth=1
	movq	%rax, 312(%r13)
	jmp	.LBB33_114
.LBB33_126:                             # %if.end733
                                        #   in Loop: Header=BB33_74 Depth=1
	movq	%rbx, %rdi
	callq	strlen
	leaq	2(%r15,%rax), %rdx
	movq	%rbp, %rdi
	movq	(%rsp), %rsi            # 8-byte Reload
	callq	httpd_realloc_str
	movq	(%rbp), %r15
	movq	%r15, %rdi
	callq	strlen
	movb	$0, 2(%r15,%rax)
	movw	$8236, (%r15,%rax)      # imm = 0x202C
.LBB33_128:                             # %if.end746
                                        #   in Loop: Header=BB33_74 Depth=1
	movq	(%rbp), %rdi
	movq	%rbx, %rsi
	callq	strcpy
	jmp	.LBB33_114
.LBB33_144:                             # %if.else875
                                        #   in Loop: Header=BB33_74 Depth=1
	movl	$.L.str4587, %esi
	movl	$6, %edx
	movq	%rbx, %rdi
	callq	strncasecmp
	testl	%eax, %eax
	jne	.LBB33_151
# BB#145:                               # %if.then879
                                        #   in Loop: Header=BB33_74 Depth=1
	movl	$44, %esi
	movq	%rbx, %rdi
	callq	strchr
	testq	%rax, %rax
	jne	.LBB33_114
# BB#146:                               # %cond.true901
                                        #   in Loop: Header=BB33_74 Depth=1
	movl	$61, %esi
	movq	%rbx, %rdi
	callq	strchr
	movq	%rax, %rbx
	testq	%rbx, %rbx
	je	.LBB33_114
# BB#147:                               # %if.then937
                                        #   in Loop: Header=BB33_74 Depth=1
	incq	%rbx
	movl	$45, %esi
	movq	%rbx, %rdi
	callq	strchr
	movq	%rax, %rbp
	testq	%rbp, %rbp
	je	.LBB33_114
# BB#148:                               # %if.then937
                                        #   in Loop: Header=BB33_74 Depth=1
	cmpq	%rbx, %rbp
	je	.LBB33_114
# BB#149:                               # %if.then946
                                        #   in Loop: Header=BB33_74 Depth=1
	movb	$0, (%rbp)
	movl	$1, 528(%r13)
	xorl	%esi, %esi
	movl	$10, %edx
	movq	%rbx, %rdi
	callq	strtoll
	testq	%rax, %rax
	movl	$0, %ecx
	cmovsq	%rcx, %rax
	movq	%rax, 536(%r13)
	movsbq	1(%rbp), %rbx
	callq	__ctype_b_loc
	movq	(%rax), %rax
	testb	$8, 1(%rax,%rbx,2)
	je	.LBB33_114
# BB#150:                               # %if.then961
                                        #   in Loop: Header=BB33_74 Depth=1
	incq	%rbp
	xorl	%esi, %esi
	movl	$10, %edx
	movq	%rbp, %rdi
	callq	strtoll
	cmpq	$-2, %rax
	movq	$-1, %rcx
	cmovleq	%rcx, %rax
	movq	%rax, 544(%r13)
	jmp	.LBB33_114
.LBB33_151:                             # %if.else974
                                        #   in Loop: Header=BB33_74 Depth=1
	movl	$.L.str4789, %esi
	movl	$9, %edx
	movq	%rbx, %rdi
	callq	strncasecmp
	testl	%eax, %eax
	je	.LBB33_153
# BB#152:                               # %lor.lhs.false978
                                        #   in Loop: Header=BB33_74 Depth=1
	movl	$.L.str4890, %esi
	movl	$9, %edx
	movq	%rbx, %rdi
	callq	strncasecmp
	testl	%eax, %eax
	jne	.LBB33_154
.LBB33_153:                             # %if.then982
                                        #   in Loop: Header=BB33_74 Depth=1
	leaq	9(%r15,%r12), %rbx
	movq	%rbx, %rdi
	callq	tdate_parse
	cmpq	$-1, %rax
	movq	%rax, 488(%r13)
	jne	.LBB33_114
.LBB33_137:                             # %if.then816
                                        #   in Loop: Header=BB33_74 Depth=1
	movl	$7, %edi
	movl	$.L.str4385, %esi
	xorl	%eax, %eax
	movq	%rbx, %rdx
.LBB33_113:                             # %while.cond.backedge
                                        #   in Loop: Header=BB33_74 Depth=1
	callq	syslog
.LBB33_114:                             # %while.cond.backedge
                                        #   in Loop: Header=BB33_74 Depth=1
	movq	160(%r13), %rax
	movq	168(%r13), %rbp
	cmpq	%rax, %rbp
	jb	.LBB33_74
	jmp	.LBB33_176
.LBB33_154:                             # %if.else990
                                        #   in Loop: Header=BB33_74 Depth=1
	movl	$.L.str4991, %esi
	movl	$13, %edx
	movq	%rbx, %rdi
	callq	strncasecmp
	testl	%eax, %eax
	jne	.LBB33_160
# BB#155:                               # %if.then994
                                        #   in Loop: Header=BB33_74 Depth=1
	movslq	%ebp, %rax
	leaq	13(%r12,%rax), %rax
	jmp	.LBB33_156
.LBB33_160:                             # %if.else1047
                                        #   in Loop: Header=BB33_74 Depth=1
	movl	$.L.str5092, %esi
	movl	$15, %edx
	movq	%rbx, %rdi
	callq	strncasecmp
	testl	%eax, %eax
	jne	.LBB33_162
# BB#161:                               # %if.then1051
                                        #   in Loop: Header=BB33_74 Depth=1
	leaq	15(%r15,%r12), %rax
	xorl	%esi, %esi
	movl	$10, %edx
	movq	%rax, %rdi
	callq	strtol
	movq	%rax, 496(%r13)
	jmp	.LBB33_114
.LBB33_158:                             # %while.cond.i1808.backedge
                                        #   in Loop: Header=BB33_156 Depth=2
	incq	%rax
.LBB33_156:                             # %while.cond.i1808
                                        #   Parent Loop BB33_74 Depth=1
                                        # =>  This Inner Loop Header: Depth=2
	movsbl	(%rax), %ecx
	cmpl	$9, %ecx
	je	.LBB33_158
# BB#157:                               # %while.cond.i1808
                                        #   in Loop: Header=BB33_156 Depth=2
	cmpl	$32, %ecx
	je	.LBB33_158
# BB#159:                               # %__strspn_c2.exit1809
                                        #   in Loop: Header=BB33_74 Depth=1
	movq	%rax, 320(%r13)
	jmp	.LBB33_114
.LBB33_162:                             # %if.else1054
                                        #   in Loop: Header=BB33_74 Depth=1
	movl	$.L.str5193, %esi
	movl	$14, %edx
	movq	%rbx, %rdi
	callq	strncasecmp
	testl	%eax, %eax
	jne	.LBB33_168
# BB#163:                               # %if.then1058
                                        #   in Loop: Header=BB33_74 Depth=1
	movslq	%ebp, %rax
	leaq	14(%r12,%rax), %rax
	jmp	.LBB33_164
.LBB33_168:                             # %if.else1111
                                        #   in Loop: Header=BB33_74 Depth=1
	movl	$.L.str5294, %esi
	movl	$11, %edx
	movq	%rbx, %rdi
	callq	strncasecmp
	testl	%eax, %eax
	jne	.LBB33_114
# BB#169:                               # %if.then1115
                                        #   in Loop: Header=BB33_74 Depth=1
	movq	%r13, %rbx
	movslq	%ebp, %rax
	leaq	11(%r12,%rax), %rax
	jmp	.LBB33_170
.LBB33_166:                             # %while.cond.i1818.backedge
                                        #   in Loop: Header=BB33_164 Depth=2
	incq	%rax
.LBB33_164:                             # %while.cond.i1818
                                        #   Parent Loop BB33_74 Depth=1
                                        # =>  This Inner Loop Header: Depth=2
	movsbl	(%rax), %ecx
	cmpl	$9, %ecx
	je	.LBB33_166
# BB#165:                               # %while.cond.i1818
                                        #   in Loop: Header=BB33_164 Depth=2
	cmpl	$32, %ecx
	je	.LBB33_166
# BB#167:                               # %__strspn_c2.exit1819
                                        #   in Loop: Header=BB33_74 Depth=1
	movq	%rax, 352(%r13)
	jmp	.LBB33_114
.LBB33_172:                             # %while.cond.i1827.backedge
                                        #   in Loop: Header=BB33_170 Depth=2
	incq	%rax
.LBB33_170:                             # %while.cond.i1827
                                        #   Parent Loop BB33_74 Depth=1
                                        # =>  This Inner Loop Header: Depth=2
	movsbl	(%rax), %ecx
	cmpl	$9, %ecx
	je	.LBB33_172
# BB#171:                               # %while.cond.i1827
                                        #   in Loop: Header=BB33_170 Depth=2
	cmpl	$32, %ecx
	je	.LBB33_172
# BB#173:                               # %__strspn_c2.exit1828
                                        #   in Loop: Header=BB33_74 Depth=1
	movl	$.L.str5395, %esi
	movq	%rax, %rdi
	callq	strcasecmp
	testl	%eax, %eax
	movq	%rbx, %r13
	jne	.LBB33_114
# BB#174:                               # %if.then1171
                                        #   in Loop: Header=BB33_74 Depth=1
	movl	$1, 552(%r13)
	jmp	.LBB33_114
.LBB33_74:                              # %for.body.lr.ph.i1720
                                        # =>This Loop Header: Depth=1
                                        #     Child Loop BB33_75 Depth 2
                                        #     Child Loop BB33_170 Depth 2
                                        #     Child Loop BB33_164 Depth 2
                                        #     Child Loop BB33_156 Depth 2
                                        #     Child Loop BB33_140 Depth 2
                                        #     Child Loop BB33_131 Depth 2
                                        #     Child Loop BB33_120 Depth 2
                                        #     Child Loop BB33_106 Depth 2
                                        #     Child Loop BB33_97 Depth 2
                                        #     Child Loop BB33_91 Depth 2
                                        #     Child Loop BB33_85 Depth 2
	movq	144(%r13), %rcx
	movq	%rbp, %rdx
.LBB33_75:                              # %for.body.i1722
                                        #   Parent Loop BB33_74 Depth=1
                                        # =>  This Inner Loop Header: Depth=2
	movzbl	(%rcx,%rdx), %esi
	cmpl	$10, %esi
	je	.LBB33_77
# BB#76:                                # %for.body.i1722
                                        #   in Loop: Header=BB33_75 Depth=2
	movzbl	%sil, %edi
	cmpl	$13, %edi
	je	.LBB33_77
# BB#175:                               # %for.inc.i1739
                                        #   in Loop: Header=BB33_75 Depth=2
	incq	%rdx
	cmpq	%rax, %rdx
	movq	%rdx, 168(%r13)
	jb	.LBB33_75
	jmp	.LBB33_176
.LBB33_77:                              # %if.then.i1725
                                        #   in Loop: Header=BB33_74 Depth=1
	movb	$0, (%rcx,%rdx)
	movq	168(%r13), %rax
	incq	%rax
	movq	%rax, 168(%r13)
	movzbl	%sil, %ecx
	cmpl	$13, %ecx
	jne	.LBB33_81
# BB#78:                                # %land.lhs.true.i1727
                                        #   in Loop: Header=BB33_74 Depth=1
	cmpq	160(%r13), %rax
	jae	.LBB33_81
# BB#79:                                # %land.lhs.true21.i1730
                                        #   in Loop: Header=BB33_74 Depth=1
	movq	144(%r13), %rcx
	movzbl	(%rcx,%rax), %edx
	cmpl	$10, %edx
	jne	.LBB33_81
# BB#80:                                # %if.then28.i1732
                                        #   in Loop: Header=BB33_74 Depth=1
	movb	$0, (%rcx,%rax)
	incq	168(%r13)
.LBB33_81:                              # %bufgets.exit1741
                                        #   in Loop: Header=BB33_74 Depth=1
	movslq	%ebp, %r15
	movq	144(%r13), %r12
	movq	%r12, %rbx
	addq	%r15, %rbx
	jne	.LBB33_82
.LBB33_176:                             # %if.end1187
	cmpl	$0, 524(%r13)
	je	.LBB33_181
# BB#177:                               # %if.then1190
	movq	328(%r13), %rax
	cmpb	$0, (%rax)
	jne	.LBB33_179
# BB#178:                               # %land.lhs.true1196
	movq	336(%r13), %rax
	cmpb	$0, (%rax)
	je	.LBB33_22
.LBB33_179:                             # %if.end1203
	cmpl	$0, 552(%r13)
	je	.LBB33_181
# BB#180:                               # %if.then1206
	movl	$1, 556(%r13)
.LBB33_181:                             # %if.end1208
	leaq	240(%r13), %r15
	leaq	392(%r13), %r12
	movq	232(%r13), %rdi
	callq	strlen
	movq	%r15, %rdi
	movq	%r12, %rsi
	movq	%rax, %rdx
	callq	httpd_realloc_str
	movq	232(%r13), %rsi
	movq	240(%r13), %rdi
	callq	strcpy
	movq	8(%r13), %rax
	cmpl	$0, 100(%rax)
	je	.LBB33_182
# BB#183:                               # %if.then1222
	movq	328(%r13), %rbp
	cmpb	$0, (%rbp)
	je	.LBB33_185
# BB#184:                               # %if.then.i1830
	movq	%r14, 32(%rsp)          # 8-byte Spill
	jmp	.LBB33_186
.LBB33_22:                              # %if.then266
	movq	httpd_err400title(%rip), %rdx
	movq	httpd_err400form(%rip), %r8
	movl	$400, %esi              # imm = 0x190
	movl	$.L.str2669, %ecx
	movl	$.L.str2669, %r9d
.LBB33_207:                             # %return
	movq	%r13, %rdi
.LBB33_208:                             # %return
	callq	httpd_send_err
	movl	$-1, %ebx
.LBB33_209:                             # %return
	movl	%ebx, %eax
	addq	$184, %rsp
	popq	%rbx
	popq	%r12
	popq	%r13
	popq	%r14
	popq	%r15
	popq	%rbp
	ret
.LBB33_182:                             # %if.end1208.if.end1228_crit_edge
	leaq	532(%r13), %rbp
	jmp	.LBB33_197
.LBB33_185:                             # %if.else.i
	movq	%r14, 32(%rsp)          # 8-byte Spill
	movq	336(%r13), %rbp
	cmpb	$0, (%rbp)
	je	.LBB33_187
.LBB33_186:                             # %if.then7.i
	movq	%rbp, 512(%r13)
	movq	%r13, %r14
.LBB33_189:                             # %if.end18.i
	movb	(%rbp), %bl
	testb	%bl, %bl
	je	.LBB33_194
# BB#190:                               # %for.body.lr.ph.i1833
	callq	__ctype_b_loc
	movq	%rax, %r13
	incq	%rbp
	.align	16, 0x90
.LBB33_191:                             # %for.body.i1835
                                        # =>This Inner Loop Header: Depth=1
	movsbq	%bl, %rbx
	movq	(%r13), %rax
	testb	$1, 1(%rax,%rbx,2)
	je	.LBB33_193
# BB#192:                               # %if.then27.i
                                        #   in Loop: Header=BB33_191 Depth=1
	callq	__ctype_tolower_loc
	movq	(%rax), %rax
	movb	(%rax,%rbx,4), %al
	movb	%al, -1(%rbp)
.LBB33_193:                             # %for.inc.i1838
                                        #   in Loop: Header=BB33_191 Depth=1
	movb	(%rbp), %bl
	incq	%rbp
	testb	%bl, %bl
	jne	.LBB33_191
.LBB33_194:                             # %for.end.i1839
	movq	%r14, %r13
	leaq	532(%r13), %rbp
	cmpl	$0, 532(%r13)
	jne	.LBB33_196
# BB#195:                               # %if.end36.i
	leaq	344(%r13), %r14
	movq	%r13, %rbx
	leaq	448(%rbx), %r13
	movq	512(%rbx), %rdi
	callq	strlen
	movq	%r14, %rdi
	movq	%r13, %rsi
	movq	%rbx, %r13
	movq	%rax, %rdx
	callq	httpd_realloc_str
	movq	344(%r13), %rdi
	movq	512(%r13), %rsi
	callq	strcpy
	movq	240(%r13), %rdi
	callq	strlen
	movslq	%eax, %rbx
	movl	$vhost_map.tempfilename, %edi
	movl	$vhost_map.maxtempfilename, %esi
	movq	%rbx, %rdx
	callq	httpd_realloc_str
	movq	vhost_map.tempfilename(%rip), %rdi
	movq	240(%r13), %rsi
	callq	strcpy
	movq	344(%r13), %rdi
	callq	strlen
	leaq	1(%rbx,%rax), %rdx
	movq	%r15, %rdi
	movq	%r12, %rsi
	callq	httpd_realloc_str
	movq	240(%r13), %rdi
	movq	344(%r13), %rsi
	callq	strcpy
	movq	240(%r13), %rbx
	movq	%rbx, %rdi
	callq	strlen
	movw	$47, (%rbx,%rax)
	movq	240(%r13), %rdi
	movq	vhost_map.tempfilename(%rip), %rsi
	callq	strcat
.LBB33_196:                             # %if.end1228
	movq	32(%rsp), %r14          # 8-byte Reload
.LBB33_197:                             # %if.end1228
	movq	8(%r13), %rax
	movq	240(%r13), %rdi
	movl	96(%rax), %edx
	movl	(%rbp), %ecx
	leaq	40(%rsp), %rsi
	callq	expand_symlinks
	movq	%rax, %rbx
	testq	%rbx, %rbx
	je	.LBB33_198
# BB#199:                               # %if.end1236
	movq	%rbx, %rdi
	callq	strlen
	movq	%r15, %rdi
	movq	%r12, %rsi
	movq	%rax, %rdx
	callq	httpd_realloc_str
	movq	240(%r13), %rdi
	movq	%rbx, %rsi
	callq	strcpy
	leaq	256(%r13), %r12
	leaq	408(%r13), %rbp
	movq	40(%rsp), %rbx
	movq	%rbx, %rdi
	callq	strlen
	movq	%r12, %rdi
	movq	%rbp, %rsi
	movq	%rax, %rdx
	callq	httpd_realloc_str
	movq	256(%r13), %rdi
	movq	%rbx, %rsi
	callq	strcpy
	movq	256(%r13), %rbx
	cmpb	$0, (%rbx)
	je	.LBB33_203
# BB#200:                               # %if.then1250
	movq	(%r14), %r14
	movq	%r14, %rdi
	callq	strlen
	movq	%rax, %rbp
	movq	%rbx, %rdi
	callq	strlen
	subq	%rax, %rbp
	testl	%ebp, %ebp
	jle	.LBB33_203
# BB#201:                               # %land.lhs.true1259
	movslq	%ebp, %rdi
	addq	%r14, %rdi
	movq	%rbx, %rsi
	callq	strcmp
	testl	%eax, %eax
	jne	.LBB33_203
# BB#202:                               # %if.then1270
	shlq	$32, %rbp
	movabsq	$-4294967296, %rax      # imm = 0xFFFFFFFF00000000
	addq	%rbp, %rax
	sarq	$32, %rax
	movb	$0, (%r14,%rax)
.LBB33_203:                             # %if.end1276
	movq	(%r15), %rbp
	movzbl	(%rbp), %eax
	xorl	%ebx, %ebx
	cmpl	$47, %eax
	jne	.LBB33_209
# BB#204:                               # %if.then1282
	movq	8(%r13), %rax
	movq	64(%rax), %r15
	movq	%r15, %rdi
	callq	strlen
	movq	%rax, %r14
	movq	%rbp, %rdi
	movq	%r15, %rsi
	movq	%r14, %rdx
	callq	strncmp
	testl	%eax, %eax
	je	.LBB33_205
# BB#206:                               # %if.else1299
	leaq	16(%r13), %rdi
	callq	httpd_ntoa
	movq	208(%r13), %rcx
	movl	$5, %edi
	movl	$.L.str5496, %esi
	movl	$httpd_ntoa.str, %edx
	xorl	%eax, %eax
	callq	syslog
	movq	208(%r13), %r9
	movl	$403, %esi              # imm = 0x193
	movl	$.L.str515, %edx
	movl	$.L.str2669, %ecx
	movl	$.L.str5597, %r8d
	jmp	.LBB33_207
.LBB33_205:                             # %if.then1291
	addq	%rbp, %r14
	movq	%rbp, %rdi
	movq	%r14, %rsi
	callq	strcpy
	jmp	.LBB33_209
.LBB33_187:                             # %if.else10.i
	movl	$128, 52(%rsp)
	movl	704(%r13), %edi
	leaq	56(%rsp), %rsi
	leaq	52(%rsp), %rdx
	callq	getsockname
	testl	%eax, %eax
	js	.LBB33_212
# BB#188:                               # %if.end.i1832
	leaq	56(%rsp), %rdi
	callq	httpd_ntoa
	movq	$httpd_ntoa.str, 512(%r13)
	movq	%r13, %r14
	movl	$httpd_ntoa.str, %ebp
	jmp	.LBB33_189
.LBB33_212:                             # %if.then1225
	movl	$3, %edi
	movl	$.L.str521, %esi
	xorl	%eax, %eax
	callq	syslog
.LBB33_198:                             # %if.then1234
	movq	208(%r13), %r9
	movl	$500, %esi              # imm = 0x1F4
	movl	$.L.str520, %edx
	movl	$.L.str2669, %ecx
	movl	$.L.str519, %r8d
	jmp	.LBB33_207
.Ltmp336:
	.size	httpd_parse_request, .Ltmp336-httpd_parse_request
	.cfi_endproc

	.globl	httpd_close_conn
	.align	16, 0x90
	.type	httpd_close_conn,@function
httpd_close_conn:                       # @httpd_close_conn
	.cfi_startproc
# BB#0:                                 # %entry
	pushq	%r15
.Ltmp343:
	.cfi_def_cfa_offset 16
	pushq	%r14
.Ltmp344:
	.cfi_def_cfa_offset 24
	pushq	%r13
.Ltmp345:
	.cfi_def_cfa_offset 32
	pushq	%r12
.Ltmp346:
	.cfi_def_cfa_offset 40
	pushq	%rbx
.Ltmp347:
	.cfi_def_cfa_offset 48
	subq	$640, %rsp              # imm = 0x280
.Ltmp348:
	.cfi_def_cfa_offset 688
.Ltmp349:
	.cfi_offset %rbx, -48
.Ltmp350:
	.cfi_offset %r12, -40
.Ltmp351:
	.cfi_offset %r13, -32
.Ltmp352:
	.cfi_offset %r14, -24
.Ltmp353:
	.cfi_offset %r15, -16
	movq	%rsi, %r14
	movq	%rdi, %rbx
	movq	8(%rbx), %rax
	cmpl	$0, 80(%rax)
	jne	.LBB34_30
# BB#1:                                 # %if.end.i
	movq	360(%rbx), %rcx
	cmpb	$0, (%rcx)
	movl	$.L.str58100, %r15d
	je	.LBB34_3
# BB#2:                                 # %select.mid
	movq	%rcx, %r15
.LBB34_3:                               # %select.end
	cmpl	$0, 100(%rax)
	je	.LBB34_8
# BB#4:                                 # %land.lhs.true.i
	cmpl	$0, 532(%rbx)
	je	.LBB34_5
.LBB34_8:                               # %if.else13.i
	movq	208(%rbx), %rcx
	leaq	320(%rsp), %rdi
	movl	$305, %esi              # imm = 0x131
	movl	$.L.str60102, %edx
	xorl	%eax, %eax
	callq	my_snprintf
	jmp	.LBB34_9
.LBB34_5:                               # %if.then8.i
	movq	512(%rbx), %rcx
	testq	%rcx, %rcx
	jne	.LBB34_7
# BB#6:                                 # %cond.true.i
	movq	8(%rax), %rcx
.LBB34_7:                               # %cond.end.i
	movq	208(%rbx), %r8
	leaq	320(%rsp), %rdi
	movl	$305, %esi              # imm = 0x131
	movl	$.L.str59101, %edx
	xorl	%eax, %eax
	callq	my_snprintf
.LBB34_9:                               # %if.end17.i
	movq	200(%rbx), %rcx
	testq	%rcx, %rcx
	js	.LBB34_11
# BB#10:                                # %if.then20.i
	leaq	272(%rsp), %rdi
	movl	$40, %esi
	movl	$.L.str61103, %edx
	xorl	%eax, %eax
	callq	my_snprintf
	jmp	.LBB34_12
.LBB34_11:                              # %if.else24.i
	movw	$45, 272(%rsp)
.LBB34_12:                              # %if.end27.i
	movq	8(%rbx), %rax
	cmpq	$0, 88(%rax)
	je	.LBB34_23
# BB#13:                                # %if.then31.i
	testq	%r14, %r14
	je	.LBB34_15
# BB#14:                                # %if.then34.i
	movq	(%r14), %rax
	jmp	.LBB34_16
.LBB34_23:                              # %if.else63.i
	leaq	16(%rbx), %rdi
	callq	httpd_ntoa
	movl	$.L.str2063, %r8d
	movl	180(%rbx), %eax
	cmpl	$1, %eax
	je	.LBB34_29
# BB#24:                                # %if.else63.i
	cmpl	$3, %eax
	jne	.LBB34_25
# BB#27:                                # %sw.bb2.i109.i
	movl	$.L.str2265, %r8d
	jmp	.LBB34_29
.LBB34_15:                              # %if.else35.i
	xorl	%edi, %edi
	callq	time
.LBB34_16:                              # %if.end37.i
	movq	%rax, 264(%rsp)
	leaq	264(%rsp), %rdi
	callq	localtime
	movq	%rax, %r12
	leaq	160(%rsp), %r13
	movl	$100, %esi
	movl	$.L.str62104, %edx
	movq	%r13, %rdi
	movq	%r12, %rcx
	callq	strftime
	movq	40(%r12), %rcx
	movabsq	$-8608480567731124087, %rdx # imm = 0x8888888888888889
	movq	%rcx, %rax
	imulq	%rdx
	addq	%rcx, %rdx
	movq	%rdx, %rax
	shrq	$63, %rax
	shrq	$5, %rdx
	addl	%eax, %edx
	movl	%edx, %eax
	negl	%eax
	cmovll	%edx, %eax
	shrl	$31, %edx
	leal	43(%rdx,%rdx), %r8d
	movslq	%eax, %r9
	imulq	$-2004318071, %r9, %rax # imm = 0xFFFFFFFF88888889
	shrq	$32, %rax
	movl	%r9d, %ecx
	addl	%eax, %ecx
	movl	%ecx, %eax
	shrl	$31, %eax
	sarl	$5, %ecx
	addl	%eax, %ecx
	imull	$100, %ecx, %eax
	imull	$60, %ecx, %ecx
	subl	%ecx, %r9d
	addl	%eax, %r9d
	leaq	48(%rsp), %rdi
	movl	$100, %esi
	movl	$.L.str63105, %edx
	xorl	%eax, %eax
	movq	%r13, %rcx
                                        # kill: R9D<def> R9D<kill> R9<kill>
	callq	my_snprintf
	movq	8(%rbx), %rax
	movq	88(%rax), %r12
	leaq	16(%rbx), %rdi
	callq	httpd_ntoa
	movl	$.L.str2063, %r9d
	movl	180(%rbx), %eax
	cmpl	$1, %eax
	je	.LBB34_22
# BB#17:                                # %if.end37.i
	cmpl	$3, %eax
	jne	.LBB34_18
# BB#20:                                # %sw.bb2.i.i
	movl	$.L.str2265, %r9d
	jmp	.LBB34_22
.LBB34_18:                              # %if.end37.i
	cmpl	$2, %eax
	jne	.LBB34_21
# BB#19:                                # %sw.bb1.i.i
	movl	$.L.str2164, %r9d
	jmp	.LBB34_22
.LBB34_25:                              # %if.else63.i
	cmpl	$2, %eax
	jne	.LBB34_28
# BB#26:                                # %sw.bb1.i108.i
	movl	$.L.str2164, %r8d
	jmp	.LBB34_29
.LBB34_21:                              # %sw.default.i.i
	movl	$.L.str2366, %r9d
.LBB34_22:                              # %httpd_method_str.exit.i
	movq	224(%rbx), %rax
	movl	184(%rbx), %ecx
	movq	272(%rbx), %rdx
	movq	280(%rbx), %rsi
	movq	%rsi, 40(%rsp)
	movq	%rdx, 32(%rsp)
	leaq	272(%rsp), %rdx
	movq	%rdx, 24(%rsp)
	movl	%ecx, 16(%rsp)
	movq	%rax, 8(%rsp)
	leaq	320(%rsp), %rax
	movq	%rax, (%rsp)
	leaq	48(%rsp), %r8
	movl	$.L.str64106, %esi
	movl	$httpd_ntoa.str, %edx
	xorl	%eax, %eax
	movq	%r15, %rcx
	movq	%r12, %rdi
	callq	fprintf
	movq	8(%rbx), %rax
	movq	88(%rax), %rdi
	callq	fflush
	jmp	.LBB34_30
.LBB34_28:                              # %sw.default.i110.i
	movl	$.L.str2366, %r8d
.LBB34_29:                              # %httpd_method_str.exit112.i
	movq	224(%rbx), %rax
	movl	184(%rbx), %ecx
	movq	272(%rbx), %rdx
	movq	280(%rbx), %rsi
	movq	%rsi, 32(%rsp)
	movq	%rdx, 24(%rsp)
	leaq	272(%rsp), %rdx
	movq	%rdx, 16(%rsp)
	movl	%ecx, 8(%rsp)
	movq	%rax, (%rsp)
	leaq	320(%rsp), %r9
	movl	$6, %edi
	movl	$.L.str65107, %esi
	movl	$httpd_ntoa.str, %edx
	xorl	%eax, %eax
	movq	%r15, %rcx
	callq	syslog
.LBB34_30:                              # %make_log_entry.exit
	movq	712(%rbx), %rdi
	testq	%rdi, %rdi
	je	.LBB34_32
# BB#31:                                # %if.then
	leaq	560(%rbx), %rsi
	movq	%r14, %rdx
	callq	mmc_unmap
	movq	$0, 712(%rbx)
.LBB34_32:                              # %if.end
	movl	704(%rbx), %edi
	testl	%edi, %edi
	js	.LBB34_34
# BB#33:                                # %if.then4
	callq	close
	movl	$-1, 704(%rbx)
.LBB34_34:                              # %if.end7
	addq	$640, %rsp              # imm = 0x280
	popq	%rbx
	popq	%r12
	popq	%r13
	popq	%r14
	popq	%r15
	ret
.Ltmp354:
	.size	httpd_close_conn, .Ltmp354-httpd_close_conn
	.cfi_endproc

	.globl	httpd_destroy_conn
	.align	16, 0x90
	.type	httpd_destroy_conn,@function
httpd_destroy_conn:                     # @httpd_destroy_conn
	.cfi_startproc
# BB#0:                                 # %entry
	pushq	%rbx
.Ltmp357:
	.cfi_def_cfa_offset 16
.Ltmp358:
	.cfi_offset %rbx, -16
	movq	%rdi, %rbx
	cmpl	$0, (%rbx)
	je	.LBB35_2
# BB#1:                                 # %if.then
	movq	144(%rbx), %rdi
	callq	free
	movq	216(%rbx), %rdi
	callq	free
	movq	232(%rbx), %rdi
	callq	free
	movq	240(%rbx), %rdi
	callq	free
	movq	248(%rbx), %rdi
	callq	free
	movq	256(%rbx), %rdi
	callq	free
	movq	264(%rbx), %rdi
	callq	free
	movq	288(%rbx), %rdi
	callq	free
	movq	296(%rbx), %rdi
	callq	free
	movq	328(%rbx), %rdi
	callq	free
	movq	344(%rbx), %rdi
	callq	free
	movq	360(%rbx), %rdi
	callq	free
	movq	368(%rbx), %rdi
	callq	free
	movl	$0, (%rbx)
.LBB35_2:                               # %if.end
	popq	%rbx
	ret
.Ltmp359:
	.size	httpd_destroy_conn, .Ltmp359-httpd_destroy_conn
	.cfi_endproc

	.globl	httpd_start_request
	.align	16, 0x90
	.type	httpd_start_request,@function
httpd_start_request:                    # @httpd_start_request
	.cfi_startproc
# BB#0:                                 # %entry
	jmp	really_start_request    # TAILCALL
.Ltmp360:
	.size	httpd_start_request, .Ltmp360-httpd_start_request
	.cfi_endproc

	.globl	httpd_read_fully
	.align	16, 0x90
	.type	httpd_read_fully,@function
httpd_read_fully:                       # @httpd_read_fully
	.cfi_startproc
# BB#0:                                 # %entry
	pushq	%rbp
.Ltmp368:
	.cfi_def_cfa_offset 16
	pushq	%r15
.Ltmp369:
	.cfi_def_cfa_offset 24
	pushq	%r14
.Ltmp370:
	.cfi_def_cfa_offset 32
	pushq	%r13
.Ltmp371:
	.cfi_def_cfa_offset 40
	pushq	%r12
.Ltmp372:
	.cfi_def_cfa_offset 48
	pushq	%rbx
.Ltmp373:
	.cfi_def_cfa_offset 56
	pushq	%rax
.Ltmp374:
	.cfi_def_cfa_offset 64
.Ltmp375:
	.cfi_offset %rbx, -56
.Ltmp376:
	.cfi_offset %r12, -48
.Ltmp377:
	.cfi_offset %r13, -40
.Ltmp378:
	.cfi_offset %r14, -32
.Ltmp379:
	.cfi_offset %r15, -24
.Ltmp380:
	.cfi_offset %rbp, -16
	movq	%rdx, %r15
	movq	%rsi, (%rsp)            # 8-byte Spill
	movl	%edi, %r12d
	xorl	%eax, %eax
	testq	%r15, %r15
	je	.LBB37_1
# BB#2:
	xorl	%r14d, %r14d
.LBB37_4:                               # %while.body.lr.ph
                                        # =>This Loop Header: Depth=1
                                        #     Child Loop BB37_5 Depth 2
	movq	(%rsp), %rcx            # 8-byte Reload
	leaq	(%rcx,%rax), %r13
	movq	%r15, %rbp
	subq	%rax, %rbp
	jmp	.LBB37_5
	.align	16, 0x90
.LBB37_8:                               # %if.then
                                        #   in Loop: Header=BB37_5 Depth=2
	movl	$1, %edi
	callq	sleep
.LBB37_5:                               # %while.body
                                        #   Parent Loop BB37_4 Depth=1
                                        # =>  This Inner Loop Header: Depth=2
	movl	%r12d, %edi
	movq	%r13, %rsi
	movq	%rbp, %rdx
	callq	read
	movq	%rax, %rbx
	testl	%ebx, %ebx
	jns	.LBB37_9
# BB#6:                                 # %land.lhs.true
                                        #   in Loop: Header=BB37_5 Depth=2
	callq	__errno_location
	movl	(%rax), %eax
	cmpl	$4, %eax
	je	.LBB37_8
# BB#7:                                 # %land.lhs.true
                                        #   in Loop: Header=BB37_5 Depth=2
	cmpl	$11, %eax
	je	.LBB37_8
	jmp	.LBB37_11
	.align	16, 0x90
.LBB37_9:                               # %if.end16
                                        #   in Loop: Header=BB37_4 Depth=1
	testl	%ebx, %ebx
	je	.LBB37_10
# BB#3:                                 # %while.cond.outer
                                        #   in Loop: Header=BB37_4 Depth=1
	addl	%r14d, %ebx
	movslq	%ebx, %rax
	cmpq	%r15, %rax
	movl	%ebx, %r14d
	jb	.LBB37_4
	jmp	.LBB37_11
.LBB37_1:
	xorl	%ebx, %ebx
.LBB37_11:                              # %return
	movl	%ebx, %eax
	addq	$8, %rsp
	popq	%rbx
	popq	%r12
	popq	%r13
	popq	%r14
	popq	%r15
	popq	%rbp
	ret
.LBB37_10:
	movl	%r14d, %ebx
	jmp	.LBB37_11
.Ltmp381:
	.size	httpd_read_fully, .Ltmp381-httpd_read_fully
	.cfi_endproc

	.globl	httpd_logstats
	.align	16, 0x90
	.type	httpd_logstats,@function
httpd_logstats:                         # @httpd_logstats
	.cfi_startproc
# BB#0:                                 # %entry
	movl	str_alloc_count(%rip), %edx
	testl	%edx, %edx
	jle	.LBB38_5
# BB#1:                                 # %if.then
	movq	str_alloc_size(%rip), %rcx
	testq	%rcx, %rcx
	js	.LBB38_2
# BB#3:                                 # %if.then
	cvtsi2ssq	%rcx, %xmm0
	jmp	.LBB38_4
.LBB38_5:                               # %if.end
	ret
.LBB38_2:
	movq	%rcx, %rax
	shrq	%rax
	movq	%rcx, %rsi
	andq	$1, %rsi
	orq	%rax, %rsi
	cvtsi2ssq	%rsi, %xmm0
	addss	%xmm0, %xmm0
.LBB38_4:                               # %if.then
	cvtsi2ssl	%edx, %xmm1
	divss	%xmm1, %xmm0
	cvtss2sd	%xmm0, %xmm0
	movl	$6, %edi
	movl	$.L.str5799, %esi
	movb	$1, %al
	jmp	syslog                  # TAILCALL
.Ltmp382:
	.size	httpd_logstats, .Ltmp382-httpd_logstats
	.cfi_endproc

	.align	16, 0x90
	.type	initialize_listen_socket,@function
initialize_listen_socket:               # @initialize_listen_socket
	.cfi_startproc
# BB#0:                                 # %entry
	pushq	%rbp
.Ltmp386:
	.cfi_def_cfa_offset 16
	pushq	%rbx
.Ltmp387:
	.cfi_def_cfa_offset 24
	pushq	%rax
.Ltmp388:
	.cfi_def_cfa_offset 32
.Ltmp389:
	.cfi_offset %rbx, -24
.Ltmp390:
	.cfi_offset %rbp, -16
	movq	%rdi, %rbx
	movzwl	(%rbx), %edi
	movl	%edi, %eax
	orl	$8, %eax
	cmpl	$10, %eax
	jne	.LBB39_1
# BB#2:                                 # %if.end
	movl	$1, %esi
	xorl	%edx, %edx
	callq	socket
	movl	%eax, %ebp
	testl	%ebp, %ebp
	js	.LBB39_3
# BB#4:                                 # %if.end5
	movl	$2, %esi
	movl	$1, %edx
	xorl	%eax, %eax
	movl	%ebp, %edi
	callq	fcntl
	movl	$1, 4(%rsp)
	leaq	4(%rsp), %rcx
	movl	$1, %esi
	movl	$2, %edx
	movl	$4, %r8d
	movl	%ebp, %edi
	callq	setsockopt
	testl	%eax, %eax
	jns	.LBB39_6
# BB#5:                                 # %if.then10
	movl	$2, %edi
	movl	$.L.str533, %esi
	xorl	%eax, %eax
	callq	syslog
.LBB39_6:                               # %if.end11
	movzwl	(%rbx), %eax
	movl	$16, %edx
	cmpl	$2, %eax
	je	.LBB39_10
# BB#7:                                 # %if.end11
	cmpl	$10, %eax
	jne	.LBB39_9
# BB#8:                                 # %sw.bb1.i
	movl	$28, %edx
	jmp	.LBB39_10
.LBB39_1:                               # %if.then
	movl	$2, %edi
	movl	$.L.str531, %esi
	xorl	%eax, %eax
	callq	syslog
	jmp	.LBB39_20
.LBB39_3:                               # %if.then3
	movq	%rbx, %rdi
	callq	httpd_ntoa
	movl	$2, %edi
	movl	$.L.str532, %esi
	movl	$httpd_ntoa.str, %edx
	xorl	%eax, %eax
	callq	syslog
	jmp	.LBB39_20
.LBB39_9:                               # %sw.default.i59
	xorl	%edx, %edx
.LBB39_10:                              # %sockaddr_len.exit
	movl	%ebp, %edi
	movq	%rbx, %rsi
	callq	bind
	testl	%eax, %eax
	js	.LBB39_11
# BB#12:                                # %if.end21
	movl	$3, %esi
	xorl	%edx, %edx
	xorl	%eax, %eax
	movl	%ebp, %edi
	callq	fcntl
	movl	%eax, %ecx
	cmpl	$-1, %ecx
	je	.LBB39_13
# BB#14:                                # %if.end27
	orl	$2048, %ecx             # imm = 0x800
	movl	$4, %esi
	xorl	%eax, %eax
	movl	%ebp, %edi
	movl	%ecx, %edx
	callq	fcntl
	testl	%eax, %eax
	js	.LBB39_15
# BB#16:                                # %if.end33
	movl	$1024, %esi             # imm = 0x400
	movl	%ebp, %edi
	callq	listen
	testl	%eax, %eax
	jns	.LBB39_21
# BB#17:                                # %if.then37
	movl	$2, %edi
	movl	$.L.str537157, %esi
	jmp	.LBB39_18
.LBB39_11:                              # %if.then18
	movq	%rbx, %rdi
	callq	httpd_ntoa
	movl	$2, %edi
	movl	$.L.str534, %esi
	movl	$httpd_ntoa.str, %edx
	xorl	%eax, %eax
	callq	syslog
	jmp	.LBB39_19
.LBB39_13:                              # %if.then25
	movl	$2, %edi
	movl	$.L.str535, %esi
	jmp	.LBB39_18
.LBB39_15:                              # %if.then31
	movl	$2, %edi
	movl	$.L.str536, %esi
.LBB39_18:                              # %return
	xorl	%eax, %eax
	callq	syslog
.LBB39_19:                              # %return
	movl	%ebp, %edi
	callq	close
.LBB39_20:                              # %return
	movl	$-1, %ebp
.LBB39_21:                              # %return
	movl	%ebp, %eax
	addq	$8, %rsp
	popq	%rbx
	popq	%rbp
	ret
.Ltmp391:
	.size	initialize_listen_socket, .Ltmp391-initialize_listen_socket
	.cfi_endproc

	.align	16, 0x90
	.type	free_httpd_server,@function
free_httpd_server:                      # @free_httpd_server
	.cfi_startproc
# BB#0:                                 # %entry
	pushq	%rbx
.Ltmp394:
	.cfi_def_cfa_offset 16
.Ltmp395:
	.cfi_offset %rbx, -16
	movq	%rdi, %rbx
	movq	(%rbx), %rdi
	testq	%rdi, %rdi
	je	.LBB40_2
# BB#1:                                 # %if.then
	callq	free
.LBB40_2:                               # %if.end
	movq	64(%rbx), %rdi
	testq	%rdi, %rdi
	je	.LBB40_4
# BB#3:                                 # %if.then3
	callq	free
.LBB40_4:                               # %if.end5
	movq	24(%rbx), %rdi
	testq	%rdi, %rdi
	je	.LBB40_6
# BB#5:                                 # %if.then7
	callq	free
.LBB40_6:                               # %if.end9
	movq	40(%rbx), %rdi
	testq	%rdi, %rdi
	je	.LBB40_8
# BB#7:                                 # %if.then11
	callq	free
.LBB40_8:                               # %if.end13
	movq	48(%rbx), %rdi
	testq	%rdi, %rdi
	je	.LBB40_10
# BB#9:                                 # %if.then15
	callq	free
.LBB40_10:                              # %if.end17
	movq	112(%rbx), %rdi
	testq	%rdi, %rdi
	je	.LBB40_12
# BB#11:                                # %if.then19
	callq	free
.LBB40_12:                              # %if.end21
	movq	120(%rbx), %rdi
	testq	%rdi, %rdi
	je	.LBB40_14
# BB#13:                                # %if.then23
	callq	free
.LBB40_14:                              # %if.end25
	movq	%rbx, %rdi
	popq	%rbx
	jmp	free                    # TAILCALL
.Ltmp396:
	.size	free_httpd_server, .Ltmp396-free_httpd_server
	.cfi_endproc

	.align	16, 0x90
	.type	ext_compare,@function
ext_compare:                            # @ext_compare
	.cfi_startproc
# BB#0:                                 # %entry
	movq	(%rdi), %rdi
	movq	(%rsi), %rsi
	jmp	strcmp                  # TAILCALL
.Ltmp397:
	.size	ext_compare, .Ltmp397-ext_compare
	.cfi_endproc

	.align	16, 0x90
	.type	my_snprintf,@function
my_snprintf:                            # @my_snprintf
	.cfi_startproc
# BB#0:                                 # %entry
	subq	$200, %rsp
.Ltmp399:
	.cfi_def_cfa_offset 208
	testb	%al, %al
	je	.LBB42_2
# BB#1:                                 # %entry
	movaps	%xmm0, 48(%rsp)
	movaps	%xmm1, 64(%rsp)
	movaps	%xmm2, 80(%rsp)
	movaps	%xmm3, 96(%rsp)
	movaps	%xmm4, 112(%rsp)
	movaps	%xmm5, 128(%rsp)
	movaps	%xmm6, 144(%rsp)
	movaps	%xmm7, 160(%rsp)
.LBB42_2:                               # %entry
	movq	%r9, 40(%rsp)
	movq	%r8, 32(%rsp)
	movq	%rcx, 24(%rsp)
	leaq	(%rsp), %rax
	movq	%rax, 192(%rsp)
	leaq	208(%rsp), %rax
	movq	%rax, 184(%rsp)
	movl	$48, 180(%rsp)
	movl	$24, 176(%rsp)
	leaq	176(%rsp), %rcx
	callq	vsnprintf
	addq	$200, %rsp
	ret
.Ltmp400:
	.size	my_snprintf, .Ltmp400-my_snprintf
	.cfi_endproc

	.align	16, 0x90
	.type	send_err_file,@function
send_err_file:                          # @send_err_file
	.cfi_startproc
# BB#0:                                 # %entry
	pushq	%rbp
.Ltmp408:
	.cfi_def_cfa_offset 16
	pushq	%r15
.Ltmp409:
	.cfi_def_cfa_offset 24
	pushq	%r14
.Ltmp410:
	.cfi_def_cfa_offset 32
	pushq	%r13
.Ltmp411:
	.cfi_def_cfa_offset 40
	pushq	%r12
.Ltmp412:
	.cfi_def_cfa_offset 48
	pushq	%rbx
.Ltmp413:
	.cfi_def_cfa_offset 56
	subq	$2024, %rsp             # imm = 0x7E8
.Ltmp414:
	.cfi_def_cfa_offset 2080
.Ltmp415:
	.cfi_offset %rbx, -56
.Ltmp416:
	.cfi_offset %r12, -48
.Ltmp417:
	.cfi_offset %r13, -40
.Ltmp418:
	.cfi_offset %r14, -32
.Ltmp419:
	.cfi_offset %r15, -24
.Ltmp420:
	.cfi_offset %rbp, -16
	movq	%rcx, %r12
	movq	%rdx, %r15
	movl	%esi, %ebp
	movq	%rdi, %rbx
	movl	$.L.str500, %esi
	movq	%r8, %rdi
	callq	fopen
	movq	%rax, %r14
	xorl	%eax, %eax
	testq	%r14, %r14
	je	.LBB43_5
# BB#1:                                 # %if.end
	movq	$0, 8(%rsp)
	movq	$-1, (%rsp)
	movl	$.L.str2669, %ecx
	movl	$.L.str183, %r9d
	movl	%ebp, %esi
	movq	%r12, %r8
	movq	%rbx, %rdi
	movq	%r15, %rdx
	callq	send_mime
	leaq	16(%rsp), %rdi
	movl	$1, %esi
	movl	$999, %edx              # imm = 0x3E7
	movq	%r14, %rcx
	callq	fread
	leaq	368(%rbx), %r15
	leaq	464(%rbx), %r12
	testq	%rax, %rax
	je	.LBB43_4
# BB#2:
	leaq	16(%rsp), %r13
	.align	16, 0x90
.LBB43_3:                               # %if.end4
                                        # =>This Inner Loop Header: Depth=1
	movb	$0, 16(%rsp,%rax)
	movq	%r13, %rdi
	callq	strlen
	movq	%rax, %rbp
	movq	472(%rbx), %rdx
	addq	%rbp, %rdx
	movq	%r15, %rdi
	movq	%r12, %rsi
	callq	httpd_realloc_str
	movq	368(%rbx), %rdi
	addq	472(%rbx), %rdi
	movq	%r13, %rsi
	movq	%rbp, %rdx
	callq	memcpy
	addq	%rbp, 472(%rbx)
	movl	$1, %esi
	movl	$999, %edx              # imm = 0x3E7
	movq	%r13, %rdi
	movq	%r14, %rcx
	callq	fread
	testq	%rax, %rax
	jne	.LBB43_3
.LBB43_4:                               # %for.end
	movq	%r14, %rdi
	callq	fclose
	leaq	1024(%rsp), %r14
	movl	$1000, %esi             # imm = 0x3E8
	movl	$.L.str524, %edx
	movl	$.L.str525, %ecx
	movl	$.L.str840, %r8d
	xorl	%eax, %eax
	movq	%r14, %rdi
	callq	my_snprintf
	movq	%r14, %rdi
	callq	strlen
	movq	%rax, %rbp
	movq	472(%rbx), %rdx
	addq	%rbp, %rdx
	movq	%r15, %rdi
	movq	%r12, %rsi
	callq	httpd_realloc_str
	movq	368(%rbx), %rdi
	addq	472(%rbx), %rdi
	movq	%r14, %rsi
	movq	%rbp, %rdx
	callq	memcpy
	addq	%rbp, 472(%rbx)
	movl	$1, %eax
.LBB43_5:                               # %cleanup
	addq	$2024, %rsp             # imm = 0x7E8
	popq	%rbx
	popq	%r12
	popq	%r13
	popq	%r14
	popq	%r15
	popq	%rbp
	ret
.Ltmp421:
	.size	send_err_file, .Ltmp421-send_err_file
	.cfi_endproc

	.align	16, 0x90
	.type	send_response,@function
send_response:                          # @send_response
	.cfi_startproc
# BB#0:                                 # %entry
	pushq	%rbp
.Ltmp429:
	.cfi_def_cfa_offset 16
	pushq	%r15
.Ltmp430:
	.cfi_def_cfa_offset 24
	pushq	%r14
.Ltmp431:
	.cfi_def_cfa_offset 32
	pushq	%r13
.Ltmp432:
	.cfi_def_cfa_offset 40
	pushq	%r12
.Ltmp433:
	.cfi_def_cfa_offset 48
	pushq	%rbx
.Ltmp434:
	.cfi_def_cfa_offset 56
	subq	$4040, %rsp             # imm = 0xFC8
.Ltmp435:
	.cfi_def_cfa_offset 4096
.Ltmp436:
	.cfi_offset %rbx, -56
.Ltmp437:
	.cfi_offset %r12, -48
.Ltmp438:
	.cfi_offset %r13, -40
.Ltmp439:
	.cfi_offset %r14, -32
.Ltmp440:
	.cfi_offset %r15, -24
.Ltmp441:
	.cfi_offset %rbp, -16
	movq	%r9, %rbx
	movq	%r8, 24(%rsp)           # 8-byte Spill
	movq	%rcx, %rax
	movq	%rdx, %r14
	movl	%esi, %ebp
	movq	%rdi, %r13
	movq	$0, 8(%rsp)
	movq	$-1, (%rsp)
	movl	$.L.str2669, %ecx
	movl	$.L.str183, %r9d
	movq	%rax, %r8
	callq	send_mime
	movq	%r14, (%rsp)
	leaq	32(%rsp), %r12
	movl	$2000, %esi             # imm = 0x7D0
	movl	$.L.str526, %edx
	xorl	%eax, %eax
	movl	%ebp, %ecx
	movq	%r14, %r8
	movq	%r12, %rdi
	movl	%ebp, %r9d
	callq	my_snprintf
	movq	%r12, %rdi
	callq	strlen
	movq	%rax, %rbp
	leaq	368(%r13), %r14
	leaq	464(%r13), %r15
	movq	472(%r13), %rdx
	addq	%rbp, %rdx
	movq	%r14, %rdi
	movq	%r15, %rsi
	callq	httpd_realloc_str
	movq	368(%r13), %rdi
	addq	472(%r13), %rdi
	movq	%r12, %rsi
	movq	%rbp, %rdx
	callq	memcpy
	addq	%rbp, 472(%r13)
	movb	(%rbx), %dl
	testb	%dl, %dl
	je	.LBB44_1
# BB#2:                                 # %land.rhs.lr.ph.i
	leaq	2032(%rsp), %rcx
	incq	%rbx
	movq	%rcx, %rax
	.align	16, 0x90
.LBB44_3:                               # %land.rhs.i
                                        # =>This Inner Loop Header: Depth=1
	movq	%rax, %rsi
	subq	%rcx, %rsi
	cmpq	$994, %rsi              # imm = 0x3E2
	jg	.LBB44_10
# BB#4:                                 # %for.body.i
                                        #   in Loop: Header=BB44_3 Depth=1
	movsbl	%dl, %esi
	cmpl	$62, %esi
	jne	.LBB44_5
# BB#7:                                 # %sw.bb8.i
                                        #   in Loop: Header=BB44_3 Depth=1
	movl	$997484326, (%rax)      # imm = 0x3B746726
	addq	$3, %rax
	jmp	.LBB44_9
	.align	16, 0x90
.LBB44_5:                               # %for.body.i
                                        #   in Loop: Header=BB44_3 Depth=1
	cmpl	$60, %esi
	jne	.LBB44_8
# BB#6:                                 # %sw.bb.i
                                        #   in Loop: Header=BB44_3 Depth=1
	movl	$997485606, (%rax)      # imm = 0x3B746C26
	addq	$3, %rax
	jmp	.LBB44_9
	.align	16, 0x90
.LBB44_8:                               # %sw.default.i
                                        #   in Loop: Header=BB44_3 Depth=1
	movb	%dl, (%rax)
.LBB44_9:                               # %for.inc.i
                                        #   in Loop: Header=BB44_3 Depth=1
	incq	%rax
	movb	(%rbx), %dl
	incq	%rbx
	testb	%dl, %dl
	jne	.LBB44_3
	jmp	.LBB44_10
.LBB44_1:
	leaq	2032(%rsp), %rax
.LBB44_10:                              # %defang.exit
	movb	$0, (%rax)
	leaq	32(%rsp), %rbx
	leaq	2032(%rsp), %rcx
	movl	$2000, %esi             # imm = 0x7D0
	xorl	%eax, %eax
	movq	%rbx, %rdi
	movq	24(%rsp), %rdx          # 8-byte Reload
	callq	my_snprintf
	movq	%rbx, %rdi
	callq	strlen
	movq	%rax, %rbp
	movq	472(%r13), %rdx
	addq	%rbp, %rdx
	movq	%r14, %rdi
	movq	%r15, %rsi
	callq	httpd_realloc_str
	movq	368(%r13), %rdi
	addq	472(%r13), %rdi
	movq	%rbx, %rsi
	movq	%rbp, %rdx
	callq	memcpy
	addq	%rbp, 472(%r13)
	movq	280(%r13), %rsi
	movl	$.L.str527, %edi
	callq	match
	testl	%eax, %eax
	je	.LBB44_12
# BB#11:                                # %if.then
	movq	472(%r13), %rdx
	addq	$5, %rdx
	movq	%r14, %rdi
	movq	%r15, %rsi
	callq	httpd_realloc_str
	movq	368(%r13), %rax
	movq	472(%r13), %rcx
	movb	$10, 4(%rax,%rcx)
	movl	$757932348, (%rax,%rcx) # imm = 0x2D2D213C
	movq	472(%r13), %rdx
	leaq	5(%rdx), %rax
	movq	%rax, 472(%r13)
	addq	$83, %rdx
	movq	%r14, %rdi
	movq	%r15, %rsi
	callq	httpd_realloc_str
	movq	368(%r13), %rax
	movq	472(%r13), %rcx
	movups	.L.str529+62(%rip), %xmm0
	movups	%xmm0, 62(%rax,%rcx)
	movups	.L.str529+48(%rip), %xmm0
	movups	%xmm0, 48(%rax,%rcx)
	movups	.L.str529+32(%rip), %xmm0
	movups	%xmm0, 32(%rax,%rcx)
	movups	.L.str529+16(%rip), %xmm0
	movups	%xmm0, 16(%rax,%rcx)
	movups	.L.str529(%rip), %xmm0
	movups	%xmm0, (%rax,%rcx)
	movq	472(%r13), %rdx
	leaq	78(%rdx), %rax
	movq	%rax, 472(%r13)
	addq	$156, %rdx
	movq	%r14, %rdi
	movq	%r15, %rsi
	callq	httpd_realloc_str
	movq	368(%r13), %rax
	movq	472(%r13), %rcx
	movups	.L.str529+62(%rip), %xmm0
	movups	%xmm0, 62(%rax,%rcx)
	movups	.L.str529+48(%rip), %xmm0
	movups	%xmm0, 48(%rax,%rcx)
	movups	.L.str529+32(%rip), %xmm0
	movups	%xmm0, 32(%rax,%rcx)
	movups	.L.str529+16(%rip), %xmm0
	movups	%xmm0, 16(%rax,%rcx)
	movups	.L.str529(%rip), %xmm0
	movups	%xmm0, (%rax,%rcx)
	movq	472(%r13), %rdx
	leaq	78(%rdx), %rax
	movq	%rax, 472(%r13)
	addq	$156, %rdx
	movq	%r14, %rdi
	movq	%r15, %rsi
	callq	httpd_realloc_str
	movq	368(%r13), %rax
	movq	472(%r13), %rcx
	movups	.L.str529+62(%rip), %xmm0
	movups	%xmm0, 62(%rax,%rcx)
	movups	.L.str529+48(%rip), %xmm0
	movups	%xmm0, 48(%rax,%rcx)
	movups	.L.str529+32(%rip), %xmm0
	movups	%xmm0, 32(%rax,%rcx)
	movups	.L.str529+16(%rip), %xmm0
	movups	%xmm0, 16(%rax,%rcx)
	movups	.L.str529(%rip), %xmm0
	movups	%xmm0, (%rax,%rcx)
	movq	472(%r13), %rdx
	leaq	78(%rdx), %rax
	movq	%rax, 472(%r13)
	addq	$156, %rdx
	movq	%r14, %rdi
	movq	%r15, %rsi
	callq	httpd_realloc_str
	movq	368(%r13), %rax
	movq	472(%r13), %rcx
	movups	.L.str529+62(%rip), %xmm0
	movups	%xmm0, 62(%rax,%rcx)
	movups	.L.str529+48(%rip), %xmm0
	movups	%xmm0, 48(%rax,%rcx)
	movups	.L.str529+32(%rip), %xmm0
	movups	%xmm0, 32(%rax,%rcx)
	movups	.L.str529+16(%rip), %xmm0
	movups	%xmm0, 16(%rax,%rcx)
	movups	.L.str529(%rip), %xmm0
	movups	%xmm0, (%rax,%rcx)
	movq	472(%r13), %rdx
	leaq	78(%rdx), %rax
	movq	%rax, 472(%r13)
	addq	$156, %rdx
	movq	%r14, %rdi
	movq	%r15, %rsi
	callq	httpd_realloc_str
	movq	368(%r13), %rax
	movq	472(%r13), %rcx
	movups	.L.str529+62(%rip), %xmm0
	movups	%xmm0, 62(%rax,%rcx)
	movups	.L.str529+48(%rip), %xmm0
	movups	%xmm0, 48(%rax,%rcx)
	movups	.L.str529+32(%rip), %xmm0
	movups	%xmm0, 32(%rax,%rcx)
	movups	.L.str529+16(%rip), %xmm0
	movups	%xmm0, 16(%rax,%rcx)
	movups	.L.str529(%rip), %xmm0
	movups	%xmm0, (%rax,%rcx)
	movq	472(%r13), %rdx
	leaq	78(%rdx), %rax
	movq	%rax, 472(%r13)
	addq	$156, %rdx
	movq	%r14, %rdi
	movq	%r15, %rsi
	callq	httpd_realloc_str
	movq	368(%r13), %rax
	movq	472(%r13), %rcx
	movups	.L.str529+62(%rip), %xmm0
	movups	%xmm0, 62(%rax,%rcx)
	movups	.L.str529+48(%rip), %xmm0
	movups	%xmm0, 48(%rax,%rcx)
	movups	.L.str529+32(%rip), %xmm0
	movups	%xmm0, 32(%rax,%rcx)
	movups	.L.str529+16(%rip), %xmm0
	movups	%xmm0, 16(%rax,%rcx)
	movups	.L.str529(%rip), %xmm0
	movups	%xmm0, (%rax,%rcx)
	movq	472(%r13), %rdx
	leaq	78(%rdx), %rax
	movq	%rax, 472(%r13)
	addq	$82, %rdx
	movq	%r14, %rdi
	movq	%r15, %rsi
	callq	httpd_realloc_str
	movq	368(%r13), %rax
	movq	472(%r13), %rcx
	movl	$171846957, (%rax,%rcx) # imm = 0xA3E2D2D
	addq	$4, 472(%r13)
.LBB44_12:                              # %if.end
	leaq	3040(%rsp), %rbx
	movl	$1000, %esi             # imm = 0x3E8
	movl	$.L.str524, %edx
	movl	$.L.str525, %ecx
	movl	$.L.str840, %r8d
	xorl	%eax, %eax
	movq	%rbx, %rdi
	callq	my_snprintf
	movq	%rbx, %rdi
	callq	strlen
	movq	%rax, %rbp
	movq	472(%r13), %rdx
	addq	%rbp, %rdx
	movq	%r14, %rdi
	movq	%r15, %rsi
	callq	httpd_realloc_str
	movq	368(%r13), %rdi
	addq	472(%r13), %rdi
	movq	%rbx, %rsi
	movq	%rbp, %rdx
	callq	memcpy
	addq	%rbp, 472(%r13)
	addq	$4040, %rsp             # imm = 0xFC8
	popq	%rbx
	popq	%r12
	popq	%r13
	popq	%r14
	popq	%r15
	popq	%rbp
	ret
.Ltmp442:
	.size	send_response, .Ltmp442-send_response
	.cfi_endproc

	.align	16, 0x90
	.type	strdecode,@function
strdecode:                              # @strdecode
	.cfi_startproc
# BB#0:                                 # %entry
	pushq	%rbp
.Ltmp448:
	.cfi_def_cfa_offset 16
	pushq	%r15
.Ltmp449:
	.cfi_def_cfa_offset 24
	pushq	%r14
.Ltmp450:
	.cfi_def_cfa_offset 32
	pushq	%rbx
.Ltmp451:
	.cfi_def_cfa_offset 40
	pushq	%rax
.Ltmp452:
	.cfi_def_cfa_offset 48
.Ltmp453:
	.cfi_offset %rbx, -40
.Ltmp454:
	.cfi_offset %r14, -32
.Ltmp455:
	.cfi_offset %r15, -24
.Ltmp456:
	.cfi_offset %rbp, -16
	movq	%rsi, %rbx
	movq	%rdi, %r14
	jmp	.LBB45_1
	.align	16, 0x90
.LBB45_19:                              # %for.inc
                                        #   in Loop: Header=BB45_1 Depth=1
	movb	%bpl, (%r14)
	incq	%r14
	incq	%rbx
.LBB45_1:                               # %for.cond
                                        # =>This Inner Loop Header: Depth=1
	movb	(%rbx), %bpl
	testb	%bpl, %bpl
	je	.LBB45_20
# BB#2:                                 # %for.cond
                                        #   in Loop: Header=BB45_1 Depth=1
	movzbl	%bpl, %eax
	cmpl	$37, %eax
	jne	.LBB45_19
# BB#3:                                 # %land.lhs.true
                                        #   in Loop: Header=BB45_1 Depth=1
	movsbq	1(%rbx), %r15
	callq	__ctype_b_loc
	movq	(%rax), %rcx
	testb	$16, 1(%rcx,%r15,2)
	jne	.LBB45_5
# BB#4:                                 #   in Loop: Header=BB45_1 Depth=1
	movb	$37, %bpl
	jmp	.LBB45_19
	.align	16, 0x90
.LBB45_5:                               # %land.lhs.true9
                                        #   in Loop: Header=BB45_1 Depth=1
	movsbq	2(%rbx), %rax
	testb	$16, 1(%rcx,%rax,2)
	je	.LBB45_19
# BB#6:                                 # %if.then
                                        #   in Loop: Header=BB45_1 Depth=1
	movb	%r15b, %bpl
	addb	$-48, %bpl
	movzbl	%bpl, %ecx
	cmpl	$10, %ecx
	jb	.LBB45_12
# BB#7:                                 # %if.end.i
                                        #   in Loop: Header=BB45_1 Depth=1
	movb	%r15b, %cl
	addb	$-97, %cl
	movzbl	%cl, %ecx
	cmpl	$5, %ecx
	ja	.LBB45_9
# BB#8:                                 # %if.then13.i
                                        #   in Loop: Header=BB45_1 Depth=1
	addb	$-87, %r15b
	movb	%r15b, %bpl
	jmp	.LBB45_12
.LBB45_9:                               # %if.end16.i
                                        #   in Loop: Header=BB45_1 Depth=1
	movb	%r15b, %cl
	addb	$-65, %cl
	movzbl	%cl, %ecx
	cmpl	$6, %ecx
	jb	.LBB45_10
# BB#11:                                # %if.end16.i
                                        #   in Loop: Header=BB45_1 Depth=1
	xorl	%ebp, %ebp
	jmp	.LBB45_12
.LBB45_10:                              #   in Loop: Header=BB45_1 Depth=1
	addb	$-55, %r15b
	movb	%r15b, %bpl
.LBB45_12:                              # %hexit.exit
                                        #   in Loop: Header=BB45_1 Depth=1
	movb	%al, %cl
	addb	$-48, %cl
	movzbl	%cl, %edx
	cmpl	$10, %edx
	jb	.LBB45_18
# BB#13:                                # %if.end.i41
                                        #   in Loop: Header=BB45_1 Depth=1
	movb	%al, %cl
	addb	$-97, %cl
	movzbl	%cl, %ecx
	cmpl	$5, %ecx
	ja	.LBB45_15
# BB#14:                                # %if.then13.i43
                                        #   in Loop: Header=BB45_1 Depth=1
	addb	$-87, %al
	movb	%al, %cl
	jmp	.LBB45_18
.LBB45_15:                              # %if.end16.i47
                                        #   in Loop: Header=BB45_1 Depth=1
	movb	%al, %cl
	addb	$-65, %cl
	movzbl	%cl, %ecx
	cmpl	$6, %ecx
	jb	.LBB45_16
# BB#17:                                # %if.end16.i47
                                        #   in Loop: Header=BB45_1 Depth=1
	xorl	%ecx, %ecx
	jmp	.LBB45_18
.LBB45_16:                              #   in Loop: Header=BB45_1 Depth=1
	addb	$-55, %al
	movb	%al, %cl
.LBB45_18:                              # %hexit.exit50
                                        #   in Loop: Header=BB45_1 Depth=1
	addq	$2, %rbx
	shlb	$4, %bpl
	addb	%cl, %bpl
	jmp	.LBB45_19
.LBB45_20:                              # %for.end
	movb	$0, (%r14)
	addq	$8, %rsp
	popq	%rbx
	popq	%r14
	popq	%r15
	popq	%rbp
	ret
.Ltmp457:
	.size	strdecode, .Ltmp457-strdecode
	.cfi_endproc

	.align	16, 0x90
	.type	expand_symlinks,@function
expand_symlinks:                        # @expand_symlinks
	.cfi_startproc
# BB#0:                                 # %entry
	pushq	%rbp
.Ltmp465:
	.cfi_def_cfa_offset 16
	pushq	%r15
.Ltmp466:
	.cfi_def_cfa_offset 24
	pushq	%r14
.Ltmp467:
	.cfi_def_cfa_offset 32
	pushq	%r13
.Ltmp468:
	.cfi_def_cfa_offset 40
	pushq	%r12
.Ltmp469:
	.cfi_def_cfa_offset 48
	pushq	%rbx
.Ltmp470:
	.cfi_def_cfa_offset 56
	subq	$5176, %rsp             # imm = 0x1438
.Ltmp471:
	.cfi_def_cfa_offset 5232
.Ltmp472:
	.cfi_offset %rbx, -56
.Ltmp473:
	.cfi_offset %r12, -48
.Ltmp474:
	.cfi_offset %r13, -40
.Ltmp475:
	.cfi_offset %r14, -32
.Ltmp476:
	.cfi_offset %r15, -24
.Ltmp477:
	.cfi_offset %rbp, -16
	movl	%ecx, %ebp
	movq	%rsi, %r14
	movq	%rdi, %r15
	testl	%edx, %edx
	je	.LBB46_6
# BB#1:                                 # %if.then
	leaq	32(%rsp), %rdx
	movl	$1, %edi
	movq	%r15, %rsi
	callq	__xstat
	cmpl	$-1, %eax
	je	.LBB46_6
# BB#2:                                 # %if.then1
	movq	%r15, %rdi
	callq	strlen
	movq	%rax, %rbx
	movl	$expand_symlinks.checked, %edi
	movl	$expand_symlinks.maxchecked, %esi
	movq	%rbx, %rdx
	callq	httpd_realloc_str
	movq	expand_symlinks.checked(%rip), %rdi
	movq	%r15, %rsi
	callq	strcpy
	movq	expand_symlinks.checked(%rip), %rax
	movzbl	-1(%rax,%rbx), %ecx
	cmpl	$47, %ecx
	jne	.LBB46_5
# BB#3:
	leaq	-1(%rax,%rbx), %rcx
	movq	%rbx, %rax
	decq	%rax
	.align	16, 0x90
.LBB46_4:                               # %while.body
                                        # =>This Inner Loop Header: Depth=1
	movb	$0, (%rcx)
	movq	expand_symlinks.checked(%rip), %rdx
	leaq	-1(%rdx,%rax), %rcx
	decq	%rax
	movzbl	-2(%rdx,%rbx), %edx
	decq	%rbx
	cmpl	$47, %edx
	je	.LBB46_4
.LBB46_5:                               # %cleanup
	movl	$expand_symlinks.rest, %edi
	movl	$expand_symlinks.maxrest, %esi
	xorl	%edx, %edx
	callq	httpd_realloc_str
	movq	expand_symlinks.rest(%rip), %rax
	movb	$0, (%rax)
	movq	expand_symlinks.rest(%rip), %rax
	movq	%rax, (%r14)
	jmp	.LBB46_69
.LBB46_6:                               # %if.end9
	movl	$expand_symlinks.checked, %edi
	movl	$expand_symlinks.maxchecked, %esi
	movl	$1, %edx
	callq	httpd_realloc_str
	movq	expand_symlinks.checked(%rip), %rax
	movb	$0, (%rax)
	movq	%r15, %rdi
	callq	strlen
	movq	%rax, %rbx
	movl	$expand_symlinks.rest, %edi
	movl	$expand_symlinks.maxrest, %esi
	movq	%rbx, %rdx
	callq	httpd_realloc_str
	movq	expand_symlinks.rest(%rip), %rdi
	movq	%r15, %rsi
	callq	strcpy
	movq	expand_symlinks.rest(%rip), %rax
	movzbl	-1(%rax,%rbx), %ecx
	cmpl	$47, %ecx
	jne	.LBB46_8
# BB#7:                                 # %if.then18
	decq	%rbx
	movb	$0, (%rax,%rbx)
.LBB46_8:                               # %if.end21
	movq	%r14, 16(%rsp)          # 8-byte Spill
	testl	%ebp, %ebp
	movq	expand_symlinks.rest(%rip), %rbp
	jne	.LBB46_11
	jmp	.LBB46_10
	.align	16, 0x90
.LBB46_9:                               # %while.body29
                                        #   in Loop: Header=BB46_10 Depth=1
	leaq	1(%rbp), %rsi
	movq	%rbp, %rdi
	callq	strcpy
	decq	%rbx
	movq	expand_symlinks.rest(%rip), %rbp
.LBB46_10:                              # %while.body29
                                        # =>This Inner Loop Header: Depth=1
	movzbl	(%rbp), %eax
	cmpl	$47, %eax
	je	.LBB46_9
.LBB46_11:                              # %if.end34
	movq	%r15, 8(%rsp)           # 8-byte Spill
	xorl	%r15d, %r15d
	testq	%rbx, %rbx
	je	.LBB46_67
# BB#12:
	movl	$0, 4(%rsp)             # 4-byte Folded Spill
.LBB46_13:                              # %while.body38.lr.ph
                                        # =>This Loop Header: Depth=1
                                        #     Child Loop BB46_14 Depth 2
                                        #     Child Loop BB46_61 Depth 2
	movq	%rbp, %r13
.LBB46_14:                              # %while.body38
                                        #   Parent Loop BB46_13 Depth=1
                                        # =>  This Inner Loop Header: Depth=2
	movl	$47, %esi
	movq	%r13, %rdi
	callq	strchr
	movq	%rax, %rbp
	testq	%rbp, %rbp
	jne	.LBB46_15
# BB#29:                                # %cond.true105
                                        #   in Loop: Header=BB46_14 Depth=2
	movzbl	(%r13), %eax
	cmpl	$46, %eax
	jne	.LBB46_37
# BB#30:                                # %if.then117
                                        #   in Loop: Header=BB46_14 Depth=2
	movzbl	1(%r13), %eax
	cmpl	$46, %eax
	jne	.LBB46_37
# BB#31:                                # %cond.end148
                                        #   in Loop: Header=BB46_14 Depth=2
	cmpb	$0, 2(%r13)
	jne	.LBB46_37
# BB#32:                                # %if.then152
                                        #   in Loop: Header=BB46_14 Depth=2
	testq	%r15, %r15
	movq	%r15, 24(%rsp)          # 8-byte Spill
	movq	%rbx, %r15
	movl	$0, %r14d
	movl	$0, %r12d
	je	.LBB46_42
# BB#33:                                # %if.then155
                                        #   in Loop: Header=BB46_14 Depth=2
	movq	expand_symlinks.checked(%rip), %rbp
	movl	$47, %esi
	movq	%rbp, %rdi
	callq	strrchr
	testq	%rax, %rax
	movl	$0, %r12d
	je	.LBB46_36
# BB#34:                                # %if.else160
                                        #   in Loop: Header=BB46_14 Depth=2
	subq	%rbp, %rax
	movl	$1, %r12d
	je	.LBB46_36
# BB#35:                                # %if.else164
                                        #   in Loop: Header=BB46_14 Depth=2
	movq	%rax, %r12
.LBB46_36:                              # %if.end169
                                        #   in Loop: Header=BB46_14 Depth=2
	movb	$0, (%rbp,%r12)
	jmp	.LBB46_41
	.align	16, 0x90
.LBB46_15:                              # %if.then42
                                        #   in Loop: Header=BB46_14 Depth=2
	subq	%r13, %rbp
	testl	%ebp, %ebp
	jne	.LBB46_17
# BB#16:                                # %if.then46
                                        #   in Loop: Header=BB46_14 Depth=2
	leaq	1(%r15), %r12
	movl	$expand_symlinks.checked, %edi
	movl	$expand_symlinks.maxchecked, %esi
	movq	%r12, %rdx
	callq	httpd_realloc_str
	movq	expand_symlinks.checked(%rip), %rdi
	addq	%r15, %rdi
	movq	%r15, 24(%rsp)          # 8-byte Spill
	movl	$1, %edx
	movq	%r13, %rsi
	callq	strncpy
	shlq	$32, %rbp
	movq	%rbp, %r15
	jmp	.LBB46_28
	.align	16, 0x90
.LBB46_37:                              # %if.else172
                                        #   in Loop: Header=BB46_14 Depth=2
	leaq	1(%r15,%rbx), %rdx
	movl	$expand_symlinks.checked, %edi
	movl	$expand_symlinks.maxchecked, %esi
	callq	httpd_realloc_str
	testq	%r15, %r15
	movl	$0, %r12d
	je	.LBB46_40
# BB#38:                                # %land.lhs.true177
                                        #   in Loop: Header=BB46_14 Depth=2
	movq	expand_symlinks.checked(%rip), %rax
	movzbl	-1(%r15,%rax), %ecx
	cmpl	$47, %ecx
	movq	%r15, %r12
	je	.LBB46_40
# BB#39:                                # %if.then183
                                        #   in Loop: Header=BB46_14 Depth=2
	leaq	1(%r15), %r12
	movb	$47, (%rax,%r15)
.LBB46_40:                              # %if.end186
                                        #   in Loop: Header=BB46_14 Depth=2
	movq	%r15, 24(%rsp)          # 8-byte Spill
	movq	expand_symlinks.checked(%rip), %rdi
	addq	%r12, %rdi
	movq	%r13, %rsi
	callq	strcpy
	addq	%rbx, %r12
.LBB46_41:                              # %if.end192
                                        #   in Loop: Header=BB46_14 Depth=2
	movq	%rbx, %r15
	xorl	%r14d, %r14d
	jmp	.LBB46_42
	.align	16, 0x90
.LBB46_17:                              # %if.else
                                        #   in Loop: Header=BB46_14 Depth=2
	movq	%r15, 24(%rsp)          # 8-byte Spill
	movq	%rbp, %r15
	shlq	$32, %r15
	cmpl	$2, %ebp
	movslq	%ebp, %r14
	movl	$2, %edx
	cmovgq	%r14, %rdx
	movl	$.L.str516, %esi
	movq	%r13, %rdi
	callq	strncmp
	testl	%eax, %eax
	jne	.LBB46_24
# BB#18:                                # %if.then56
                                        #   in Loop: Header=BB46_14 Depth=2
	cmpq	$0, 24(%rsp)            # 8-byte Folded Reload
	jne	.LBB46_20
# BB#19:                                #   in Loop: Header=BB46_14 Depth=2
	xorl	%r12d, %r12d
	jmp	.LBB46_28
.LBB46_24:                              # %if.else75
                                        #   in Loop: Header=BB46_14 Depth=2
	movq	24(%rsp), %rbp          # 8-byte Reload
	leaq	1(%r14,%rbp), %rdx
	movl	$expand_symlinks.checked, %edi
	movl	$expand_symlinks.maxchecked, %esi
	callq	httpd_realloc_str
	testq	%rbp, %rbp
	movl	$0, %r12d
	je	.LBB46_27
# BB#25:                                # %land.lhs.true
                                        #   in Loop: Header=BB46_14 Depth=2
	movq	expand_symlinks.checked(%rip), %rax
	movzbl	-1(%rbp,%rax), %ecx
	cmpl	$47, %ecx
	movq	%rbp, %r12
	je	.LBB46_27
# BB#26:                                # %if.then86
                                        #   in Loop: Header=BB46_14 Depth=2
	leaq	1(%rbp), %r12
	movb	$47, (%rax,%rbp)
.LBB46_27:                              # %if.end88
                                        #   in Loop: Header=BB46_14 Depth=2
	movq	expand_symlinks.checked(%rip), %rdi
	addq	%r12, %rdi
	movq	%r13, %rsi
	movq	%r14, %rdx
	callq	strncpy
	addq	%r14, %r12
	jmp	.LBB46_28
.LBB46_20:                              # %if.then59
                                        #   in Loop: Header=BB46_14 Depth=2
	movq	expand_symlinks.checked(%rip), %rbp
	movl	$47, %esi
	movq	%rbp, %rdi
	callq	strrchr
	movq	%rax, %r12
	testq	%r12, %r12
	jne	.LBB46_22
# BB#21:                                #   in Loop: Header=BB46_14 Depth=2
	xorl	%r12d, %r12d
	jmp	.LBB46_28
.LBB46_22:                              # %if.else64
                                        #   in Loop: Header=BB46_14 Depth=2
	subq	%rbp, %r12
	jne	.LBB46_28
# BB#23:                                #   in Loop: Header=BB46_14 Depth=2
	movl	$1, %r12d
	.align	16, 0x90
.LBB46_28:                              # %if.end95
                                        #   in Loop: Header=BB46_14 Depth=2
	movq	expand_symlinks.checked(%rip), %rax
	movb	$0, (%rax,%r12)
	movabsq	$4294967296, %rax       # imm = 0x100000000
	addq	%rax, %r15
	sarq	$32, %r15
	movq	%rbx, %r14
	subq	%r15, %r14
.LBB46_42:                              # %if.end192
                                        #   in Loop: Header=BB46_14 Depth=2
	leaq	(%r13,%r15), %rbp
	movq	expand_symlinks.checked(%rip), %rdi
	cmpb	$0, (%rdi)
	je	.LBB46_43
# BB#44:                                # %if.end198
